
========================================================================

** ELF Header Information

    File Name: .\obj\MW-V_029.axf

    Machine class: ELFCLASS32 (32-bit)
    Data encoding: ELFDATA2LSB (Little endian)
    Header version: EV_CURRENT (Current version)
    Operating System ABI: none
    ABI Version: 0
    File Type: ET_EXEC (Executable) (2)
    Machine: EM_ARM (ARM)

    Image Entry point: 0x000001d1
    Flags: EF_ARM_HASENTRY + EF_ARM_ABI_FLOAT_SOFT (0x05000202)

    ARM ELF revision: 5 (ABI version 2)

    Conforms to Soft float procedure-call standard

    Built with
    Component: ARM Compiler 5.06 update 4 (build 422) Tool: armasm [4d35cf]
    Component: ARM Compiler 5.06 update 4 (build 422) Tool: armlink [4d35d2]

    Header size: 52 bytes (0x34)
    Program header entry size: 32 bytes (0x20)
    Section header entry size: 40 bytes (0x28)

    Program header entries: 1
    Section header entries: 16

    Program header offset: 736848 (0x000b3e50)
    Section header offset: 736880 (0x000b3e70)

    Section header string table index: 15

========================================================================

** Program header #0 (PT_LOAD) [PF_X + PF_W + PF_R + PF_ARM_ENTRY]
    Size : 38348 bytes (35212 bytes in file)
    Virtual address: 0x00000000 (Alignment 8)


========================================================================

** Section #1 'ER_RO' (SHT_PROGBITS) [SHF_ALLOC + SHF_EXECINSTR]
    Size   : 34628 bytes (alignment 4)
    Address: 0x00000000

    $d.realdata
    RESET
    __Vectors
        0x00000000:    20000e88    ...     DCD    536874632
        0x00000004:    000001d1    ....    DCD    465
        0x00000008:    000001d9    ....    DCD    473
        0x0000000c:    0000017d    }...    DCD    381
        0x00000010:    00000000    ....    DCD    0
        0x00000014:    00000000    ....    DCD    0
        0x00000018:    00000000    ....    DCD    0
        0x0000001c:    00000000    ....    DCD    0
        0x00000020:    00000000    ....    DCD    0
        0x00000024:    00000000    ....    DCD    0
        0x00000028:    00000000    ....    DCD    0
        0x0000002c:    000001dd    ....    DCD    477
        0x00000030:    00000000    ....    DCD    0
        0x00000034:    00000000    ....    DCD    0
        0x00000038:    000001df    ....    DCD    479
        0x0000003c:    000001e1    ....    DCD    481
        0x00000040:    000001e3    ....    DCD    483
        0x00000044:    000001e3    ....    DCD    483
        0x00000048:    000001e3    ....    DCD    483
        0x0000004c:    000001e3    ....    DCD    483
        0x00000050:    000001e3    ....    DCD    483
        0x00000054:    00000ed9    ....    DCD    3801
        0x00000058:    000001e3    ....    DCD    483
        0x0000005c:    000001e3    ....    DCD    483
        0x00000060:    000001e3    ....    DCD    483
        0x00000064:    000020c9    . ..    DCD    8393
        0x00000068:    000001e3    ....    DCD    483
        0x0000006c:    000001e3    ....    DCD    483
        0x00000070:    00002469    i$..    DCD    9321
        0x00000074:    00002499    .$..    DCD    9369
        0x00000078:    000001e3    ....    DCD    483
        0x0000007c:    000001e3    ....    DCD    483
        0x00000080:    000001e3    ....    DCD    483
        0x00000084:    000001e3    ....    DCD    483
        0x00000088:    0000138d    ....    DCD    5005
        0x0000008c:    00001509    ....    DCD    5385
        0x00000090:    000001e3    ....    DCD    483
        0x00000094:    000001e3    ....    DCD    483
        0x00000098:    000026e9    .&..    DCD    9961
        0x0000009c:    000001e3    ....    DCD    483
        0x000000a0:    000001e3    ....    DCD    483
        0x000000a4:    000001e3    ....    DCD    483
        0x000000a8:    000001e3    ....    DCD    483
        0x000000ac:    000001e3    ....    DCD    483
        0x000000b0:    000001e3    ....    DCD    483
        0x000000b4:    000007bd    ....    DCD    1981
        0x000000b8:    000001e3    ....    DCD    483
        0x000000bc:    00001b49    I...    DCD    6985
    $t
    !!!main
    __main
        0x000000c0:    f000f802    ....    BL       __scatterload ; 0xc8
        0x000000c4:    f000f84b    ..K.    BL       __rt_entry ; 0x15e
    !!!scatter
    __scatterload
    __scatterload_rt2
    __scatterload_rt2_thumb_only
        0x000000c8:    a00c        ..      ADR      r0,{pc}+0x34 ; 0xfc
        0x000000ca:    c830        0.      LDM      r0!,{r4,r5}
        0x000000cc:    3808        .8      SUBS     r0,r0,#8
        0x000000ce:    1824        $.      ADDS     r4,r4,r0
        0x000000d0:    182d        -.      ADDS     r5,r5,r0
        0x000000d2:    46a2        .F      MOV      r10,r4
        0x000000d4:    1e67        g.      SUBS     r7,r4,#1
        0x000000d6:    46ab        .F      MOV      r11,r5
    __scatterload_null
        0x000000d8:    4654        TF      MOV      r4,r10
        0x000000da:    465d        ]F      MOV      r5,r11
        0x000000dc:    42ac        .B      CMP      r4,r5
        0x000000de:    d101        ..      BNE      0xe4 ; __scatterload_null + 12
        0x000000e0:    f000f83d    ..=.    BL       __rt_entry ; 0x15e
        0x000000e4:    467e        ~F      MOV      r6,pc
        0x000000e6:    3e0f        .>      SUBS     r6,r6,#0xf
        0x000000e8:    cc0f        ..      LDM      r4!,{r0-r3}
        0x000000ea:    46b6        .F      MOV      lr,r6
        0x000000ec:    2601        .&      MOVS     r6,#1
        0x000000ee:    4233        3B      TST      r3,r6
        0x000000f0:    d000        ..      BEQ      0xf4 ; __scatterload_null + 28
        0x000000f2:    1afb        ..      SUBS     r3,r7,r3
        0x000000f4:    46a2        .F      MOV      r10,r4
        0x000000f6:    46ab        .F      MOV      r11,r5
        0x000000f8:    4333        3C      ORRS     r3,r3,r6
        0x000000fa:    4718        .G      BX       r3
    $d
        0x000000fc:    00008628    (...    DCD    34344
        0x00000100:    00008648    H...    DCD    34376
    $t
    !!handler_copy
    __scatterload_copy
        0x00000104:    3a10        .:      SUBS     r2,r2,#0x10
        0x00000106:    d302        ..      BCC      0x10e ; __scatterload_copy + 10
        0x00000108:    c878        x.      LDM      r0!,{r3-r6}
        0x0000010a:    c178        x.      STM      r1!,{r3-r6}
        0x0000010c:    d8fa        ..      BHI      __scatterload_copy ; 0x104
        0x0000010e:    0752        R.      LSLS     r2,r2,#29
        0x00000110:    d301        ..      BCC      0x116 ; __scatterload_copy + 18
        0x00000112:    c830        0.      LDM      r0!,{r4,r5}
        0x00000114:    c130        0.      STM      r1!,{r4,r5}
        0x00000116:    d501        ..      BPL      0x11c ; __scatterload_copy + 24
        0x00000118:    6804        .h      LDR      r4,[r0,#0]
        0x0000011a:    600c        .`      STR      r4,[r1,#0]
        0x0000011c:    4770        pG      BX       lr
        0x0000011e:    0000        ..      MOVS     r0,r0
    !!handler_zi
    __scatterload_zeroinit
        0x00000120:    2300        .#      MOVS     r3,#0
        0x00000122:    2400        .$      MOVS     r4,#0
        0x00000124:    2500        .%      MOVS     r5,#0
        0x00000126:    2600        .&      MOVS     r6,#0
        0x00000128:    3a10        .:      SUBS     r2,r2,#0x10
        0x0000012a:    d301        ..      BCC      0x130 ; __scatterload_zeroinit + 16
        0x0000012c:    c178        x.      STM      r1!,{r3-r6}
        0x0000012e:    d8fb        ..      BHI      0x128 ; __scatterload_zeroinit + 8
        0x00000130:    0752        R.      LSLS     r2,r2,#29
        0x00000132:    d300        ..      BCC      0x136 ; __scatterload_zeroinit + 22
        0x00000134:    c130        0.      STM      r1!,{r4,r5}
        0x00000136:    d500        ..      BPL      0x13a ; __scatterload_zeroinit + 26
        0x00000138:    600b        .`      STR      r3,[r1,#0]
        0x0000013a:    4770        pG      BX       lr
    .ARM.Collect$$_printf_percent$$00000000
    _printf_percent
        0x0000013c:    b510        ..      PUSH     {r4,lr}
    .ARM.Collect$$_printf_percent$$00000009
    _printf_d
        0x0000013e:    2964        d)      CMP      r1,#0x64
        0x00000140:    d102        ..      BNE      _printf_x ; 0x148
        0x00000142:    f000f895    ....    BL       _printf_int_dec ; 0x270
        0x00000146:    bd10        ..      POP      {r4,pc}
    .ARM.Collect$$_printf_percent$$0000000C
    _printf_x
        0x00000148:    2978        x)      CMP      r1,#0x78
        0x0000014a:    d102        ..      BNE      _printf_percent_end ; 0x152
        0x0000014c:    f000f8c6    ....    BL       _printf_int_hex ; 0x2dc
        0x00000150:    bd10        ..      POP      {r4,pc}
    .ARM.Collect$$_printf_percent$$00000017
    _printf_percent_end
        0x00000152:    2000        .       MOVS     r0,#0
        0x00000154:    bd10        ..      POP      {r4,pc}
    .ARM.Collect$$libinit$$00000000
    __rt_lib_init
        0x00000156:    b51f        ..      PUSH     {r0-r4,lr}
    .ARM.Collect$$libinit$$00000002
    .ARM.Collect$$libinit$$00000004
    .ARM.Collect$$libinit$$0000000A
    .ARM.Collect$$libinit$$0000000C
    .ARM.Collect$$libinit$$0000000E
    .ARM.Collect$$libinit$$00000011
    .ARM.Collect$$libinit$$00000013
    .ARM.Collect$$libinit$$00000015
    .ARM.Collect$$libinit$$00000017
    .ARM.Collect$$libinit$$00000019
    .ARM.Collect$$libinit$$0000001B
    .ARM.Collect$$libinit$$0000001D
    .ARM.Collect$$libinit$$0000001F
    .ARM.Collect$$libinit$$00000021
    .ARM.Collect$$libinit$$00000023
    .ARM.Collect$$libinit$$00000025
    .ARM.Collect$$libinit$$0000002C
    .ARM.Collect$$libinit$$0000002E
    .ARM.Collect$$libinit$$00000030
    .ARM.Collect$$libinit$$00000032
    .ARM.Collect$$libinit$$00000033
    __rt_lib_init_alloca_1
    __rt_lib_init_argv_1
    __rt_lib_init_atexit_1
    __rt_lib_init_clock_1
    __rt_lib_init_cpp_1
    __rt_lib_init_exceptions_1
    __rt_lib_init_fp_1
    __rt_lib_init_fp_trap_1
    __rt_lib_init_getenv_1
    __rt_lib_init_heap_1
    __rt_lib_init_lc_collate_1
    __rt_lib_init_lc_ctype_1
    __rt_lib_init_lc_monetary_1
    __rt_lib_init_lc_numeric_1
    __rt_lib_init_lc_time_1
    __rt_lib_init_preinit_1
    __rt_lib_init_rand_1
    __rt_lib_init_return
    __rt_lib_init_signal_1
    __rt_lib_init_stdio_1
    __rt_lib_init_user_alloc_1
        0x00000158:    bd1f        ..      POP      {r0-r4,pc}
    .ARM.Collect$$libshutdown$$00000000
    __rt_lib_shutdown
        0x0000015a:    b510        ..      PUSH     {r4,lr}
    .ARM.Collect$$libshutdown$$00000002
    .ARM.Collect$$libshutdown$$00000004
    .ARM.Collect$$libshutdown$$00000007
    .ARM.Collect$$libshutdown$$0000000A
    .ARM.Collect$$libshutdown$$0000000C
    .ARM.Collect$$libshutdown$$0000000F
    .ARM.Collect$$libshutdown$$00000010
    __rt_lib_shutdown_cpp_1
    __rt_lib_shutdown_fp_trap_1
    __rt_lib_shutdown_heap_1
    __rt_lib_shutdown_return
    __rt_lib_shutdown_signal_1
    __rt_lib_shutdown_stdio_1
    __rt_lib_shutdown_user_alloc_1
        0x0000015c:    bd10        ..      POP      {r4,pc}
    .ARM.Collect$$rtentry$$00000000
    .ARM.Collect$$rtentry$$00000002
    .ARM.Collect$$rtentry$$00000004
    __rt_entry
    __rt_entry_presh_1
    __rt_entry_sh
        0x0000015e:    f000facd    ....    BL       __user_setup_stackheap ; 0x6fc
        0x00000162:    4611        .F      MOV      r1,r2
    .ARM.Collect$$rtentry$$00000009
    .ARM.Collect$$rtentry$$0000000A
    __rt_entry_li
    __rt_entry_postsh_1
        0x00000164:    f7fffff7    ....    BL       __rt_lib_init ; 0x156
    .ARM.Collect$$rtentry$$0000000C
    .ARM.Collect$$rtentry$$0000000D
    __rt_entry_main
    __rt_entry_postli_1
        0x00000168:    f003f87c    ..|.    BL       main ; 0x3264
        0x0000016c:    f000fae5    ....    BL       exit ; 0x73a
    .ARM.Collect$$rtexit$$00000000
    __rt_exit
        0x00000170:    b403        ..      PUSH     {r0,r1}
    .ARM.Collect$$rtexit$$00000002
    .ARM.Collect$$rtexit$$00000003
    __rt_exit_ls
    __rt_exit_prels_1
        0x00000172:    f7fffff2    ....    BL       __rt_lib_shutdown ; 0x15a
    .ARM.Collect$$rtexit$$00000004
    __rt_exit_exit
        0x00000176:    bc03        ..      POP      {r0,r1}
        0x00000178:    f000faec    ....    BL       _sys_exit ; 0x754
    .emb_text
    HardFault_Handler
        0x0000017c:    2004        .       MOVS     r0,#4
        0x0000017e:    4671        qF      MOV      r1,lr
        0x00000180:    4208        .B      TST      r0,r1
        0x00000182:    d002        ..      BEQ      0x18a ; HardFault_Handler + 14
        0x00000184:    f3ef8009    ....    MRS      r0,PSP
        0x00000188:    e001        ..      B        0x18e ; HardFault_Handler + 18
        0x0000018a:    f3ef8008    ....    MRS      r0,MSP
        0x0000018e:    4671        qF      MOV      r1,lr
        0x00000190:    4a00        .J      LDR      r2,[pc,#0] ; [0x194] = 0x134d
        0x00000192:    4710        .G      BX       r2
    $d
        0x00000194:    0000134d    M...    DCD    4941
    $t
    .emb_text
    __aeabi_memcpy4
    __aeabi_memcpy8
        0x00000198:    b570        p.      PUSH     {r4-r6,lr}
        0x0000019a:    4605        .F      MOV      r5,r0
        0x0000019c:    460c        .F      MOV      r4,r1
        0x0000019e:    4616        .F      MOV      r6,r2
        0x000001a0:    e002        ..      B        0x1a8 ; __aeabi_memcpy4 + 16
        0x000001a2:    cc0f        ..      LDM      r4!,{r0-r3}
        0x000001a4:    c50f        ..      STM      r5!,{r0-r3}
        0x000001a6:    3e10        .>      SUBS     r6,r6,#0x10
        0x000001a8:    2e10        ..      CMP      r6,#0x10
        0x000001aa:    d2fa        ..      BCS      0x1a2 ; __aeabi_memcpy4 + 10
        0x000001ac:    2e08        ..      CMP      r6,#8
        0x000001ae:    d302        ..      BCC      0x1b6 ; __aeabi_memcpy4 + 30
        0x000001b0:    cc03        ..      LDM      r4!,{r0,r1}
        0x000001b2:    c503        ..      STM      r5!,{r0,r1}
        0x000001b4:    3e08        .>      SUBS     r6,r6,#8
        0x000001b6:    2e04        ..      CMP      r6,#4
        0x000001b8:    d307        ..      BCC      0x1ca ; __aeabi_memcpy4 + 50
        0x000001ba:    cc01        ..      LDM      r4!,{r0}
        0x000001bc:    c501        ..      STM      r5!,{r0}
        0x000001be:    1f36        6.      SUBS     r6,r6,#4
        0x000001c0:    e003        ..      B        0x1ca ; __aeabi_memcpy4 + 50
        0x000001c2:    7821        !x      LDRB     r1,[r4,#0]
        0x000001c4:    7029        )p      STRB     r1,[r5,#0]
        0x000001c6:    1c64        d.      ADDS     r4,r4,#1
        0x000001c8:    1c6d        m.      ADDS     r5,r5,#1
        0x000001ca:    1e76        v.      SUBS     r6,r6,#1
        0x000001cc:    d2f9        ..      BCS      0x1c2 ; __aeabi_memcpy4 + 42
        0x000001ce:    bd70        p.      POP      {r4-r6,pc}
    .text
    Reset_Handler
        0x000001d0:    4807        .H      LDR      r0,[pc,#28] ; [0x1f0] = 0x1f35
        0x000001d2:    4780        .G      BLX      r0
        0x000001d4:    4807        .H      LDR      r0,[pc,#28] ; [0x1f4] = 0xc1
        0x000001d6:    4700        .G      BX       r0
    NMI_Handler
        0x000001d8:    e7fe        ..      B        NMI_Handler ; 0x1d8
        0x000001da:    e7fe        ..      B        0x1da ; NMI_Handler + 2
    SVC_Handler
        0x000001dc:    e7fe        ..      B        SVC_Handler ; 0x1dc
    PendSV_Handler
        0x000001de:    e7fe        ..      B        PendSV_Handler ; 0x1de
    SysTick_Handler
        0x000001e0:    e7fe        ..      B        SysTick_Handler ; 0x1e0
    Default_Handler
    ACMP01_IRQHandler
    BOD_IRQHandler
    CLKDIRC_IRQHandler
    EINT024_IRQHandler
    EINT135_IRQHandler
    GPAB_IRQHandler
    PDMA_IRQHandler
    PWM0_IRQHandler
    PWM1_IRQHandler
    PWRWU_IRQHandler
    SC01_IRQHandler
    SPI0_IRQHandler
    SPI1_IRQHandler
    TMR0_IRQHandler
    TMR2_IRQHandler
    TMR3_IRQHandler
    USBD_IRQHandler
    WDT_IRQHandler
        0x000001e2:    e7fe        ..      B        Default_Handler ; 0x1e2
    __user_initial_stackheap
        0x000001e4:    4804        .H      LDR      r0,[pc,#16] ; [0x1f8] = 0x20000a88
        0x000001e6:    4905        .I      LDR      r1,[pc,#20] ; [0x1fc] = 0x20000e88
        0x000001e8:    4a03        .J      LDR      r2,[pc,#12] ; [0x1f8] = 0x20000a88
        0x000001ea:    4b05        .K      LDR      r3,[pc,#20] ; [0x200] = 0x20000a88
        0x000001ec:    4770        pG      BX       lr
    $d
        0x000001ee:    0000        ..      DCW    0
        0x000001f0:    00001f35    5...    DCD    7989
        0x000001f4:    000000c1    ....    DCD    193
        0x000001f8:    20000a88    ...     DCD    536873608
        0x000001fc:    20000e88    ...     DCD    536874632
        0x00000200:    20000a88    ...     DCD    536873608
    $t
    .text
    __2printf
        0x00000204:    b40f        ..      PUSH     {r0-r3}
        0x00000206:    4905        .I      LDR      r1,[pc,#20] ; [0x21c] = 0x20000204
        0x00000208:    b510        ..      PUSH     {r4,lr}
        0x0000020a:    aa03        ..      ADD      r2,sp,#0xc
        0x0000020c:    9802        ..      LDR      r0,[sp,#8]
        0x0000020e:    f000fa35    ..5.    BL       _printf_char_file ; 0x67c
        0x00000212:    bc10        ..      POP      {r4}
        0x00000214:    bc08        ..      POP      {r3}
        0x00000216:    b004        ..      ADD      sp,sp,#0x10
        0x00000218:    4718        .G      BX       r3
    $d
        0x0000021a:    0000        ..      DCW    0
        0x0000021c:    20000204    ...     DCD    536871428
    $t
    .text
    _printf_pre_padding
        0x00000220:    b570        p.      PUSH     {r4-r6,lr}
        0x00000222:    4604        .F      MOV      r4,r0
        0x00000224:    6985        .i      LDR      r5,[r0,#0x18]
        0x00000226:    6800        .h      LDR      r0,[r0,#0]
        0x00000228:    06c1        ..      LSLS     r1,r0,#27
        0x0000022a:    d501        ..      BPL      0x230 ; _printf_pre_padding + 16
        0x0000022c:    2630        0&      MOVS     r6,#0x30
        0x0000022e:    e000        ..      B        0x232 ; _printf_pre_padding + 18
        0x00000230:    2620         &      MOVS     r6,#0x20
        0x00000232:    07c0        ..      LSLS     r0,r0,#31
        0x00000234:    d007        ..      BEQ      0x246 ; _printf_pre_padding + 38
        0x00000236:    bd70        p.      POP      {r4-r6,pc}
        0x00000238:    6862        bh      LDR      r2,[r4,#4]
        0x0000023a:    4630        0F      MOV      r0,r6
        0x0000023c:    68a1        .h      LDR      r1,[r4,#8]
        0x0000023e:    4790        .G      BLX      r2
        0x00000240:    6a20         j      LDR      r0,[r4,#0x20]
        0x00000242:    1c40        @.      ADDS     r0,r0,#1
        0x00000244:    6220         b      STR      r0,[r4,#0x20]
        0x00000246:    1e6d        m.      SUBS     r5,r5,#1
        0x00000248:    d5f6        ..      BPL      0x238 ; _printf_pre_padding + 24
        0x0000024a:    bd70        p.      POP      {r4-r6,pc}
    _printf_post_padding
        0x0000024c:    b570        p.      PUSH     {r4-r6,lr}
        0x0000024e:    4604        .F      MOV      r4,r0
        0x00000250:    6985        .i      LDR      r5,[r0,#0x18]
        0x00000252:    7800        .x      LDRB     r0,[r0,#0]
        0x00000254:    07c0        ..      LSLS     r0,r0,#31
        0x00000256:    d107        ..      BNE      0x268 ; _printf_post_padding + 28
        0x00000258:    bd70        p.      POP      {r4-r6,pc}
        0x0000025a:    6862        bh      LDR      r2,[r4,#4]
        0x0000025c:    68a1        .h      LDR      r1,[r4,#8]
        0x0000025e:    2020                MOVS     r0,#0x20
        0x00000260:    4790        .G      BLX      r2
        0x00000262:    6a20         j      LDR      r0,[r4,#0x20]
        0x00000264:    1c40        @.      ADDS     r0,r0,#1
        0x00000266:    6220         b      STR      r0,[r4,#0x20]
        0x00000268:    1e6d        m.      SUBS     r5,r5,#1
        0x0000026a:    d5f6        ..      BPL      0x25a ; _printf_post_padding + 14
        0x0000026c:    bd70        p.      POP      {r4-r6,pc}
        0x0000026e:    0000        ..      MOVS     r0,r0
    .text
    _printf_int_dec
        0x00000270:    b5f7        ..      PUSH     {r0-r2,r4-r7,lr}
        0x00000272:    2500        .%      MOVS     r5,#0
        0x00000274:    2975        u)      CMP      r1,#0x75
        0x00000276:    6810        .h      LDR      r0,[r2,#0]
        0x00000278:    9900        ..      LDR      r1,[sp,#0]
        0x0000027a:    a614        ..      ADR      r6,{pc}+0x52 ; 0x2cc
        0x0000027c:    d011        ..      BEQ      0x2a2 ; _printf_int_dec + 50
        0x0000027e:    46c0        .F      MOV      r8,r8
        0x00000280:    46c0        .F      MOV      r8,r8
        0x00000282:    2800        .(      CMP      r0,#0
        0x00000284:    da02        ..      BGE      0x28c ; _printf_int_dec + 28
        0x00000286:    4240        @B      RSBS     r0,r0,#0
        0x00000288:    a611        ..      ADR      r6,{pc}+0x48 ; 0x2d0
        0x0000028a:    e008        ..      B        0x29e ; _printf_int_dec + 46
        0x0000028c:    9900        ..      LDR      r1,[sp,#0]
        0x0000028e:    6809        .h      LDR      r1,[r1,#0]
        0x00000290:    078a        ..      LSLS     r2,r1,#30
        0x00000292:    d501        ..      BPL      0x298 ; _printf_int_dec + 40
        0x00000294:    a60f        ..      ADR      r6,{pc}+0x40 ; 0x2d4
        0x00000296:    e002        ..      B        0x29e ; _printf_int_dec + 46
        0x00000298:    0749        I.      LSLS     r1,r1,#29
        0x0000029a:    d504        ..      BPL      0x2a6 ; _printf_int_dec + 54
        0x0000029c:    a60e        ..      ADR      r6,{pc}+0x3c ; 0x2d8
        0x0000029e:    2501        .%      MOVS     r5,#1
        0x000002a0:    e001        ..      B        0x2a6 ; _printf_int_dec + 54
        0x000002a2:    46c0        .F      MOV      r8,r8
        0x000002a4:    46c0        .F      MOV      r8,r8
        0x000002a6:    9f00        ..      LDR      r7,[sp,#0]
        0x000002a8:    2400        .$      MOVS     r4,#0
        0x000002aa:    3724        $7      ADDS     r7,r7,#0x24
        0x000002ac:    e004        ..      B        0x2b8 ; _printf_int_dec + 72
        0x000002ae:    f000f9f9    ....    BL       __rt_udiv10 ; 0x6a4
        0x000002b2:    3130        01      ADDS     r1,r1,#0x30
        0x000002b4:    5539        9U      STRB     r1,[r7,r4]
        0x000002b6:    1c64        d.      ADDS     r4,r4,#1
        0x000002b8:    2800        .(      CMP      r0,#0
        0x000002ba:    d1f8        ..      BNE      0x2ae ; _printf_int_dec + 62
        0x000002bc:    462b        +F      MOV      r3,r5
        0x000002be:    4632        2F      MOV      r2,r6
        0x000002c0:    4621        !F      MOV      r1,r4
        0x000002c2:    9800        ..      LDR      r0,[sp,#0]
        0x000002c4:    f000f982    ....    BL       _printf_int_common ; 0x5cc
        0x000002c8:    bdfe        ..      POP      {r1-r7,pc}
    $d
        0x000002ca:    0000        ..      DCW    0
        0x000002cc:    00000000    ....    DCD    0
        0x000002d0:    0000002d    -...    DCD    45
        0x000002d4:    0000002b    +...    DCD    43
        0x000002d8:    00000020     ...    DCD    32
    $t
    .text
    _printf_int_hex
    _printf_longlong_hex
        0x000002dc:    b570        p.      PUSH     {r4-r6,lr}
        0x000002de:    4604        .F      MOV      r4,r0
        0x000002e0:    460d        .F      MOV      r5,r1
        0x000002e2:    4621        !F      MOV      r1,r4
        0x000002e4:    6810        .h      LDR      r0,[r2,#0]
        0x000002e6:    46c0        .F      MOV      r8,r8
        0x000002e8:    46c0        .F      MOV      r8,r8
        0x000002ea:    8821        !.      LDRH     r1,[r4,#0]
        0x000002ec:    0509        ..      LSLS     r1,r1,#20
        0x000002ee:    d502        ..      BPL      0x2f6 ; _printf_int_hex + 26
        0x000002f0:    4a0f        .J      LDR      r2,[pc,#60] ; [0x330] = 0x83f2
        0x000002f2:    447a        zD      ADD      r2,r2,pc
        0x000002f4:    e002        ..      B        0x2fc ; _printf_int_hex + 32
        0x000002f6:    4a0e        .J      LDR      r2,[pc,#56] ; [0x330] = 0x83f2
        0x000002f8:    447a        zD      ADD      r2,r2,pc
        0x000002fa:    320e        .2      ADDS     r2,r2,#0xe
        0x000002fc:    4623        #F      MOV      r3,r4
        0x000002fe:    2100        .!      MOVS     r1,#0
        0x00000300:    3324        $3      ADDS     r3,r3,#0x24
        0x00000302:    e005        ..      B        0x310 ; _printf_int_hex + 52
        0x00000304:    0706        ..      LSLS     r6,r0,#28
        0x00000306:    0900        ..      LSRS     r0,r0,#4
        0x00000308:    0f36        6.      LSRS     r6,r6,#28
        0x0000030a:    5d96        .]      LDRB     r6,[r2,r6]
        0x0000030c:    545e        ^T      STRB     r6,[r3,r1]
        0x0000030e:    1c49        I.      ADDS     r1,r1,#1
        0x00000310:    2800        .(      CMP      r0,#0
        0x00000312:    d1f7        ..      BNE      0x304 ; _printf_int_hex + 40
        0x00000314:    7820         x      LDRB     r0,[r4,#0]
        0x00000316:    2300        .#      MOVS     r3,#0
        0x00000318:    0700        ..      LSLS     r0,r0,#28
        0x0000031a:    d505        ..      BPL      0x328 ; _printf_int_hex + 76
        0x0000031c:    2d70        p-      CMP      r5,#0x70
        0x0000031e:    d003        ..      BEQ      0x328 ; _printf_int_hex + 76
        0x00000320:    2900        .)      CMP      r1,#0
        0x00000322:    d001        ..      BEQ      0x328 ; _printf_int_hex + 76
        0x00000324:    2302        .#      MOVS     r3,#2
        0x00000326:    3211        .2      ADDS     r2,r2,#0x11
        0x00000328:    4620         F      MOV      r0,r4
        0x0000032a:    f000f94f    ..O.    BL       _printf_int_common ; 0x5cc
        0x0000032e:    bd70        p.      POP      {r4-r6,pc}
    $d
        0x00000330:    000083f2    ....    DCD    33778
    $t
    .text
    __printf
        0x00000334:    b5f3        ..      PUSH     {r0,r1,r4-r7,lr}
        0x00000336:    4604        .F      MOV      r4,r0
        0x00000338:    2000        .       MOVS     r0,#0
        0x0000033a:    b081        ..      SUB      sp,sp,#4
        0x0000033c:    6220         b      STR      r0,[r4,#0x20]
        0x0000033e:    4620         F      MOV      r0,r4
        0x00000340:    68e1        .h      LDR      r1,[r4,#0xc]
        0x00000342:    4788        .G      BLX      r1
        0x00000344:    2800        .(      CMP      r0,#0
        0x00000346:    d07d        }.      BEQ      0x444 ; __printf + 272
        0x00000348:    2825        %(      CMP      r0,#0x25
        0x0000034a:    d002        ..      BEQ      0x352 ; __printf + 30
        0x0000034c:    6862        bh      LDR      r2,[r4,#4]
        0x0000034e:    68a1        .h      LDR      r1,[r4,#8]
        0x00000350:    e083        ..      B        0x45a ; __printf + 294
        0x00000352:    4f45        EO      LDR      r7,[pc,#276] ; [0x468] = 0x83b6
        0x00000354:    2500        .%      MOVS     r5,#0
        0x00000356:    447f        .D      ADD      r7,r7,pc
        0x00000358:    4620         F      MOV      r0,r4
        0x0000035a:    68e1        .h      LDR      r1,[r4,#0xc]
        0x0000035c:    4788        .G      BLX      r1
        0x0000035e:    2820         (      CMP      r0,#0x20
        0x00000360:    4606        .F      MOV      r6,r0
        0x00000362:    db08        ..      BLT      0x376 ; __printf + 66
        0x00000364:    2e31        1.      CMP      r6,#0x31
        0x00000366:    d206        ..      BCS      0x376 ; __printf + 66
        0x00000368:    19b8        ..      ADDS     r0,r7,r6
        0x0000036a:    3820         8      SUBS     r0,r0,#0x20
        0x0000036c:    7800        .x      LDRB     r0,[r0,#0]
        0x0000036e:    2800        .(      CMP      r0,#0
        0x00000370:    d001        ..      BEQ      0x376 ; __printf + 66
        0x00000372:    4305        .C      ORRS     r5,r5,r0
        0x00000374:    e7f0        ..      B        0x358 ; __printf + 36
        0x00000376:    07a8        ..      LSLS     r0,r5,#30
        0x00000378:    d501        ..      BPL      0x37e ; __printf + 74
        0x0000037a:    2004        .       MOVS     r0,#4
        0x0000037c:    4385        .C      BICS     r5,r5,r0
        0x0000037e:    2000        .       MOVS     r0,#0
        0x00000380:    61e0        .a      STR      r0,[r4,#0x1c]
        0x00000382:    4607        .F      MOV      r7,r0
        0x00000384:    61a0        .a      STR      r0,[r4,#0x18]
        0x00000386:    2e2a        *.      CMP      r6,#0x2a
        0x00000388:    d00a        ..      BEQ      0x3a0 ; __printf + 108
        0x0000038a:    4630        0F      MOV      r0,r6
        0x0000038c:    f002fb89    ....    BL       _is_digit ; 0x2aa2
        0x00000390:    2800        .(      CMP      r0,#0
        0x00000392:    d027        '.      BEQ      0x3e4 ; __printf + 176
        0x00000394:    00b8        ..      LSLS     r0,r7,#2
        0x00000396:    1900        ..      ADDS     r0,r0,r4
        0x00000398:    3e30        0>      SUBS     r6,r6,#0x30
        0x0000039a:    9000        ..      STR      r0,[sp,#0]
        0x0000039c:    6186        .a      STR      r6,[r0,#0x18]
        0x0000039e:    e019        ..      B        0x3d4 ; __printf + 160
        0x000003a0:    9802        ..      LDR      r0,[sp,#8]
        0x000003a2:    00ba        ..      LSLS     r2,r7,#2
        0x000003a4:    1912        ..      ADDS     r2,r2,r4
        0x000003a6:    c802        ..      LDM      r0!,{r1}
        0x000003a8:    6191        .a      STR      r1,[r2,#0x18]
        0x000003aa:    9002        ..      STR      r0,[sp,#8]
        0x000003ac:    4620         F      MOV      r0,r4
        0x000003ae:    68e1        .h      LDR      r1,[r4,#0xc]
        0x000003b0:    4788        .G      BLX      r1
        0x000003b2:    2f01        ./      CMP      r7,#1
        0x000003b4:    4606        .F      MOV      r6,r0
        0x000003b6:    d117        ..      BNE      0x3e8 ; __printf + 180
        0x000003b8:    69e0        .i      LDR      r0,[r4,#0x1c]
        0x000003ba:    2800        .(      CMP      r0,#0
        0x000003bc:    da1f        ..      BGE      0x3fe ; __printf + 202
        0x000003be:    2020                MOVS     r0,#0x20
        0x000003c0:    4385        .C      BICS     r5,r5,r0
        0x000003c2:    e01c        ..      B        0x3fe ; __printf + 202
        0x000003c4:    9800        ..      LDR      r0,[sp,#0]
        0x000003c6:    210a        .!      MOVS     r1,#0xa
        0x000003c8:    6980        .i      LDR      r0,[r0,#0x18]
        0x000003ca:    4348        HC      MULS     r0,r1,r0
        0x000003cc:    9900        ..      LDR      r1,[sp,#0]
        0x000003ce:    1980        ..      ADDS     r0,r0,r6
        0x000003d0:    3830        08      SUBS     r0,r0,#0x30
        0x000003d2:    6188        .a      STR      r0,[r1,#0x18]
        0x000003d4:    4620         F      MOV      r0,r4
        0x000003d6:    68e1        .h      LDR      r1,[r4,#0xc]
        0x000003d8:    4788        .G      BLX      r1
        0x000003da:    4606        .F      MOV      r6,r0
        0x000003dc:    f002fb61    ..a.    BL       _is_digit ; 0x2aa2
        0x000003e0:    2800        .(      CMP      r0,#0
        0x000003e2:    d1ef        ..      BNE      0x3c4 ; __printf + 144
        0x000003e4:    2f01        ./      CMP      r7,#1
        0x000003e6:    d00a        ..      BEQ      0x3fe ; __printf + 202
        0x000003e8:    2e2e        ..      CMP      r6,#0x2e
        0x000003ea:    d108        ..      BNE      0x3fe ; __printf + 202
        0x000003ec:    4620         F      MOV      r0,r4
        0x000003ee:    68e1        .h      LDR      r1,[r4,#0xc]
        0x000003f0:    4788        .G      BLX      r1
        0x000003f2:    4606        .F      MOV      r6,r0
        0x000003f4:    2020                MOVS     r0,#0x20
        0x000003f6:    4305        .C      ORRS     r5,r5,r0
        0x000003f8:    1c7f        ..      ADDS     r7,r7,#1
        0x000003fa:    2f02        ./      CMP      r7,#2
        0x000003fc:    dbc3        ..      BLT      0x386 ; __printf + 82
        0x000003fe:    69a0        .i      LDR      r0,[r4,#0x18]
        0x00000400:    2800        .(      CMP      r0,#0
        0x00000402:    da03        ..      BGE      0x40c ; __printf + 216
        0x00000404:    4240        @B      RSBS     r0,r0,#0
        0x00000406:    61a0        .a      STR      r0,[r4,#0x18]
        0x00000408:    2001        .       MOVS     r0,#1
        0x0000040a:    4305        .C      ORRS     r5,r5,r0
        0x0000040c:    07e8        ..      LSLS     r0,r5,#31
        0x0000040e:    d001        ..      BEQ      0x414 ; __printf + 224
        0x00000410:    2010        .       MOVS     r0,#0x10
        0x00000412:    4385        .C      BICS     r5,r5,r0
        0x00000414:    2e00        ..      CMP      r6,#0
        0x00000416:    d024        $.      BEQ      0x462 ; __printf + 302
        0x00000418:    4630        0F      MOV      r0,r6
        0x0000041a:    3841        A8      SUBS     r0,r0,#0x41
        0x0000041c:    2819        .(      CMP      r0,#0x19
        0x0000041e:    d803        ..      BHI      0x428 ; __printf + 244
        0x00000420:    2001        .       MOVS     r0,#1
        0x00000422:    02c0        ..      LSLS     r0,r0,#11
        0x00000424:    4305        .C      ORRS     r5,r5,r0
        0x00000426:    3620         6      ADDS     r6,r6,#0x20
        0x00000428:    4620         F      MOV      r0,r4
        0x0000042a:    6025        %`      STR      r5,[r4,#0]
        0x0000042c:    4631        1F      MOV      r1,r6
        0x0000042e:    9a02        ..      LDR      r2,[sp,#8]
        0x00000430:    4615        .F      MOV      r5,r2
        0x00000432:    f7fffe83    ....    BL       _printf_percent ; 0x13c
        0x00000436:    2800        .(      CMP      r0,#0
        0x00000438:    d00c        ..      BEQ      0x454 ; __printf + 288
        0x0000043a:    2801        .(      CMP      r0,#1
        0x0000043c:    d007        ..      BEQ      0x44e ; __printf + 282
        0x0000043e:    1ded        ..      ADDS     r5,r5,#7
        0x00000440:    08e8        ..      LSRS     r0,r5,#3
        0x00000442:    e000        ..      B        0x446 ; __printf + 274
        0x00000444:    e00d        ..      B        0x462 ; __printf + 302
        0x00000446:    00c0        ..      LSLS     r0,r0,#3
        0x00000448:    3008        .0      ADDS     r0,r0,#8
        0x0000044a:    9002        ..      STR      r0,[sp,#8]
        0x0000044c:    e777        w.      B        0x33e ; __printf + 10
        0x0000044e:    1d2d        -.      ADDS     r5,r5,#4
        0x00000450:    9502        ..      STR      r5,[sp,#8]
        0x00000452:    e774        t.      B        0x33e ; __printf + 10
        0x00000454:    6862        bh      LDR      r2,[r4,#4]
        0x00000456:    4630        0F      MOV      r0,r6
        0x00000458:    68a1        .h      LDR      r1,[r4,#8]
        0x0000045a:    4790        .G      BLX      r2
        0x0000045c:    6a20         j      LDR      r0,[r4,#0x20]
        0x0000045e:    1c40        @.      ADDS     r0,r0,#1
        0x00000460:    e76c        l.      B        0x33c ; __printf + 8
        0x00000462:    6a20         j      LDR      r0,[r4,#0x20]
        0x00000464:    bdfe        ..      POP      {r1-r7,pc}
    $d
        0x00000466:    0000        ..      DCW    0
        0x00000468:    000083b6    ....    DCD    33718
    $t
    .text
    __aeabi_uidiv
    __aeabi_uidivmod
        0x0000046c:    2200        ."      MOVS     r2,#0
        0x0000046e:    0903        ..      LSRS     r3,r0,#4
        0x00000470:    428b        .B      CMP      r3,r1
        0x00000472:    d32c        ,.      BCC      0x4ce ; __aeabi_idiv + 78
        0x00000474:    0a03        ..      LSRS     r3,r0,#8
        0x00000476:    428b        .B      CMP      r3,r1
        0x00000478:    d311        ..      BCC      0x49e ; __aeabi_idiv + 30
        0x0000047a:    2300        .#      MOVS     r3,#0
        0x0000047c:    469c        .F      MOV      r12,r3
        0x0000047e:    e04e        N.      B        0x51e ; __aeabi_idiv + 158
    __aeabi_idiv
    __aeabi_idivmod
        0x00000480:    4603        .F      MOV      r3,r0
        0x00000482:    430b        .C      ORRS     r3,r3,r1
        0x00000484:    d43c        <.      BMI      0x500 ; __aeabi_idiv + 128
        0x00000486:    2200        ."      MOVS     r2,#0
        0x00000488:    0843        C.      LSRS     r3,r0,#1
        0x0000048a:    428b        .B      CMP      r3,r1
        0x0000048c:    d331        1.      BCC      0x4f2 ; __aeabi_idiv + 114
        0x0000048e:    0903        ..      LSRS     r3,r0,#4
        0x00000490:    428b        .B      CMP      r3,r1
        0x00000492:    d31c        ..      BCC      0x4ce ; __aeabi_idiv + 78
        0x00000494:    0a03        ..      LSRS     r3,r0,#8
        0x00000496:    428b        .B      CMP      r3,r1
        0x00000498:    d301        ..      BCC      0x49e ; __aeabi_idiv + 30
        0x0000049a:    4694        .F      MOV      r12,r2
        0x0000049c:    e03f        ?.      B        0x51e ; __aeabi_idiv + 158
        0x0000049e:    09c3        ..      LSRS     r3,r0,#7
        0x000004a0:    428b        .B      CMP      r3,r1
        0x000004a2:    d301        ..      BCC      0x4a8 ; __aeabi_idiv + 40
        0x000004a4:    01cb        ..      LSLS     r3,r1,#7
        0x000004a6:    1ac0        ..      SUBS     r0,r0,r3
        0x000004a8:    4152        RA      ADCS     r2,r2,r2
        0x000004aa:    0983        ..      LSRS     r3,r0,#6
        0x000004ac:    428b        .B      CMP      r3,r1
        0x000004ae:    d301        ..      BCC      0x4b4 ; __aeabi_idiv + 52
        0x000004b0:    018b        ..      LSLS     r3,r1,#6
        0x000004b2:    1ac0        ..      SUBS     r0,r0,r3
        0x000004b4:    4152        RA      ADCS     r2,r2,r2
        0x000004b6:    0943        C.      LSRS     r3,r0,#5
        0x000004b8:    428b        .B      CMP      r3,r1
        0x000004ba:    d301        ..      BCC      0x4c0 ; __aeabi_idiv + 64
        0x000004bc:    014b        K.      LSLS     r3,r1,#5
        0x000004be:    1ac0        ..      SUBS     r0,r0,r3
        0x000004c0:    4152        RA      ADCS     r2,r2,r2
        0x000004c2:    0903        ..      LSRS     r3,r0,#4
        0x000004c4:    428b        .B      CMP      r3,r1
        0x000004c6:    d301        ..      BCC      0x4cc ; __aeabi_idiv + 76
        0x000004c8:    010b        ..      LSLS     r3,r1,#4
        0x000004ca:    1ac0        ..      SUBS     r0,r0,r3
        0x000004cc:    4152        RA      ADCS     r2,r2,r2
        0x000004ce:    08c3        ..      LSRS     r3,r0,#3
        0x000004d0:    428b        .B      CMP      r3,r1
        0x000004d2:    d301        ..      BCC      0x4d8 ; __aeabi_idiv + 88
        0x000004d4:    00cb        ..      LSLS     r3,r1,#3
        0x000004d6:    1ac0        ..      SUBS     r0,r0,r3
        0x000004d8:    4152        RA      ADCS     r2,r2,r2
        0x000004da:    0883        ..      LSRS     r3,r0,#2
        0x000004dc:    428b        .B      CMP      r3,r1
        0x000004de:    d301        ..      BCC      0x4e4 ; __aeabi_idiv + 100
        0x000004e0:    008b        ..      LSLS     r3,r1,#2
        0x000004e2:    1ac0        ..      SUBS     r0,r0,r3
        0x000004e4:    4152        RA      ADCS     r2,r2,r2
        0x000004e6:    0843        C.      LSRS     r3,r0,#1
        0x000004e8:    428b        .B      CMP      r3,r1
        0x000004ea:    d301        ..      BCC      0x4f0 ; __aeabi_idiv + 112
        0x000004ec:    004b        K.      LSLS     r3,r1,#1
        0x000004ee:    1ac0        ..      SUBS     r0,r0,r3
        0x000004f0:    4152        RA      ADCS     r2,r2,r2
        0x000004f2:    1a41        A.      SUBS     r1,r0,r1
        0x000004f4:    d200        ..      BCS      0x4f8 ; __aeabi_idiv + 120
        0x000004f6:    4601        .F      MOV      r1,r0
        0x000004f8:    4152        RA      ADCS     r2,r2,r2
        0x000004fa:    4610        .F      MOV      r0,r2
        0x000004fc:    4770        pG      BX       lr
        0x000004fe:    e05d        ].      B        0x5bc ; __aeabi_idiv + 316
        0x00000500:    0fca        ..      LSRS     r2,r1,#31
        0x00000502:    d000        ..      BEQ      0x506 ; __aeabi_idiv + 134
        0x00000504:    4249        IB      RSBS     r1,r1,#0
        0x00000506:    1003        ..      ASRS     r3,r0,#32
        0x00000508:    d300        ..      BCC      0x50c ; __aeabi_idiv + 140
        0x0000050a:    4240        @B      RSBS     r0,r0,#0
        0x0000050c:    4053        S@      EORS     r3,r3,r2
        0x0000050e:    2200        ."      MOVS     r2,#0
        0x00000510:    469c        .F      MOV      r12,r3
        0x00000512:    0903        ..      LSRS     r3,r0,#4
        0x00000514:    428b        .B      CMP      r3,r1
        0x00000516:    d32d        -.      BCC      0x574 ; __aeabi_idiv + 244
        0x00000518:    0a03        ..      LSRS     r3,r0,#8
        0x0000051a:    428b        .B      CMP      r3,r1
        0x0000051c:    d312        ..      BCC      0x544 ; __aeabi_idiv + 196
        0x0000051e:    22fc        ."      MOVS     r2,#0xfc
        0x00000520:    0189        ..      LSLS     r1,r1,#6
        0x00000522:    ba12        ..      REV      r2,r2
        0x00000524:    0a03        ..      LSRS     r3,r0,#8
        0x00000526:    428b        .B      CMP      r3,r1
        0x00000528:    d30c        ..      BCC      0x544 ; __aeabi_idiv + 196
        0x0000052a:    0189        ..      LSLS     r1,r1,#6
        0x0000052c:    1192        ..      ASRS     r2,r2,#6
        0x0000052e:    428b        .B      CMP      r3,r1
        0x00000530:    d308        ..      BCC      0x544 ; __aeabi_idiv + 196
        0x00000532:    0189        ..      LSLS     r1,r1,#6
        0x00000534:    1192        ..      ASRS     r2,r2,#6
        0x00000536:    428b        .B      CMP      r3,r1
        0x00000538:    d304        ..      BCC      0x544 ; __aeabi_idiv + 196
        0x0000053a:    0189        ..      LSLS     r1,r1,#6
        0x0000053c:    d03a        :.      BEQ      0x5b4 ; __aeabi_idiv + 308
        0x0000053e:    1192        ..      ASRS     r2,r2,#6
        0x00000540:    e000        ..      B        0x544 ; __aeabi_idiv + 196
        0x00000542:    0989        ..      LSRS     r1,r1,#6
        0x00000544:    09c3        ..      LSRS     r3,r0,#7
        0x00000546:    428b        .B      CMP      r3,r1
        0x00000548:    d301        ..      BCC      0x54e ; __aeabi_idiv + 206
        0x0000054a:    01cb        ..      LSLS     r3,r1,#7
        0x0000054c:    1ac0        ..      SUBS     r0,r0,r3
        0x0000054e:    4152        RA      ADCS     r2,r2,r2
        0x00000550:    0983        ..      LSRS     r3,r0,#6
        0x00000552:    428b        .B      CMP      r3,r1
        0x00000554:    d301        ..      BCC      0x55a ; __aeabi_idiv + 218
        0x00000556:    018b        ..      LSLS     r3,r1,#6
        0x00000558:    1ac0        ..      SUBS     r0,r0,r3
        0x0000055a:    4152        RA      ADCS     r2,r2,r2
        0x0000055c:    0943        C.      LSRS     r3,r0,#5
        0x0000055e:    428b        .B      CMP      r3,r1
        0x00000560:    d301        ..      BCC      0x566 ; __aeabi_idiv + 230
        0x00000562:    014b        K.      LSLS     r3,r1,#5
        0x00000564:    1ac0        ..      SUBS     r0,r0,r3
        0x00000566:    4152        RA      ADCS     r2,r2,r2
        0x00000568:    0903        ..      LSRS     r3,r0,#4
        0x0000056a:    428b        .B      CMP      r3,r1
        0x0000056c:    d301        ..      BCC      0x572 ; __aeabi_idiv + 242
        0x0000056e:    010b        ..      LSLS     r3,r1,#4
        0x00000570:    1ac0        ..      SUBS     r0,r0,r3
        0x00000572:    4152        RA      ADCS     r2,r2,r2
        0x00000574:    08c3        ..      LSRS     r3,r0,#3
        0x00000576:    428b        .B      CMP      r3,r1
        0x00000578:    d301        ..      BCC      0x57e ; __aeabi_idiv + 254
        0x0000057a:    00cb        ..      LSLS     r3,r1,#3
        0x0000057c:    1ac0        ..      SUBS     r0,r0,r3
        0x0000057e:    4152        RA      ADCS     r2,r2,r2
        0x00000580:    0883        ..      LSRS     r3,r0,#2
        0x00000582:    428b        .B      CMP      r3,r1
        0x00000584:    d301        ..      BCC      0x58a ; __aeabi_idiv + 266
        0x00000586:    008b        ..      LSLS     r3,r1,#2
        0x00000588:    1ac0        ..      SUBS     r0,r0,r3
        0x0000058a:    4152        RA      ADCS     r2,r2,r2
        0x0000058c:    d2d9        ..      BCS      0x542 ; __aeabi_idiv + 194
        0x0000058e:    0843        C.      LSRS     r3,r0,#1
        0x00000590:    428b        .B      CMP      r3,r1
        0x00000592:    d301        ..      BCC      0x598 ; __aeabi_idiv + 280
        0x00000594:    004b        K.      LSLS     r3,r1,#1
        0x00000596:    1ac0        ..      SUBS     r0,r0,r3
        0x00000598:    4152        RA      ADCS     r2,r2,r2
        0x0000059a:    1a41        A.      SUBS     r1,r0,r1
        0x0000059c:    d200        ..      BCS      0x5a0 ; __aeabi_idiv + 288
        0x0000059e:    4601        .F      MOV      r1,r0
        0x000005a0:    4663        cF      MOV      r3,r12
        0x000005a2:    4152        RA      ADCS     r2,r2,r2
        0x000005a4:    105b        [.      ASRS     r3,r3,#1
        0x000005a6:    4610        .F      MOV      r0,r2
        0x000005a8:    d301        ..      BCC      0x5ae ; __aeabi_idiv + 302
        0x000005aa:    4240        @B      RSBS     r0,r0,#0
        0x000005ac:    2b00        .+      CMP      r3,#0
        0x000005ae:    d500        ..      BPL      0x5b2 ; __aeabi_idiv + 306
        0x000005b0:    4249        IB      RSBS     r1,r1,#0
        0x000005b2:    4770        pG      BX       lr
        0x000005b4:    4663        cF      MOV      r3,r12
        0x000005b6:    105b        [.      ASRS     r3,r3,#1
        0x000005b8:    d300        ..      BCC      0x5bc ; __aeabi_idiv + 316
        0x000005ba:    4240        @B      RSBS     r0,r0,#0
        0x000005bc:    b501        ..      PUSH     {r0,lr}
        0x000005be:    2000        .       MOVS     r0,#0
        0x000005c0:    46c0        .F      MOV      r8,r8
        0x000005c2:    46c0        .F      MOV      r8,r8
        0x000005c4:    bd02        ..      POP      {r1,pc}
    .text
    __use_two_region_memory
        0x000005c6:    4770        pG      BX       lr
    __rt_heap_escrow$2region
        0x000005c8:    4770        pG      BX       lr
    __rt_heap_expand$2region
        0x000005ca:    4770        pG      BX       lr
    .text
    _printf_int_common
        0x000005cc:    b5ff        ..      PUSH     {r0-r7,lr}
        0x000005ce:    4604        .F      MOV      r4,r0
        0x000005d0:    460d        .F      MOV      r5,r1
        0x000005d2:    b081        ..      SUB      sp,sp,#4
        0x000005d4:    3024        $0      ADDS     r0,r0,#0x24
        0x000005d6:    9000        ..      STR      r0,[sp,#0]
        0x000005d8:    6821        !h      LDR      r1,[r4,#0]
        0x000005da:    0688        ..      LSLS     r0,r1,#26
        0x000005dc:    d504        ..      BPL      0x5e8 ; _printf_int_common + 28
        0x000005de:    2210        ."      MOVS     r2,#0x10
        0x000005e0:    69e0        .i      LDR      r0,[r4,#0x1c]
        0x000005e2:    4391        .C      BICS     r1,r1,r2
        0x000005e4:    6021        !`      STR      r1,[r4,#0]
        0x000005e6:    e000        ..      B        0x5ea ; _printf_int_common + 30
        0x000005e8:    2001        .       MOVS     r0,#1
        0x000005ea:    42a8        .B      CMP      r0,r5
        0x000005ec:    dd01        ..      BLE      0x5f2 ; _printf_int_common + 38
        0x000005ee:    1b47        G.      SUBS     r7,r0,r5
        0x000005f0:    e000        ..      B        0x5f4 ; _printf_int_common + 40
        0x000005f2:    2700        .'      MOVS     r7,#0
        0x000005f4:    9804        ..      LDR      r0,[sp,#0x10]
        0x000005f6:    69a1        .i      LDR      r1,[r4,#0x18]
        0x000005f8:    197a        z.      ADDS     r2,r7,r5
        0x000005fa:    1810        ..      ADDS     r0,r2,r0
        0x000005fc:    1a08        ..      SUBS     r0,r1,r0
        0x000005fe:    61a0        .a      STR      r0,[r4,#0x18]
        0x00000600:    7820         x      LDRB     r0,[r4,#0]
        0x00000602:    06c0        ..      LSLS     r0,r0,#27
        0x00000604:    d402        ..      BMI      0x60c ; _printf_int_common + 64
        0x00000606:    4620         F      MOV      r0,r4
        0x00000608:    f7fffe0a    ....    BL       _printf_pre_padding ; 0x220
        0x0000060c:    2600        .&      MOVS     r6,#0
        0x0000060e:    e008        ..      B        0x622 ; _printf_int_common + 86
        0x00000610:    9803        ..      LDR      r0,[sp,#0xc]
        0x00000612:    6862        bh      LDR      r2,[r4,#4]
        0x00000614:    68a1        .h      LDR      r1,[r4,#8]
        0x00000616:    5d80        .]      LDRB     r0,[r0,r6]
        0x00000618:    4790        .G      BLX      r2
        0x0000061a:    6a20         j      LDR      r0,[r4,#0x20]
        0x0000061c:    1c40        @.      ADDS     r0,r0,#1
        0x0000061e:    1c76        v.      ADDS     r6,r6,#1
        0x00000620:    6220         b      STR      r0,[r4,#0x20]
        0x00000622:    9804        ..      LDR      r0,[sp,#0x10]
        0x00000624:    4286        .B      CMP      r6,r0
        0x00000626:    dbf3        ..      BLT      0x610 ; _printf_int_common + 68
        0x00000628:    7820         x      LDRB     r0,[r4,#0]
        0x0000062a:    06c0        ..      LSLS     r0,r0,#27
        0x0000062c:    d50a        ..      BPL      0x644 ; _printf_int_common + 120
        0x0000062e:    4620         F      MOV      r0,r4
        0x00000630:    f7fffdf6    ....    BL       _printf_pre_padding ; 0x220
        0x00000634:    e006        ..      B        0x644 ; _printf_int_common + 120
        0x00000636:    6862        bh      LDR      r2,[r4,#4]
        0x00000638:    68a1        .h      LDR      r1,[r4,#8]
        0x0000063a:    2030        0       MOVS     r0,#0x30
        0x0000063c:    4790        .G      BLX      r2
        0x0000063e:    6a20         j      LDR      r0,[r4,#0x20]
        0x00000640:    1c40        @.      ADDS     r0,r0,#1
        0x00000642:    6220         b      STR      r0,[r4,#0x20]
        0x00000644:    4638        8F      MOV      r0,r7
        0x00000646:    1e7f        ..      SUBS     r7,r7,#1
        0x00000648:    2800        .(      CMP      r0,#0
        0x0000064a:    dcf4        ..      BGT      0x636 ; _printf_int_common + 106
        0x0000064c:    e007        ..      B        0x65e ; _printf_int_common + 146
        0x0000064e:    9800        ..      LDR      r0,[sp,#0]
        0x00000650:    6862        bh      LDR      r2,[r4,#4]
        0x00000652:    68a1        .h      LDR      r1,[r4,#8]
        0x00000654:    5d40        @]      LDRB     r0,[r0,r5]
        0x00000656:    4790        .G      BLX      r2
        0x00000658:    6a20         j      LDR      r0,[r4,#0x20]
        0x0000065a:    1c40        @.      ADDS     r0,r0,#1
        0x0000065c:    6220         b      STR      r0,[r4,#0x20]
        0x0000065e:    4628        (F      MOV      r0,r5
        0x00000660:    1e6d        m.      SUBS     r5,r5,#1
        0x00000662:    2800        .(      CMP      r0,#0
        0x00000664:    dcf3        ..      BGT      0x64e ; _printf_int_common + 130
        0x00000666:    4620         F      MOV      r0,r4
        0x00000668:    f7fffdf0    ....    BL       _printf_post_padding ; 0x24c
        0x0000066c:    7820         x      LDRB     r0,[r4,#0]
        0x0000066e:    0600        ..      LSLS     r0,r0,#24
        0x00000670:    d502        ..      BPL      0x678 ; _printf_int_common + 172
        0x00000672:    2002        .       MOVS     r0,#2
        0x00000674:    b005        ..      ADD      sp,sp,#0x14
        0x00000676:    bdf0        ..      POP      {r4-r7,pc}
        0x00000678:    2001        .       MOVS     r0,#1
        0x0000067a:    e7fb        ..      B        0x674 ; _printf_int_common + 168
    .text
    _printf_char_file
        0x0000067c:    4b08        .K      LDR      r3,[pc,#32] ; [0x6a0] = 0x2bd1
        0x0000067e:    b570        p.      PUSH     {r4-r6,lr}
        0x00000680:    460d        .F      MOV      r5,r1
        0x00000682:    447b        {D      ADD      r3,r3,pc
        0x00000684:    f000f827    ..'.    BL       _printf_char_common ; 0x6d6
        0x00000688:    4604        .F      MOV      r4,r0
        0x0000068a:    4628        (F      MOV      r0,r5
        0x0000068c:    f002fde0    ....    BL       ferror ; 0x3250
        0x00000690:    2800        .(      CMP      r0,#0
        0x00000692:    d002        ..      BEQ      0x69a ; _printf_char_file + 30
        0x00000694:    2000        .       MOVS     r0,#0
        0x00000696:    43c0        .C      MVNS     r0,r0
        0x00000698:    bd70        p.      POP      {r4-r6,pc}
        0x0000069a:    4620         F      MOV      r0,r4
        0x0000069c:    bd70        p.      POP      {r4-r6,pc}
    $d
        0x0000069e:    0000        ..      DCW    0
        0x000006a0:    00002bd1    .+..    DCD    11217
    $t
    .text
    __rt_udiv10
        0x000006a4:    4601        .F      MOV      r1,r0
        0x000006a6:    0880        ..      LSRS     r0,r0,#2
        0x000006a8:    1a08        ..      SUBS     r0,r1,r0
        0x000006aa:    0902        ..      LSRS     r2,r0,#4
        0x000006ac:    1810        ..      ADDS     r0,r2,r0
        0x000006ae:    0a02        ..      LSRS     r2,r0,#8
        0x000006b0:    1810        ..      ADDS     r0,r2,r0
        0x000006b2:    0c02        ..      LSRS     r2,r0,#16
        0x000006b4:    1810        ..      ADDS     r0,r2,r0
        0x000006b6:    08c0        ..      LSRS     r0,r0,#3
        0x000006b8:    0082        ..      LSLS     r2,r0,#2
        0x000006ba:    1812        ..      ADDS     r2,r2,r0
        0x000006bc:    0052        R.      LSLS     r2,r2,#1
        0x000006be:    1a89        ..      SUBS     r1,r1,r2
        0x000006c0:    e001        ..      B        0x6c6 ; __rt_udiv10 + 34
        0x000006c2:    1c40        @.      ADDS     r0,r0,#1
        0x000006c4:    390a        .9      SUBS     r1,r1,#0xa
        0x000006c6:    290a        .)      CMP      r1,#0xa
        0x000006c8:    d2fb        ..      BCS      0x6c2 ; __rt_udiv10 + 30
        0x000006ca:    4770        pG      BX       lr
    .text
    _printf_input_char
        0x000006cc:    6901        .i      LDR      r1,[r0,#0x10]
        0x000006ce:    1c4a        J.      ADDS     r2,r1,#1
        0x000006d0:    6102        .a      STR      r2,[r0,#0x10]
        0x000006d2:    7808        .x      LDRB     r0,[r1,#0]
        0x000006d4:    4770        pG      BX       lr
    _printf_char_common
        0x000006d6:    b500        ..      PUSH     {lr}
        0x000006d8:    b08f        ..      SUB      sp,sp,#0x3c
        0x000006da:    9102        ..      STR      r1,[sp,#8]
        0x000006dc:    2100        .!      MOVS     r1,#0
        0x000006de:    9105        ..      STR      r1,[sp,#0x14]
        0x000006e0:    4905        .I      LDR      r1,[pc,#20] ; [0x6f8] = 0xffffffe5
        0x000006e2:    9301        ..      STR      r3,[sp,#4]
        0x000006e4:    4479        yD      ADD      r1,r1,pc
        0x000006e6:    9103        ..      STR      r1,[sp,#0xc]
        0x000006e8:    4611        .F      MOV      r1,r2
        0x000006ea:    9004        ..      STR      r0,[sp,#0x10]
        0x000006ec:    4668        hF      MOV      r0,sp
        0x000006ee:    f7fffe21    ..!.    BL       __printf ; 0x334
        0x000006f2:    b00f        ..      ADD      sp,sp,#0x3c
        0x000006f4:    bd00        ..      POP      {pc}
    $d
        0x000006f6:    0000        ..      DCW    0
        0x000006f8:    ffffffe5    ....    DCD    4294967269
    $t
    .text
    __user_setup_stackheap
        0x000006fc:    4675        uF      MOV      r5,lr
        0x000006fe:    f000f825    ..%.    BL       __user_libspace ; 0x74c
        0x00000702:    46ae        .F      MOV      lr,r5
        0x00000704:    0005        ..      MOVS     r5,r0
        0x00000706:    4669        iF      MOV      r1,sp
        0x00000708:    4653        SF      MOV      r3,r10
        0x0000070a:    08c0        ..      LSRS     r0,r0,#3
        0x0000070c:    00c0        ..      LSLS     r0,r0,#3
        0x0000070e:    4685        .F      MOV      sp,r0
        0x00000710:    b018        ..      ADD      sp,sp,#0x60
        0x00000712:    b520         .      PUSH     {r5,lr}
        0x00000714:    f7fffd66    ..f.    BL       __user_initial_stackheap ; 0x1e4
        0x00000718:    bc60        `.      POP      {r5,r6}
        0x0000071a:    2700        .'      MOVS     r7,#0
        0x0000071c:    0849        I.      LSRS     r1,r1,#1
        0x0000071e:    46b6        .F      MOV      lr,r6
        0x00000720:    2600        .&      MOVS     r6,#0
        0x00000722:    c5c0        ..      STM      r5!,{r6,r7}
        0x00000724:    c5c0        ..      STM      r5!,{r6,r7}
        0x00000726:    c5c0        ..      STM      r5!,{r6,r7}
        0x00000728:    c5c0        ..      STM      r5!,{r6,r7}
        0x0000072a:    c5c0        ..      STM      r5!,{r6,r7}
        0x0000072c:    c5c0        ..      STM      r5!,{r6,r7}
        0x0000072e:    c5c0        ..      STM      r5!,{r6,r7}
        0x00000730:    c5c0        ..      STM      r5!,{r6,r7}
        0x00000732:    3d40        @=      SUBS     r5,r5,#0x40
        0x00000734:    0049        I.      LSLS     r1,r1,#1
        0x00000736:    468d        .F      MOV      sp,r1
        0x00000738:    4770        pG      BX       lr
    .text
    exit
        0x0000073a:    b510        ..      PUSH     {r4,lr}
        0x0000073c:    4604        .F      MOV      r4,r0
        0x0000073e:    46c0        .F      MOV      r8,r8
        0x00000740:    46c0        .F      MOV      r8,r8
        0x00000742:    4620         F      MOV      r0,r4
        0x00000744:    f7fffd14    ....    BL       __rt_exit ; 0x170
        0x00000748:    bd10        ..      POP      {r4,pc}
        0x0000074a:    0000        ..      MOVS     r0,r0
    .text
    __user_libspace
    __user_perproc_libspace
    __user_perthread_libspace
        0x0000074c:    4800        .H      LDR      r0,[pc,#0] ; [0x750] = 0x20000a24
        0x0000074e:    4770        pG      BX       lr
    $d
        0x00000750:    20000a24    $..     DCD    536873508
    $t
    .text
    _sys_exit
        0x00000754:    4901        .I      LDR      r1,[pc,#4] ; [0x75c] = 0x20026
        0x00000756:    2018        .       MOVS     r0,#0x18
        0x00000758:    beab        ..      BKPT     #0xab
        0x0000075a:    e7fe        ..      B        0x75a ; _sys_exit + 6
    $d
        0x0000075c:    00020026    &...    DCD    131110
    $t
    .text
    __I$use$semihosting
    __use_no_semihosting_swi
        0x00000760:    4770        pG      BX       lr
    .text
    __semihosting_library_function
        0x00000762:    0000        ..      MOVS     r0,r0
    i.ADC_DisableInt
    ADC_DisableInt
        0x00000764:    07cb        ..      LSLS     r3,r1,#31
        0x00000766:    4809        .H      LDR      r0,[pc,#36] ; [0x78c] = 0x400e0080
        0x00000768:    2202        ."      MOVS     r2,#2
        0x0000076a:    2b00        .+      CMP      r3,#0
        0x0000076c:    d002        ..      BEQ      0x774 ; ADC_DisableInt + 16
        0x0000076e:    6803        .h      LDR      r3,[r0,#0]
        0x00000770:    4393        .C      BICS     r3,r3,r2
        0x00000772:    6003        .`      STR      r3,[r0,#0]
        0x00000774:    078b        ..      LSLS     r3,r1,#30
        0x00000776:    d502        ..      BPL      0x77e ; ADC_DisableInt + 26
        0x00000778:    6883        .h      LDR      r3,[r0,#8]
        0x0000077a:    4393        .C      BICS     r3,r3,r2
        0x0000077c:    6083        .`      STR      r3,[r0,#8]
        0x0000077e:    0749        I.      LSLS     r1,r1,#29
        0x00000780:    d502        ..      BPL      0x788 ; ADC_DisableInt + 36
        0x00000782:    68c1        .h      LDR      r1,[r0,#0xc]
        0x00000784:    4391        .C      BICS     r1,r1,r2
        0x00000786:    60c1        .`      STR      r1,[r0,#0xc]
        0x00000788:    4770        pG      BX       lr
    $d
        0x0000078a:    0000        ..      DCW    0
        0x0000078c:    400e0080    ...@    DCD    1074659456
    $t
    i.ADC_EnableInt
    ADC_EnableInt
        0x00000790:    07cb        ..      LSLS     r3,r1,#31
        0x00000792:    4809        .H      LDR      r0,[pc,#36] ; [0x7b8] = 0x400e0080
        0x00000794:    2202        ."      MOVS     r2,#2
        0x00000796:    2b00        .+      CMP      r3,#0
        0x00000798:    d002        ..      BEQ      0x7a0 ; ADC_EnableInt + 16
        0x0000079a:    6803        .h      LDR      r3,[r0,#0]
        0x0000079c:    4313        .C      ORRS     r3,r3,r2
        0x0000079e:    6003        .`      STR      r3,[r0,#0]
        0x000007a0:    078b        ..      LSLS     r3,r1,#30
        0x000007a2:    d502        ..      BPL      0x7aa ; ADC_EnableInt + 26
        0x000007a4:    6883        .h      LDR      r3,[r0,#8]
        0x000007a6:    4313        .C      ORRS     r3,r3,r2
        0x000007a8:    6083        .`      STR      r3,[r0,#8]
        0x000007aa:    0749        I.      LSLS     r1,r1,#29
        0x000007ac:    d502        ..      BPL      0x7b4 ; ADC_EnableInt + 36
        0x000007ae:    68c1        .h      LDR      r1,[r0,#0xc]
        0x000007b0:    4311        .C      ORRS     r1,r1,r2
        0x000007b2:    60c1        .`      STR      r1,[r0,#0xc]
        0x000007b4:    4770        pG      BX       lr
    $d
        0x000007b6:    0000        ..      DCW    0
        0x000007b8:    400e0080    ...@    DCD    1074659456
    $t
    i.ADC_IRQHandler
    ADC_IRQHandler
        0x000007bc:    b510        ..      PUSH     {r4,lr}
        0x000007be:    480a        .H      LDR      r0,[pc,#40] ; [0x7e8] = 0x400e0080
        0x000007c0:    2101        .!      MOVS     r1,#1
        0x000007c2:    6101        .a      STR      r1,[r0,#0x10]
        0x000007c4:    4a09        .J      LDR      r2,[pc,#36] ; [0x7ec] = 0xe000e180
        0x000007c6:    0581        ..      LSLS     r1,r0,#22
        0x000007c8:    6011        .`      STR      r1,[r2,#0]
        0x000007ca:    6900        .i      LDR      r0,[r0,#0x10]
        0x000007cc:    4c06        .L      LDR      r4,[pc,#24] ; [0x7e8] = 0x400e0080
        0x000007ce:    3c80        .<      SUBS     r4,r4,#0x80
        0x000007d0:    6b20         k      LDR      r0,[r4,#0x30]
        0x000007d2:    b281        ..      UXTH     r1,r0
        0x000007d4:    a006        ..      ADR      r0,{pc}+0x1c ; 0x7f0
        0x000007d6:    f7fffd15    ....    BL       __2printf ; 0x204
        0x000007da:    6be0        .k      LDR      r0,[r4,#0x3c]
        0x000007dc:    b281        ..      UXTH     r1,r0
        0x000007de:    a00e        ..      ADR      r0,{pc}+0x3a ; 0x818
        0x000007e0:    f7fffd10    ....    BL       __2printf ; 0x204
        0x000007e4:    bd10        ..      POP      {r4,pc}
    $d
        0x000007e6:    0000        ..      DCW    0
        0x000007e8:    400e0080    ...@    DCD    1074659456
        0x000007ec:    e000e180    ....    DCD    3758154112
        0x000007f0:    766e6f43    Conv    DCD    1986948931
        0x000007f4:    69737265    ersi    DCD    1769173605
        0x000007f8:    72206e6f    on r    DCD    1914728047
        0x000007fc:    6c757365    esul    DCD    1819636581
        0x00000800:    666f2074    t of    DCD    1718558836
        0x00000804:    61686320     cha    DCD    1634231072
        0x00000808:    6c656e6e    nnel    DCD    1818586734
        0x0000080c:    3a323120     12:    DCD    976367904
        0x00000810:    25783020     0x%    DCD    628633632
        0x00000814:    000a2058    X ..    DCD    663640
        0x00000818:    766e6f43    Conv    DCD    1986948931
        0x0000081c:    69737265    ersi    DCD    1769173605
        0x00000820:    72206e6f    on r    DCD    1914728047
        0x00000824:    6c757365    esul    DCD    1819636581
        0x00000828:    666f2074    t of    DCD    1718558836
        0x0000082c:    61686320     cha    DCD    1634231072
        0x00000830:    6c656e6e    nnel    DCD    1818586734
        0x00000834:    3a353120     15:    DCD    976564512
        0x00000838:    25783020     0x%    DCD    628633632
        0x0000083c:    000a2058    X ..    DCD    663640
    $t
    i.ADC_Open
    ADC_Open
        0x00000840:    b530        0.      PUSH     {r4,r5,lr}
        0x00000842:    4805        .H      LDR      r0,[pc,#20] ; [0x858] = 0x400e0080
        0x00000844:    6804        .h      LDR      r4,[r0,#0]
        0x00000846:    4d05        .M      LDR      r5,[pc,#20] ; [0x85c] = 0xfffffbf3
        0x00000848:    402c        ,@      ANDS     r4,r4,r5
        0x0000084a:    430c        .C      ORRS     r4,r4,r1
        0x0000084c:    4314        .C      ORRS     r4,r4,r2
        0x0000084e:    6004        .`      STR      r4,[r0,#0]
        0x00000850:    6841        Ah      LDR      r1,[r0,#4]
        0x00000852:    6043        C`      STR      r3,[r0,#4]
        0x00000854:    bd30        0.      POP      {r4,r5,pc}
    $d
        0x00000856:    0000        ..      DCW    0
        0x00000858:    400e0080    ...@    DCD    1074659456
        0x0000085c:    fffffbf3    ....    DCD    4294966259
    $t
    i.CLK_DisablePLL
    CLK_DisablePLL
        0x00000860:    4802        .H      LDR      r0,[pc,#8] ; [0x86c] = 0x50000200
        0x00000862:    6a01        .j      LDR      r1,[r0,#0x20]
        0x00000864:    01c2        ..      LSLS     r2,r0,#7
        0x00000866:    4311        .C      ORRS     r1,r1,r2
        0x00000868:    6201        .b      STR      r1,[r0,#0x20]
        0x0000086a:    4770        pG      BX       lr
    $d
        0x0000086c:    50000200    ...P    DCD    1342177792
    $t
    i.CLK_EnableModuleClock
    CLK_EnableModuleClock
        0x00000870:    b50e        ..      PUSH     {r1-r3,lr}
        0x00000872:    4909        .I      LDR      r1,[pc,#36] ; [0x898] = 0x86b0
        0x00000874:    c90e        ..      LDM      r1,{r1-r3}
        0x00000876:    9100        ..      STR      r1,[sp,#0]
        0x00000878:    9201        ..      STR      r2,[sp,#4]
        0x0000087a:    0f81        ..      LSRS     r1,r0,#30
        0x0000087c:    008a        ..      LSLS     r2,r1,#2
        0x0000087e:    9302        ..      STR      r3,[sp,#8]
        0x00000880:    4669        iF      MOV      r1,sp
        0x00000882:    588a        .X      LDR      r2,[r1,r2]
        0x00000884:    4905        .I      LDR      r1,[pc,#20] ; [0x89c] = 0x50000200
        0x00000886:    1851        Q.      ADDS     r1,r2,r1
        0x00000888:    684a        Jh      LDR      r2,[r1,#4]
        0x0000088a:    06c3        ..      LSLS     r3,r0,#27
        0x0000088c:    0edb        ..      LSRS     r3,r3,#27
        0x0000088e:    2001        .       MOVS     r0,#1
        0x00000890:    4098        .@      LSLS     r0,r0,r3
        0x00000892:    4302        .C      ORRS     r2,r2,r0
        0x00000894:    604a        J`      STR      r2,[r1,#4]
        0x00000896:    bd0e        ..      POP      {r1-r3,pc}
    $d
        0x00000898:    000086b0    ....    DCD    34480
        0x0000089c:    50000200    ...P    DCD    1342177792
    $t
    i.CLK_EnablePLL
    CLK_EnablePLL
        0x000008a0:    b5f0        ..      PUSH     {r4-r7,lr}
        0x000008a2:    b085        ..      SUB      sp,sp,#0x14
        0x000008a4:    460c        .F      MOV      r4,r1
        0x000008a6:    4607        .F      MOV      r7,r0
        0x000008a8:    f7ffffda    ....    BL       CLK_DisablePLL ; 0x860
        0x000008ac:    4855        UH      LDR      r0,[pc,#340] ; [0xa04] = 0x50000200
        0x000008ae:    4e54        TN      LDR      r6,[pc,#336] ; [0xa00] = 0xb71b00
        0x000008b0:    6801        .h      LDR      r1,[r0,#0]
        0x000008b2:    2f00        ./      CMP      r7,#0
        0x000008b4:    d013        ..      BEQ      0x8de ; CLK_EnablePLL + 62
        0x000008b6:    2204        ."      MOVS     r2,#4
        0x000008b8:    4311        .C      ORRS     r1,r1,r2
        0x000008ba:    6001        .`      STR      r1,[r0,#0]
        0x000008bc:    2010        .       MOVS     r0,#0x10
        0x000008be:    f000f98d    ....    BL       CLK_WaitClockReady ; 0xbdc
        0x000008c2:    2001        .       MOVS     r0,#1
        0x000008c4:    04c0        ..      LSLS     r0,r0,#19
        0x000008c6:    9002        ..      STR      r0,[sp,#8]
        0x000008c8:    484f        OH      LDR      r0,[pc,#316] ; [0xa08] = 0x1518000
        0x000008ca:    2504        .%      MOVS     r5,#4
        0x000008cc:    9003        ..      STR      r0,[sp,#0xc]
        0x000008ce:    484f        OH      LDR      r0,[pc,#316] ; [0xa0c] = 0xfa0a1eff
        0x000008d0:    494f        OI      LDR      r1,[pc,#316] ; [0xa10] = 0x5f5e0ff
        0x000008d2:    1820         .      ADDS     r0,r4,r0
        0x000008d4:    4288        .B      CMP      r0,r1
        0x000008d6:    d80d        ..      BHI      0x8f4 ; CLK_EnablePLL + 84
        0x000008d8:    2000        .       MOVS     r0,#0
        0x000008da:    9004        ..      STR      r0,[sp,#0x10]
        0x000008dc:    e01c        ..      B        0x918 ; CLK_EnablePLL + 120
        0x000008de:    2201        ."      MOVS     r2,#1
        0x000008e0:    4311        .C      ORRS     r1,r1,r2
        0x000008e2:    6001        .`      STR      r1,[r0,#0]
        0x000008e4:    4610        .F      MOV      r0,r2
        0x000008e6:    f000f979    ..y.    BL       CLK_WaitClockReady ; 0xbdc
        0x000008ea:    2000        .       MOVS     r0,#0
        0x000008ec:    2502        .%      MOVS     r5,#2
        0x000008ee:    9603        ..      STR      r6,[sp,#0xc]
        0x000008f0:    9002        ..      STR      r0,[sp,#8]
        0x000008f2:    e7ec        ..      B        0x8ce ; CLK_EnablePLL + 46
        0x000008f4:    4847        GH      LDR      r0,[pc,#284] ; [0xa14] = 0xfd050f7f
        0x000008f6:    4948        HI      LDR      r1,[pc,#288] ; [0xa18] = 0x2faf07f
        0x000008f8:    1820         .      ADDS     r0,r4,r0
        0x000008fa:    4288        .B      CMP      r0,r1
        0x000008fc:    d803        ..      BHI      0x906 ; CLK_EnablePLL + 102
        0x000008fe:    2001        .       MOVS     r0,#1
        0x00000900:    0064        d.      LSLS     r4,r4,#1
        0x00000902:    9004        ..      STR      r0,[sp,#0x10]
        0x00000904:    e008        ..      B        0x918 ; CLK_EnablePLL + 120
        0x00000906:    4845        EH      LDR      r0,[pc,#276] ; [0xa1c] = 0xfe8287c0
        0x00000908:    4944        DI      LDR      r1,[pc,#272] ; [0xa1c] = 0xfe8287c0
        0x0000090a:    1820         .      ADDS     r0,r4,r0
        0x0000090c:    4249        IB      RSBS     r1,r1,#0
        0x0000090e:    4288        .B      CMP      r0,r1
        0x00000910:    d849        I.      BHI      0x9a6 ; CLK_EnablePLL + 262
        0x00000912:    2003        .       MOVS     r0,#3
        0x00000914:    00a4        ..      LSLS     r4,r4,#2
        0x00000916:    9004        ..      STR      r0,[sp,#0x10]
        0x00000918:    2600        .&      MOVS     r6,#0
        0x0000091a:    43f6        .C      MVNS     r6,r6
        0x0000091c:    2000        .       MOVS     r0,#0
        0x0000091e:    9000        ..      STR      r0,[sp,#0]
        0x00000920:    9001        ..      STR      r0,[sp,#4]
        0x00000922:    e021        !.      B        0x968 ; CLK_EnablePLL + 200
        0x00000924:    4629        )F      MOV      r1,r5
        0x00000926:    9803        ..      LDR      r0,[sp,#0xc]
        0x00000928:    f7fffda0    ....    BL       __aeabi_uidiv ; 0x46c
        0x0000092c:    493c        <I      LDR      r1,[pc,#240] ; [0xa20] = 0xffe795ff
        0x0000092e:    4a3d        =J      LDR      r2,[pc,#244] ; [0xa24] = 0xdbb9ff
        0x00000930:    1841        A.      ADDS     r1,r0,r1
        0x00000932:    4291        .B      CMP      r1,r2
        0x00000934:    d217        ..      BCS      0x966 ; CLK_EnablePLL + 198
        0x00000936:    2202        ."      MOVS     r2,#2
        0x00000938:    4b34        4K      LDR      r3,[pc,#208] ; [0xa0c] = 0xfa0a1eff
        0x0000093a:    4601        .F      MOV      r1,r0
        0x0000093c:    4351        QC      MULS     r1,r2,r1
        0x0000093e:    1c5b        [.      ADDS     r3,r3,#1
        0x00000940:    18cf        ..      ADDS     r7,r1,r3
        0x00000942:    425b        [B      RSBS     r3,r3,#0
        0x00000944:    429f        .B      CMP      r7,r3
        0x00000946:    d80a        ..      BHI      0x95e ; CLK_EnablePLL + 190
        0x00000948:    42a1        .B      CMP      r1,r4
        0x0000094a:    d901        ..      BLS      0x950 ; CLK_EnablePLL + 176
        0x0000094c:    1b0b        ..      SUBS     r3,r1,r4
        0x0000094e:    e000        ..      B        0x952 ; CLK_EnablePLL + 178
        0x00000950:    1a63        c.      SUBS     r3,r4,r1
        0x00000952:    42b3        .B      CMP      r3,r6
        0x00000954:    d203        ..      BCS      0x95e ; CLK_EnablePLL + 190
        0x00000956:    001e        ..      MOVS     r6,r3
        0x00000958:    9500        ..      STR      r5,[sp,#0]
        0x0000095a:    9201        ..      STR      r2,[sp,#4]
        0x0000095c:    d003        ..      BEQ      0x966 ; CLK_EnablePLL + 198
        0x0000095e:    4932        2I      LDR      r1,[pc,#200] ; [0xa28] = 0x201
        0x00000960:    1c52        R.      ADDS     r2,r2,#1
        0x00000962:    428a        .B      CMP      r2,r1
        0x00000964:    d9e8        ..      BLS      0x938 ; CLK_EnablePLL + 152
        0x00000966:    1c6d        m.      ADDS     r5,r5,#1
        0x00000968:    2d21        !-      CMP      r5,#0x21
        0x0000096a:    d9db        ..      BLS      0x924 ; CLK_EnablePLL + 132
        0x0000096c:    9804        ..      LDR      r0,[sp,#0x10]
        0x0000096e:    9902        ..      LDR      r1,[sp,#8]
        0x00000970:    0380        ..      LSLS     r0,r0,#14
        0x00000972:    4308        .C      ORRS     r0,r0,r1
        0x00000974:    9900        ..      LDR      r1,[sp,#0]
        0x00000976:    2201        ."      MOVS     r2,#1
        0x00000978:    0249        I.      LSLS     r1,r1,#9
        0x0000097a:    0292        ..      LSLS     r2,r2,#10
        0x0000097c:    1a89        ..      SUBS     r1,r1,r2
        0x0000097e:    4308        .C      ORRS     r0,r0,r1
        0x00000980:    9901        ..      LDR      r1,[sp,#4]
        0x00000982:    1e89        ..      SUBS     r1,r1,#2
        0x00000984:    4308        .C      ORRS     r0,r0,r1
        0x00000986:    491f        .I      LDR      r1,[pc,#124] ; [0xa04] = 0x50000200
        0x00000988:    6208        .b      STR      r0,[r1,#0x20]
        0x0000098a:    2004        .       MOVS     r0,#4
        0x0000098c:    f000f926    ..&.    BL       CLK_WaitClockReady ; 0xbdc
        0x00000990:    9904        ..      LDR      r1,[sp,#0x10]
        0x00000992:    9800        ..      LDR      r0,[sp,#0]
        0x00000994:    1c49        I.      ADDS     r1,r1,#1
        0x00000996:    4341        AC      MULS     r1,r0,r1
        0x00000998:    9803        ..      LDR      r0,[sp,#0xc]
        0x0000099a:    f7fffd67    ..g.    BL       __aeabi_uidiv ; 0x46c
        0x0000099e:    9901        ..      LDR      r1,[sp,#4]
        0x000009a0:    4348        HC      MULS     r0,r1,r0
        0x000009a2:    b005        ..      ADD      sp,sp,#0x14
        0x000009a4:    bdf0        ..      POP      {r4-r7,pc}
        0x000009a6:    2f00        ./      CMP      r7,#0
        0x000009a8:    d00f        ..      BEQ      0x9ca ; CLK_EnablePLL + 298
        0x000009aa:    4920         I      LDR      r1,[pc,#128] ; [0xa2c] = 0x84c32
        0x000009ac:    4815        .H      LDR      r0,[pc,#84] ; [0xa04] = 0x50000200
        0x000009ae:    6201        .b      STR      r1,[r0,#0x20]
        0x000009b0:    2004        .       MOVS     r0,#4
        0x000009b2:    f000f913    ....    BL       CLK_WaitClockReady ; 0xbdc
        0x000009b6:    a01e        ..      ADR      r0,{pc}+0x7a ; 0xa30
        0x000009b8:    6800        .h      LDR      r0,[r0,#0]
        0x000009ba:    9000        ..      STR      r0,[sp,#0]
        0x000009bc:    4811        .H      LDR      r0,[pc,#68] ; [0xa04] = 0x50000200
        0x000009be:    6a01        .j      LDR      r1,[r0,#0x20]
        0x000009c0:    1300        ..      ASRS     r0,r0,#12
        0x000009c2:    4201        .B      TST      r1,r0
        0x000009c4:    d003        ..      BEQ      0x9ce ; CLK_EnablePLL + 302
        0x000009c6:    2000        .       MOVS     r0,#0
        0x000009c8:    e7eb        ..      B        0x9a2 ; CLK_EnablePLL + 258
        0x000009ca:    491a        .I      LDR      r1,[pc,#104] ; [0xa34] = 0x442e
        0x000009cc:    e7ee        ..      B        0x9ac ; CLK_EnablePLL + 268
        0x000009ce:    0308        ..      LSLS     r0,r1,#12
        0x000009d0:    d500        ..      BPL      0x9d4 ; CLK_EnablePLL + 308
        0x000009d2:    4e0d        .N      LDR      r6,[pc,#52] ; [0xa08] = 0x1518000
        0x000009d4:    0388        ..      LSLS     r0,r1,#14
        0x000009d6:    d501        ..      BPL      0x9dc ; CLK_EnablePLL + 316
        0x000009d8:    4630        0F      MOV      r0,r6
        0x000009da:    e7e2        ..      B        0x9a2 ; CLK_EnablePLL + 258
        0x000009dc:    0408        ..      LSLS     r0,r1,#16
        0x000009de:    0f80        ..      LSRS     r0,r0,#30
        0x000009e0:    466a        jF      MOV      r2,sp
        0x000009e2:    5c10        .\      LDRB     r0,[r2,r0]
        0x000009e4:    05ca        ..      LSLS     r2,r1,#23
        0x000009e6:    0489        ..      LSLS     r1,r1,#18
        0x000009e8:    0ec9        ..      LSRS     r1,r1,#27
        0x000009ea:    1c89        ..      ADDS     r1,r1,#2
        0x000009ec:    0dd2        ..      LSRS     r2,r2,#23
        0x000009ee:    4341        AC      MULS     r1,r0,r1
        0x000009f0:    08b0        ..      LSRS     r0,r6,#2
        0x000009f2:    1c92        ..      ADDS     r2,r2,#2
        0x000009f4:    4350        PC      MULS     r0,r2,r0
        0x000009f6:    f7fffd39    ..9.    BL       __aeabi_uidiv ; 0x46c
        0x000009fa:    0080        ..      LSLS     r0,r0,#2
        0x000009fc:    e7d1        ..      B        0x9a2 ; CLK_EnablePLL + 258
    $d
        0x000009fe:    0000        ..      DCW    0
        0x00000a00:    00b71b00    ....    DCD    12000000
        0x00000a04:    50000200    ...P    DCD    1342177792
        0x00000a08:    01518000    ..Q.    DCD    22118400
        0x00000a0c:    fa0a1eff    ....    DCD    4194967295
        0x00000a10:    05f5e0ff    ....    DCD    99999999
        0x00000a14:    fd050f7f    ....    DCD    4244967295
        0x00000a18:    02faf07f    ....    DCD    49999999
        0x00000a1c:    fe8287c0    ....    DCD    4269967296
        0x00000a20:    ffe795ff    ....    DCD    4293367295
        0x00000a24:    00dbb9ff    ....    DCD    14399999
        0x00000a28:    00000201    ....    DCD    513
        0x00000a2c:    00084c32    2L..    DCD    543794
        0x00000a30:    04020201    ....    DCD    67240449
        0x00000a34:    0000442e    .D..    DCD    17454
    $t
    i.CLK_EnableXtalRC
    CLK_EnableXtalRC
        0x00000a38:    4902        .I      LDR      r1,[pc,#8] ; [0xa44] = 0x50000200
        0x00000a3a:    680a        .h      LDR      r2,[r1,#0]
        0x00000a3c:    4302        .C      ORRS     r2,r2,r0
        0x00000a3e:    600a        .`      STR      r2,[r1,#0]
        0x00000a40:    4770        pG      BX       lr
    $d
        0x00000a42:    0000        ..      DCW    0
        0x00000a44:    50000200    ...P    DCD    1342177792
    $t
    i.CLK_GetPCLK0Freq
    CLK_GetPCLK0Freq
        0x00000a48:    b510        ..      PUSH     {r4,lr}
        0x00000a4a:    f001fa2b    ..+.    BL       SystemCoreClockUpdate ; 0x1ea4
        0x00000a4e:    4804        .H      LDR      r0,[pc,#16] ; [0xa60] = 0x50000200
        0x00000a50:    6900        .i      LDR      r0,[r0,#0x10]
        0x00000a52:    0641        A.      LSLS     r1,r0,#25
        0x00000a54:    4803        .H      LDR      r0,[pc,#12] ; [0xa64] = 0x20000000
        0x00000a56:    6800        .h      LDR      r0,[r0,#0]
        0x00000a58:    d500        ..      BPL      0xa5c ; CLK_GetPCLK0Freq + 20
        0x00000a5a:    0840        @.      LSRS     r0,r0,#1
        0x00000a5c:    bd10        ..      POP      {r4,pc}
    $d
        0x00000a5e:    0000        ..      DCW    0
        0x00000a60:    50000200    ...P    DCD    1342177792
        0x00000a64:    20000000    ...     DCD    536870912
    $t
    i.CLK_GetPCLK1Freq
    CLK_GetPCLK1Freq
        0x00000a68:    b510        ..      PUSH     {r4,lr}
        0x00000a6a:    f001fa1b    ....    BL       SystemCoreClockUpdate ; 0x1ea4
        0x00000a6e:    4804        .H      LDR      r0,[pc,#16] ; [0xa80] = 0x50000200
        0x00000a70:    6900        .i      LDR      r0,[r0,#0x10]
        0x00000a72:    0601        ..      LSLS     r1,r0,#24
        0x00000a74:    4803        .H      LDR      r0,[pc,#12] ; [0xa84] = 0x20000000
        0x00000a76:    6800        .h      LDR      r0,[r0,#0]
        0x00000a78:    d500        ..      BPL      0xa7c ; CLK_GetPCLK1Freq + 20
        0x00000a7a:    0840        @.      LSRS     r0,r0,#1
        0x00000a7c:    bd10        ..      POP      {r4,pc}
    $d
        0x00000a7e:    0000        ..      DCW    0
        0x00000a80:    50000200    ...P    DCD    1342177792
        0x00000a84:    20000000    ...     DCD    536870912
    $t
    i.CLK_SetCoreClock
    CLK_SetCoreClock
        0x00000a88:    b5f8        ..      PUSH     {r3-r7,lr}
        0x00000a8a:    4d1c        .M      LDR      r5,[pc,#112] ; [0xafc] = 0x50000200
        0x00000a8c:    4604        .F      MOV      r4,r0
        0x00000a8e:    68ee        .h      LDR      r6,[r5,#0xc]
        0x00000a90:    2010        .       MOVS     r0,#0x10
        0x00000a92:    4006        .@      ANDS     r6,r6,r0
        0x00000a94:    481a        .H      LDR      r0,[pc,#104] ; [0xb00] = 0x44aa200
        0x00000a96:    4284        .B      CMP      r4,r0
        0x00000a98:    d802        ..      BHI      0xaa0 ; CLK_SetCoreClock + 24
        0x00000a9a:    481a        .H      LDR      r0,[pc,#104] ; [0xb04] = 0x17d7840
        0x00000a9c:    4284        .B      CMP      r4,r0
        0x00000a9e:    d200        ..      BCS      0xaa2 ; CLK_SetCoreClock + 26
        0x00000aa0:    4604        .F      MOV      r4,r0
        0x00000aa2:    6828        (h      LDR      r0,[r5,#0]
        0x00000aa4:    2704        .'      MOVS     r7,#4
        0x00000aa6:    4338        8C      ORRS     r0,r0,r7
        0x00000aa8:    6028        (`      STR      r0,[r5,#0]
        0x00000aaa:    2010        .       MOVS     r0,#0x10
        0x00000aac:    f000f896    ....    BL       CLK_WaitClockReady ; 0xbdc
        0x00000ab0:    6928        (i      LDR      r0,[r5,#0x10]
        0x00000ab2:    2107        .!      MOVS     r1,#7
        0x00000ab4:    4308        .C      ORRS     r0,r0,r1
        0x00000ab6:    6128        (a      STR      r0,[r5,#0x10]
        0x00000ab8:    69a8        .i      LDR      r0,[r5,#0x18]
        0x00000aba:    0900        ..      LSRS     r0,r0,#4
        0x00000abc:    0100        ..      LSLS     r0,r0,#4
        0x00000abe:    61a8        .a      STR      r0,[r5,#0x18]
        0x00000ac0:    68e8        .h      LDR      r0,[r5,#0xc]
        0x00000ac2:    07c0        ..      LSLS     r0,r0,#31
        0x00000ac4:    d005        ..      BEQ      0xad2 ; CLK_SetCoreClock + 74
        0x00000ac6:    0061        a.      LSLS     r1,r4,#1
        0x00000ac8:    2000        .       MOVS     r0,#0
        0x00000aca:    f7fffee9    ....    BL       CLK_EnablePLL ; 0x8a0
        0x00000ace:    4604        .F      MOV      r4,r0
        0x00000ad0:    e008        ..      B        0xae4 ; CLK_SetCoreClock + 92
        0x00000ad2:    2001        .       MOVS     r0,#1
        0x00000ad4:    0061        a.      LSLS     r1,r4,#1
        0x00000ad6:    04c0        ..      LSLS     r0,r0,#19
        0x00000ad8:    f7fffee2    ....    BL       CLK_EnablePLL ; 0x8a0
        0x00000adc:    68ee        .h      LDR      r6,[r5,#0xc]
        0x00000ade:    4604        .F      MOV      r4,r0
        0x00000ae0:    2010        .       MOVS     r0,#0x10
        0x00000ae2:    4006        .@      ANDS     r6,r6,r0
        0x00000ae4:    2101        .!      MOVS     r1,#1
        0x00000ae6:    2002        .       MOVS     r0,#2
        0x00000ae8:    f000f80e    ....    BL       CLK_SetHCLK ; 0xb08
        0x00000aec:    2e00        ..      CMP      r6,#0
        0x00000aee:    d102        ..      BNE      0xaf6 ; CLK_SetCoreClock + 110
        0x00000af0:    6828        (h      LDR      r0,[r5,#0]
        0x00000af2:    43b8        .C      BICS     r0,r0,r7
        0x00000af4:    6028        (`      STR      r0,[r5,#0]
        0x00000af6:    0860        `.      LSRS     r0,r4,#1
        0x00000af8:    bdf8        ..      POP      {r3-r7,pc}
    $d
        0x00000afa:    0000        ..      DCW    0
        0x00000afc:    50000200    ...P    DCD    1342177792
        0x00000b00:    044aa200    ..J.    DCD    72000000
        0x00000b04:    017d7840    @x}.    DCD    25000000
    $t
    i.CLK_SetHCLK
    CLK_SetHCLK
        0x00000b08:    b5f3        ..      PUSH     {r0,r1,r4-r7,lr}
        0x00000b0a:    4c11        .L      LDR      r4,[pc,#68] ; [0xb50] = 0x50000200
        0x00000b0c:    b081        ..      SUB      sp,sp,#4
        0x00000b0e:    68e5        .h      LDR      r5,[r4,#0xc]
        0x00000b10:    460f        .F      MOV      r7,r1
        0x00000b12:    2010        .       MOVS     r0,#0x10
        0x00000b14:    4005        .@      ANDS     r5,r5,r0
        0x00000b16:    6820         h      LDR      r0,[r4,#0]
        0x00000b18:    2604        .&      MOVS     r6,#4
        0x00000b1a:    4330        0C      ORRS     r0,r0,r6
        0x00000b1c:    6020         `      STR      r0,[r4,#0]
        0x00000b1e:    2010        .       MOVS     r0,#0x10
        0x00000b20:    f000f85c    ..\.    BL       CLK_WaitClockReady ; 0xbdc
        0x00000b24:    6920         i      LDR      r0,[r4,#0x10]
        0x00000b26:    2107        .!      MOVS     r1,#7
        0x00000b28:    4308        .C      ORRS     r0,r0,r1
        0x00000b2a:    6120         a      STR      r0,[r4,#0x10]
        0x00000b2c:    69a0        .i      LDR      r0,[r4,#0x18]
        0x00000b2e:    0900        ..      LSRS     r0,r0,#4
        0x00000b30:    0100        ..      LSLS     r0,r0,#4
        0x00000b32:    4338        8C      ORRS     r0,r0,r7
        0x00000b34:    61a0        .a      STR      r0,[r4,#0x18]
        0x00000b36:    6920         i      LDR      r0,[r4,#0x10]
        0x00000b38:    4388        .C      BICS     r0,r0,r1
        0x00000b3a:    9901        ..      LDR      r1,[sp,#4]
        0x00000b3c:    4308        .C      ORRS     r0,r0,r1
        0x00000b3e:    6120         a      STR      r0,[r4,#0x10]
        0x00000b40:    f001f9b0    ....    BL       SystemCoreClockUpdate ; 0x1ea4
        0x00000b44:    2d00        .-      CMP      r5,#0
        0x00000b46:    d102        ..      BNE      0xb4e ; CLK_SetHCLK + 70
        0x00000b48:    6820         h      LDR      r0,[r4,#0]
        0x00000b4a:    43b0        .C      BICS     r0,r0,r6
        0x00000b4c:    6020         `      STR      r0,[r4,#0]
        0x00000b4e:    bdfe        ..      POP      {r1-r7,pc}
    $d
        0x00000b50:    50000200    ...P    DCD    1342177792
    $t
    i.CLK_SetModuleClock
    CLK_SetModuleClock
        0x00000b54:    b5f0        ..      PUSH     {r4-r7,lr}
        0x00000b56:    4b1a        .K      LDR      r3,[pc,#104] ; [0xbc0] = 0x8698
        0x00000b58:    b086        ..      SUB      sp,sp,#0x18
        0x00000b5a:    461c        .F      MOV      r4,r3
        0x00000b5c:    3408        .4      ADDS     r4,r4,#8
        0x00000b5e:    ccf0        ..      LDM      r4,{r4-r7}
        0x00000b60:    9400        ..      STR      r4,[sp,#0]
        0x00000b62:    ac01        ..      ADD      r4,sp,#4
        0x00000b64:    c4e0        ..      STM      r4!,{r5-r7}
        0x00000b66:    cb18        ..      LDM      r3,{r3,r4}
        0x00000b68:    9405        ..      STR      r4,[sp,#0x14]
        0x00000b6a:    9304        ..      STR      r3,[sp,#0x10]
        0x00000b6c:    0a84        ..      LSRS     r4,r0,#10
        0x00000b6e:    0623        #.      LSLS     r3,r4,#24
        0x00000b70:    0e1b        ..      LSRS     r3,r3,#24
        0x00000b72:    d00e        ..      BEQ      0xb92 ; CLK_SetModuleClock + 62
        0x00000b74:    0303        ..      LSLS     r3,r0,#12
        0x00000b76:    0f9b        ..      LSRS     r3,r3,#30
        0x00000b78:    009b        ..      LSLS     r3,r3,#2
        0x00000b7a:    ad04        ..      ADD      r5,sp,#0x10
        0x00000b7c:    58eb        .X      LDR      r3,[r5,r3]
        0x00000b7e:    4d11        .M      LDR      r5,[pc,#68] ; [0xbc4] = 0x50000218
        0x00000b80:    195b        [.      ADDS     r3,r3,r5
        0x00000b82:    b2e5        ..      UXTB     r5,r4
        0x00000b84:    0584        ..      LSLS     r4,r0,#22
        0x00000b86:    0ee4        ..      LSRS     r4,r4,#27
        0x00000b88:    40a5        .@      LSLS     r5,r5,r4
        0x00000b8a:    681c        .h      LDR      r4,[r3,#0]
        0x00000b8c:    43ac        .C      BICS     r4,r4,r5
        0x00000b8e:    4314        .C      ORRS     r4,r4,r2
        0x00000b90:    601c        .`      STR      r4,[r3,#0]
        0x00000b92:    0e42        B.      LSRS     r2,r0,#25
        0x00000b94:    0752        R.      LSLS     r2,r2,#29
        0x00000b96:    d010        ..      BEQ      0xbba ; CLK_SetModuleClock + 102
        0x00000b98:    0082        ..      LSLS     r2,r0,#2
        0x00000b9a:    0f92        ..      LSRS     r2,r2,#30
        0x00000b9c:    0092        ..      LSLS     r2,r2,#2
        0x00000b9e:    466b        kF      MOV      r3,sp
        0x00000ba0:    589a        .X      LDR      r2,[r3,r2]
        0x00000ba2:    4b08        .K      LDR      r3,[pc,#32] ; [0xbc4] = 0x50000218
        0x00000ba4:    3b08        .;      SUBS     r3,r3,#8
        0x00000ba6:    18d2        ..      ADDS     r2,r2,r3
        0x00000ba8:    0103        ..      LSLS     r3,r0,#4
        0x00000baa:    0f5b        [.      LSRS     r3,r3,#29
        0x00000bac:    01c0        ..      LSLS     r0,r0,#7
        0x00000bae:    0ec0        ..      LSRS     r0,r0,#27
        0x00000bb0:    4083        .@      LSLS     r3,r3,r0
        0x00000bb2:    6810        .h      LDR      r0,[r2,#0]
        0x00000bb4:    4398        .C      BICS     r0,r0,r3
        0x00000bb6:    4308        .C      ORRS     r0,r0,r1
        0x00000bb8:    6010        .`      STR      r0,[r2,#0]
        0x00000bba:    b006        ..      ADD      sp,sp,#0x18
        0x00000bbc:    bdf0        ..      POP      {r4-r7,pc}
    $d
        0x00000bbe:    0000        ..      DCW    0
        0x00000bc0:    00008698    ....    DCD    34456
        0x00000bc4:    50000218    ...P    DCD    1342177816
    $t
    i.CLK_SetSysTickClockSrc
    CLK_SetSysTickClockSrc
        0x00000bc8:    4a03        .J      LDR      r2,[pc,#12] ; [0xbd8] = 0x50000200
        0x00000bca:    6911        .i      LDR      r1,[r2,#0x10]
        0x00000bcc:    2338        8#      MOVS     r3,#0x38
        0x00000bce:    4399        .C      BICS     r1,r1,r3
        0x00000bd0:    4301        .C      ORRS     r1,r1,r0
        0x00000bd2:    6111        .a      STR      r1,[r2,#0x10]
        0x00000bd4:    4770        pG      BX       lr
    $d
        0x00000bd6:    0000        ..      DCW    0
        0x00000bd8:    50000200    ...P    DCD    1342177792
    $t
    i.CLK_WaitClockReady
    CLK_WaitClockReady
        0x00000bdc:    b510        ..      PUSH     {r4,lr}
        0x00000bde:    4604        .F      MOV      r4,r0
        0x00000be0:    4907        .I      LDR      r1,[pc,#28] ; [0xc00] = 0x20f580
        0x00000be2:    4b08        .K      LDR      r3,[pc,#32] ; [0xc04] = 0x50000200
        0x00000be4:    e005        ..      B        0xbf2 ; CLK_WaitClockReady + 22
        0x00000be6:    460a        .F      MOV      r2,r1
        0x00000be8:    1e49        I.      SUBS     r1,r1,#1
        0x00000bea:    2a00        .*      CMP      r2,#0
        0x00000bec:    dc01        ..      BGT      0xbf2 ; CLK_WaitClockReady + 22
        0x00000bee:    2000        .       MOVS     r0,#0
        0x00000bf0:    bd10        ..      POP      {r4,pc}
        0x00000bf2:    68da        .h      LDR      r2,[r3,#0xc]
        0x00000bf4:    4620         F      MOV      r0,r4
        0x00000bf6:    4390        .C      BICS     r0,r0,r2
        0x00000bf8:    d1f5        ..      BNE      0xbe6 ; CLK_WaitClockReady + 10
        0x00000bfa:    2001        .       MOVS     r0,#1
        0x00000bfc:    bd10        ..      POP      {r4,pc}
    $d
        0x00000bfe:    0000        ..      DCW    0
        0x00000c00:    0020f580    .. .    DCD    2160000
        0x00000c04:    50000200    ...P    DCD    1342177792
    $t
    i.Cmd_Send2FourG
    Cmd_Send2FourG
        0x00000c08:    b5f8        ..      PUSH     {r3-r7,lr}
        0x00000c0a:    4607        .F      MOV      r7,r0
        0x00000c0c:    4c1b        .L      LDR      r4,[pc,#108] ; [0xc7c] = 0x40150000
        0x00000c0e:    20ff        .       MOVS     r0,#0xff
        0x00000c10:    4615        .F      MOV      r5,r2
        0x00000c12:    460e        .F      MOV      r6,r1
        0x00000c14:    6020         `      STR      r0,[r4,#0]
        0x00000c16:    217d        }!      MOVS     r1,#0x7d
        0x00000c18:    00c9        ..      LSLS     r1,r1,#3
        0x00000c1a:    4819        .H      LDR      r0,[pc,#100] ; [0xc80] = 0x40010000
        0x00000c1c:    f001f98c    ....    BL       TIMER_Delay ; 0x1f38
        0x00000c20:    2055        U       MOVS     r0,#0x55
        0x00000c22:    6020         `      STR      r0,[r4,#0]
        0x00000c24:    217d        }!      MOVS     r1,#0x7d
        0x00000c26:    00c9        ..      LSLS     r1,r1,#3
        0x00000c28:    4815        .H      LDR      r0,[pc,#84] ; [0xc80] = 0x40010000
        0x00000c2a:    f001f985    ....    BL       TIMER_Delay ; 0x1f38
        0x00000c2e:    2003        .       MOVS     r0,#3
        0x00000c30:    6020         `      STR      r0,[r4,#0]
        0x00000c32:    217d        }!      MOVS     r1,#0x7d
        0x00000c34:    00c9        ..      LSLS     r1,r1,#3
        0x00000c36:    4812        .H      LDR      r0,[pc,#72] ; [0xc80] = 0x40010000
        0x00000c38:    f001f97e    ..~.    BL       TIMER_Delay ; 0x1f38
        0x00000c3c:    2080        .       MOVS     r0,#0x80
        0x00000c3e:    6020         `      STR      r0,[r4,#0]
        0x00000c40:    217d        }!      MOVS     r1,#0x7d
        0x00000c42:    00c9        ..      LSLS     r1,r1,#3
        0x00000c44:    480e        .H      LDR      r0,[pc,#56] ; [0xc80] = 0x40010000
        0x00000c46:    f001f977    ..w.    BL       TIMER_Delay ; 0x1f38
        0x00000c4a:    6027        '`      STR      r7,[r4,#0]
        0x00000c4c:    217d        }!      MOVS     r1,#0x7d
        0x00000c4e:    00c9        ..      LSLS     r1,r1,#3
        0x00000c50:    480b        .H      LDR      r0,[pc,#44] ; [0xc80] = 0x40010000
        0x00000c52:    f001f971    ..q.    BL       TIMER_Delay ; 0x1f38
        0x00000c56:    6026        &`      STR      r6,[r4,#0]
        0x00000c58:    217d        }!      MOVS     r1,#0x7d
        0x00000c5a:    00c9        ..      LSLS     r1,r1,#3
        0x00000c5c:    4808        .H      LDR      r0,[pc,#32] ; [0xc80] = 0x40010000
        0x00000c5e:    f001f96b    ..k.    BL       TIMER_Delay ; 0x1f38
        0x00000c62:    6025        %`      STR      r5,[r4,#0]
        0x00000c64:    217d        }!      MOVS     r1,#0x7d
        0x00000c66:    00c9        ..      LSLS     r1,r1,#3
        0x00000c68:    4805        .H      LDR      r0,[pc,#20] ; [0xc80] = 0x40010000
        0x00000c6a:    f001f965    ..e.    BL       TIMER_Delay ; 0x1f38
        0x00000c6e:    19b8        ..      ADDS     r0,r7,r6
        0x00000c70:    1940        @.      ADDS     r0,r0,r5
        0x00000c72:    3083        .0      ADDS     r0,r0,#0x83
        0x00000c74:    4240        @B      RSBS     r0,r0,#0
        0x00000c76:    b2c0        ..      UXTB     r0,r0
        0x00000c78:    6020         `      STR      r0,[r4,#0]
        0x00000c7a:    bdf8        ..      POP      {r3-r7,pc}
    $d
        0x00000c7c:    40150000    ...@    DCD    1075118080
        0x00000c80:    40010000    ...@    DCD    1073807360
    $t
    i.Core_Int_Get
    Core_Int_Get
        0x00000c84:    4802        .H      LDR      r0,[pc,#8] ; [0xc90] = 0xe000e100
        0x00000c86:    6800        .h      LDR      r0,[r0,#0]
        0x00000c88:    4902        .I      LDR      r1,[pc,#8] ; [0xc94] = 0x2000000c
        0x00000c8a:    6008        .`      STR      r0,[r1,#0]
        0x00000c8c:    4770        pG      BX       lr
    $d
        0x00000c8e:    0000        ..      DCW    0
        0x00000c90:    e000e100    ....    DCD    3758153984
        0x00000c94:    2000000c    ...     DCD    536870924
    $t
    i.Core_Int_Restore
    Core_Int_Restore
        0x00000c98:    4803        .H      LDR      r0,[pc,#12] ; [0xca8] = 0x2000000c
        0x00000c9a:    6800        .h      LDR      r0,[r0,#0]
        0x00000c9c:    2120         !      MOVS     r1,#0x20
        0x00000c9e:    4308        .C      ORRS     r0,r0,r1
        0x00000ca0:    4902        .I      LDR      r1,[pc,#8] ; [0xcac] = 0xe000e100
        0x00000ca2:    6008        .`      STR      r0,[r1,#0]
        0x00000ca4:    4770        pG      BX       lr
    $d
        0x00000ca6:    0000        ..      DCW    0
        0x00000ca8:    2000000c    ...     DCD    536870924
        0x00000cac:    e000e100    ....    DCD    3758153984
    $t
    i.Core_Int_Store
    Core_Int_Store
        0x00000cb0:    b500        ..      PUSH     {lr}
        0x00000cb2:    f7ffffe7    ....    BL       Core_Int_Get ; 0xc84
        0x00000cb6:    4902        .I      LDR      r1,[pc,#8] ; [0xcc0] = 0xe000e180
        0x00000cb8:    20ff        .       MOVS     r0,#0xff
        0x00000cba:    6008        .`      STR      r0,[r1,#0]
        0x00000cbc:    bd00        ..      POP      {pc}
    $d
        0x00000cbe:    0000        ..      DCW    0
        0x00000cc0:    e000e180    ....    DCD    3758154112
    $t
    i.Core_Msg_Get
    Core_Msg_Get
        0x00000cc4:    b5f8        ..      PUSH     {r3-r7,lr}
        0x00000cc6:    4604        .F      MOV      r4,r0
        0x00000cc8:    2000        .       MOVS     r0,#0
        0x00000cca:    9000        ..      STR      r0,[sp,#0]
        0x00000ccc:    f7fffff0    ....    BL       Core_Int_Store ; 0xcb0
        0x00000cd0:    4813        .H      LDR      r0,[pc,#76] ; [0xd20] = 0x20000010
        0x00000cd2:    7801        .x      LDRB     r1,[r0,#0]
        0x00000cd4:    4f13        .O      LDR      r7,[pc,#76] ; [0xd24] = 0x20000248
        0x00000cd6:    2200        ."      MOVS     r2,#0
        0x00000cd8:    010b        ..      LSLS     r3,r1,#4
        0x00000cda:    58f8        .X      LDR      r0,[r7,r3]
        0x00000cdc:    19db        ..      ADDS     r3,r3,r7
        0x00000cde:    685e        ^h      LDR      r6,[r3,#4]
        0x00000ce0:    689d        .h      LDR      r5,[r3,#8]
        0x00000ce2:    68db        .h      LDR      r3,[r3,#0xc]
        0x00000ce4:    2800        .(      CMP      r0,#0
        0x00000ce6:    d00c        ..      BEQ      0xd02 ; Core_Msg_Get + 62
        0x00000ce8:    60a5        .`      STR      r5,[r4,#8]
        0x00000cea:    60e3        .`      STR      r3,[r4,#0xc]
        0x00000cec:    c441        A.      STM      r4!,{r0,r6}
        0x00000cee:    2001        .       MOVS     r0,#1
        0x00000cf0:    2200        ."      MOVS     r2,#0
        0x00000cf2:    9000        ..      STR      r0,[sp,#0]
        0x00000cf4:    0108        ..      LSLS     r0,r1,#4
        0x00000cf6:    503a        :P      STR      r2,[r7,r0]
        0x00000cf8:    19c0        ..      ADDS     r0,r0,r7
        0x00000cfa:    6042        B`      STR      r2,[r0,#4]
        0x00000cfc:    6082        .`      STR      r2,[r0,#8]
        0x00000cfe:    60c2        .`      STR      r2,[r0,#0xc]
        0x00000d00:    e008        ..      B        0xd14 ; Core_Msg_Get + 80
        0x00000d02:    1c49        I.      ADDS     r1,r1,#1
        0x00000d04:    1c52        R.      ADDS     r2,r2,#1
        0x00000d06:    b2c9        ..      UXTB     r1,r1
        0x00000d08:    b2d2        ..      UXTB     r2,r2
        0x00000d0a:    2920         )      CMP      r1,#0x20
        0x00000d0c:    d300        ..      BCC      0xd10 ; Core_Msg_Get + 76
        0x00000d0e:    2100        .!      MOVS     r1,#0
        0x00000d10:    2a20         *      CMP      r2,#0x20
        0x00000d12:    d3e1        ..      BCC      0xcd8 ; Core_Msg_Get + 20
        0x00000d14:    4802        .H      LDR      r0,[pc,#8] ; [0xd20] = 0x20000010
        0x00000d16:    7001        .p      STRB     r1,[r0,#0]
        0x00000d18:    f7ffffbe    ....    BL       Core_Int_Restore ; 0xc98
        0x00000d1c:    9800        ..      LDR      r0,[sp,#0]
        0x00000d1e:    bdf8        ..      POP      {r3-r7,pc}
    $d
        0x00000d20:    20000010    ...     DCD    536870928
        0x00000d24:    20000248    H..     DCD    536871496
    $t
    i.Core_Msg_Init
    Core_Msg_Init
        0x00000d28:    b510        ..      PUSH     {r4,lr}
        0x00000d2a:    f7ffffc1    ....    BL       Core_Int_Store ; 0xcb0
        0x00000d2e:    2000        .       MOVS     r0,#0
        0x00000d30:    4b08        .K      LDR      r3,[pc,#32] ; [0xd54] = 0x20000248
        0x00000d32:    4602        .F      MOV      r2,r0
        0x00000d34:    0101        ..      LSLS     r1,r0,#4
        0x00000d36:    505a        ZP      STR      r2,[r3,r1]
        0x00000d38:    18c9        ..      ADDS     r1,r1,r3
        0x00000d3a:    604a        J`      STR      r2,[r1,#4]
        0x00000d3c:    608a        .`      STR      r2,[r1,#8]
        0x00000d3e:    60ca        .`      STR      r2,[r1,#0xc]
        0x00000d40:    1c40        @.      ADDS     r0,r0,#1
        0x00000d42:    b2c0        ..      UXTB     r0,r0
        0x00000d44:    2820         (      CMP      r0,#0x20
        0x00000d46:    d3f5        ..      BCC      0xd34 ; Core_Msg_Init + 12
        0x00000d48:    4803        .H      LDR      r0,[pc,#12] ; [0xd58] = 0x20000010
        0x00000d4a:    7002        .p      STRB     r2,[r0,#0]
        0x00000d4c:    f7ffffa4    ....    BL       Core_Int_Restore ; 0xc98
        0x00000d50:    bd10        ..      POP      {r4,pc}
    $d
        0x00000d52:    0000        ..      DCW    0
        0x00000d54:    20000248    H..     DCD    536871496
        0x00000d58:    20000010    ...     DCD    536870928
    $t
    i.Core_Msg_Send
    Core_Msg_Send
        0x00000d5c:    b5f8        ..      PUSH     {r3-r7,lr}
        0x00000d5e:    461c        .F      MOV      r4,r3
        0x00000d60:    4615        .F      MOV      r5,r2
        0x00000d62:    460e        .F      MOV      r6,r1
        0x00000d64:    4607        .F      MOV      r7,r0
        0x00000d66:    f7ffffa3    ....    BL       Core_Int_Store ; 0xcb0
        0x00000d6a:    480f        .H      LDR      r0,[pc,#60] ; [0xda8] = 0x20000010
        0x00000d6c:    7800        .x      LDRB     r0,[r0,#0]
        0x00000d6e:    4a0f        .J      LDR      r2,[pc,#60] ; [0xdac] = 0x20000248
        0x00000d70:    2100        .!      MOVS     r1,#0
        0x00000d72:    0103        ..      LSLS     r3,r0,#4
        0x00000d74:    58d3        .X      LDR      r3,[r2,r3]
        0x00000d76:    2b00        .+      CMP      r3,#0
        0x00000d78:    d00a        ..      BEQ      0xd90 ; Core_Msg_Send + 52
        0x00000d7a:    1c40        @.      ADDS     r0,r0,#1
        0x00000d7c:    1c49        I.      ADDS     r1,r1,#1
        0x00000d7e:    b2c0        ..      UXTB     r0,r0
        0x00000d80:    b2c9        ..      UXTB     r1,r1
        0x00000d82:    2820         (      CMP      r0,#0x20
        0x00000d84:    d300        ..      BCC      0xd88 ; Core_Msg_Send + 44
        0x00000d86:    2000        .       MOVS     r0,#0
        0x00000d88:    2920         )      CMP      r1,#0x20
        0x00000d8a:    d3f2        ..      BCC      0xd72 ; Core_Msg_Send + 22
        0x00000d8c:    2400        .$      MOVS     r4,#0
        0x00000d8e:    e006        ..      B        0xd9e ; Core_Msg_Send + 66
        0x00000d90:    0100        ..      LSLS     r0,r0,#4
        0x00000d92:    5017        .P      STR      r7,[r2,r0]
        0x00000d94:    1880        ..      ADDS     r0,r0,r2
        0x00000d96:    6046        F`      STR      r6,[r0,#4]
        0x00000d98:    6085        .`      STR      r5,[r0,#8]
        0x00000d9a:    60c4        .`      STR      r4,[r0,#0xc]
        0x00000d9c:    2401        .$      MOVS     r4,#1
        0x00000d9e:    f7ffff7b    ..{.    BL       Core_Int_Restore ; 0xc98
        0x00000da2:    4620         F      MOV      r0,r4
        0x00000da4:    bdf8        ..      POP      {r3-r7,pc}
    $d
        0x00000da6:    0000        ..      DCW    0
        0x00000da8:    20000010    ...     DCD    536870928
        0x00000dac:    20000248    H..     DCD    536871496
    $t
    i.Debug_Uart_Init
    Debug_Uart_Init
        0x00000db0:    b510        ..      PUSH     {r4,lr}
        0x00000db2:    a005        ..      ADR      r0,{pc}+0x16 ; 0xdc8
        0x00000db4:    f7fffa26    ..&.    BL       __2printf ; 0x204
        0x00000db8:    f001fb5a    ..Z.    BL       UART0_Init ; 0x2470
        0x00000dbc:    2101        .!      MOVS     r1,#1
        0x00000dbe:    4807        .H      LDR      r0,[pc,#28] ; [0xddc] = 0x40050000
        0x00000dc0:    f001fc0a    ....    BL       UART_EnableInt ; 0x25d8
        0x00000dc4:    2000        .       MOVS     r0,#0
        0x00000dc6:    bd10        ..      POP      {r4,pc}
    $d
        0x00000dc8:    75626564    debu    DCD    1969382756
        0x00000dcc:    61752067    g ua    DCD    1635065959
        0x00000dd0:    69207472    rt i    DCD    1763734642
        0x00000dd4:    2174696e    nit!    DCD    561277294
        0x00000dd8:    0000000a    ....    DCD    10
        0x00000ddc:    40050000    ...@    DCD    1074069504
    $t
    i.Drv_4GMoudle_PowerUp
    Drv_4GMoudle_PowerUp
        0x00000de0:    4902        .I      LDR      r1,[pc,#8] ; [0xdec] = 0x50004200
        0x00000de2:    2800        .(      CMP      r0,#0
        0x00000de4:    d000        ..      BEQ      0xde8 ; Drv_4GMoudle_PowerUp + 8
        0x00000de6:    2001        .       MOVS     r0,#1
        0x00000de8:    6248        Hb      STR      r0,[r1,#0x24]
        0x00000dea:    4770        pG      BX       lr
    $d
        0x00000dec:    50004200    .B.P    DCD    1342194176
    $t
    i.Drv_Dap_init
    Drv_Dap_init
        0x00000df0:    b510        ..      PUSH     {r4,lr}
        0x00000df2:    f001ff4d    ..M.    BL       drv_5825_mute_pin_init ; 0x2c90
        0x00000df6:    f002f885    ....    BL       drv_dap_3251_Init ; 0x2f04
        0x00000dfa:    4905        .I      LDR      r1,[pc,#20] ; [0xe10] = 0x1388
        0x00000dfc:    4805        .H      LDR      r0,[pc,#20] ; [0xe14] = 0x40010000
        0x00000dfe:    f001f89b    ....    BL       TIMER_Delay ; 0x1f38
        0x00000e02:    f001fec9    ....    BL       drv_5825_Init ; 0x2b98
        0x00000e06:    2001        .       MOVS     r0,#1
        0x00000e08:    f001ff4e    ..N.    BL       drv_5825_mute_pin_set ; 0x2ca8
        0x00000e0c:    bd10        ..      POP      {r4,pc}
    $d
        0x00000e0e:    0000        ..      DCW    0
        0x00000e10:    00001388    ....    DCD    5000
        0x00000e14:    40010000    ...@    DCD    1073807360
    $t
    i.Drv_Dap_vol_set
    Drv_Dap_vol_set
        0x00000e18:    b510        ..      PUSH     {r4,lr}
        0x00000e1a:    4604        .F      MOV      r4,r0
        0x00000e1c:    f001ff66    ..f.    BL       drv_5825_vol_set ; 0x2cec
        0x00000e20:    4620         F      MOV      r0,r4
        0x00000e22:    f002f8ff    ....    BL       drv_dap_3251_vol_set ; 0x3024
        0x00000e26:    bd10        ..      POP      {r4,pc}
    i.Drv_FourG_Gpio_Init
    Drv_FourG_Gpio_Init
        0x00000e28:    b510        ..      PUSH     {r4,lr}
        0x00000e2a:    4c10        .L      LDR      r4,[pc,#64] ; [0xe6c] = 0x50004000
        0x00000e2c:    2201        ."      MOVS     r2,#1
        0x00000e2e:    2120         !      MOVS     r1,#0x20
        0x00000e30:    4620         F      MOV      r0,r4
        0x00000e32:    f000f896    ....    BL       GPIO_SetMode ; 0xf62
        0x00000e36:    2201        ."      MOVS     r2,#1
        0x00000e38:    2110        .!      MOVS     r1,#0x10
        0x00000e3a:    4620         F      MOV      r0,r4
        0x00000e3c:    f000f891    ....    BL       GPIO_SetMode ; 0xf62
        0x00000e40:    2201        ."      MOVS     r2,#1
        0x00000e42:    2120         !      MOVS     r1,#0x20
        0x00000e44:    480a        .H      LDR      r0,[pc,#40] ; [0xe70] = 0x50004140
        0x00000e46:    f000f88c    ....    BL       GPIO_SetMode ; 0xf62
        0x00000e4a:    2201        ."      MOVS     r2,#1
        0x00000e4c:    0251        Q.      LSLS     r1,r2,#9
        0x00000e4e:    4620         F      MOV      r0,r4
        0x00000e50:    f000f887    ....    BL       GPIO_SetMode ; 0xf62
        0x00000e54:    4806        .H      LDR      r0,[pc,#24] ; [0xe70] = 0x50004140
        0x00000e56:    2100        .!      MOVS     r1,#0
        0x00000e58:    30c0        .0      ADDS     r0,r0,#0xc0
        0x00000e5a:    6101        .a      STR      r1,[r0,#0x10]
        0x00000e5c:    6141        Aa      STR      r1,[r0,#0x14]
        0x00000e5e:    4905        .I      LDR      r1,[pc,#20] ; [0xe74] = 0x50004340
        0x00000e60:    2001        .       MOVS     r0,#1
        0x00000e62:    6148        Ha      STR      r0,[r1,#0x14]
        0x00000e64:    f7ffffbc    ....    BL       Drv_4GMoudle_PowerUp ; 0xde0
        0x00000e68:    bd10        ..      POP      {r4,pc}
    $d
        0x00000e6a:    0000        ..      DCW    0
        0x00000e6c:    50004000    .@.P    DCD    1342193664
        0x00000e70:    50004140    @A.P    DCD    1342193984
        0x00000e74:    50004340    @C.P    DCD    1342194496
    $t
    i.Drv_IrKey_init
    Drv_IrKey_init
        0x00000e78:    b510        ..      PUSH     {r4,lr}
        0x00000e7a:    4c09        .L      LDR      r4,[pc,#36] ; [0xea0] = 0x500040c0
        0x00000e7c:    2200        ."      MOVS     r2,#0
        0x00000e7e:    2101        .!      MOVS     r1,#1
        0x00000e80:    4620         F      MOV      r0,r4
        0x00000e82:    f000f86e    ..n.    BL       GPIO_SetMode ; 0xf62
        0x00000e86:    2201        ."      MOVS     r2,#1
        0x00000e88:    2100        .!      MOVS     r1,#0
        0x00000e8a:    4620         F      MOV      r0,r4
        0x00000e8c:    f000f85c    ..\.    BL       GPIO_EnableInt ; 0xf48
        0x00000e90:    2201        ."      MOVS     r2,#1
        0x00000e92:    4904        .I      LDR      r1,[pc,#16] ; [0xea4] = 0xe000e100
        0x00000e94:    2020                MOVS     r0,#0x20
        0x00000e96:    6008        .`      STR      r0,[r1,#0]
        0x00000e98:    6961        ai      LDR      r1,[r4,#0x14]
        0x00000e9a:    4311        .C      ORRS     r1,r1,r2
        0x00000e9c:    6161        aa      STR      r1,[r4,#0x14]
        0x00000e9e:    bd10        ..      POP      {r4,pc}
    $d
        0x00000ea0:    500040c0    .@.P    DCD    1342193856
        0x00000ea4:    e000e100    ....    DCD    3758153984
    $t
    i.Drv_audio_init
    Drv_audio_init
        0x00000ea8:    b510        ..      PUSH     {r4,lr}
        0x00000eaa:    f001ff05    ....    BL       drv_5825_powerdown_pin_init ; 0x2cb8
        0x00000eae:    f001ff53    ..S.    BL       drv_Adc_pcm1862_Init ; 0x2d58
        0x00000eb2:    2105        .!      MOVS     r1,#5
        0x00000eb4:    4802        .H      LDR      r0,[pc,#8] ; [0xec0] = 0x40010000
        0x00000eb6:    f001f83f    ..?.    BL       TIMER_Delay ; 0x1f38
        0x00000eba:    f7ffff99    ....    BL       Drv_Dap_init ; 0xdf0
        0x00000ebe:    bd10        ..      POP      {r4,pc}
    $d
        0x00000ec0:    40010000    ...@    DCD    1073807360
    $t
    i.Drv_audio_powerdown
    Drv_audio_powerdown
        0x00000ec4:    b510        ..      PUSH     {r4,lr}
        0x00000ec6:    2000        .       MOVS     r0,#0
        0x00000ec8:    f001fefc    ....    BL       drv_5825_powerdown_pin_set ; 0x2cc4
        0x00000ecc:    f001ff44    ..D.    BL       drv_Adc_pcm1862_Init ; 0x2d58
        0x00000ed0:    f002f890    ....    BL       drv_dap_3251_rest ; 0x2ff4
        0x00000ed4:    bd10        ..      POP      {r4,pc}
        0x00000ed6:    0000        ..      MOVS     r0,r0
    i.GPCDEF_IRQHandler
    GPCDEF_IRQHandler
        0x00000ed8:    b530        0.      PUSH     {r4,r5,lr}
        0x00000eda:    4818        .H      LDR      r0,[pc,#96] ; [0xf3c] = 0x500040c0
        0x00000edc:    6a01        .j      LDR      r1,[r0,#0x20]
        0x00000ede:    07c9        ..      LSLS     r1,r1,#31
        0x00000ee0:    d00d        ..      BEQ      0xefe ; GPCDEF_IRQHandler + 38
        0x00000ee2:    2401        .$      MOVS     r4,#1
        0x00000ee4:    6204        .b      STR      r4,[r0,#0x20]
        0x00000ee6:    4816        .H      LDR      r0,[pc,#88] ; [0xf40] = 0x200001ac
        0x00000ee8:    2300        .#      MOVS     r3,#0
        0x00000eea:    6881        .h      LDR      r1,[r0,#8]
        0x00000eec:    460a        .F      MOV      r2,r1
        0x00000eee:    3a79        y:      SUBS     r2,r2,#0x79
        0x00000ef0:    2a18        .*      CMP      r2,#0x18
        0x00000ef2:    d205        ..      BCS      0xf00 ; GPCDEF_IRQHandler + 40
        0x00000ef4:    7004        .p      STRB     r4,[r0,#0]
        0x00000ef6:    6083        .`      STR      r3,[r0,#8]
        0x00000ef8:    7103        .q      STRB     r3,[r0,#4]
        0x00000efa:    6103        .a      STR      r3,[r0,#0x10]
        0x00000efc:    70c3        .p      STRB     r3,[r0,#3]
        0x00000efe:    bd30        0.      POP      {r4,r5,pc}
        0x00000f00:    460a        .F      MOV      r2,r1
        0x00000f02:    3a18        .:      SUBS     r2,r2,#0x18
        0x00000f04:    2a60        `*      CMP      r2,#0x60
        0x00000f06:    d208        ..      BCS      0xf1a ; GPCDEF_IRQHandler + 66
        0x00000f08:    6083        .`      STR      r3,[r0,#8]
        0x00000f0a:    6901        .i      LDR      r1,[r0,#0x10]
        0x00000f0c:    1c49        I.      ADDS     r1,r1,#1
        0x00000f0e:    6101        .a      STR      r1,[r0,#0x10]
        0x00000f10:    290a        .)      CMP      r1,#0xa
        0x00000f12:    d9f4        ..      BLS      0xefe ; GPCDEF_IRQHandler + 38
        0x00000f14:    70c4        .p      STRB     r4,[r0,#3]
        0x00000f16:    6103        .a      STR      r3,[r0,#0x10]
        0x00000f18:    bd30        0.      POP      {r4,r5,pc}
        0x00000f1a:    7802        .x      LDRB     r2,[r0,#0]
        0x00000f1c:    2a00        .*      CMP      r2,#0
        0x00000f1e:    d00a        ..      BEQ      0xf36 ; GPCDEF_IRQHandler + 94
        0x00000f20:    4d08        .M      LDR      r5,[pc,#32] ; [0xf44] = 0x200009d2
        0x00000f22:    7902        .y      LDRB     r2,[r0,#4]
        0x00000f24:    54a9        .T      STRB     r1,[r5,r2]
        0x00000f26:    1c52        R.      ADDS     r2,r2,#1
        0x00000f28:    b2d1        ..      UXTB     r1,r2
        0x00000f2a:    7101        .q      STRB     r1,[r0,#4]
        0x00000f2c:    2920         )      CMP      r1,#0x20
        0x00000f2e:    d302        ..      BCC      0xf36 ; GPCDEF_IRQHandler + 94
        0x00000f30:    7103        .q      STRB     r3,[r0,#4]
        0x00000f32:    7084        .p      STRB     r4,[r0,#2]
        0x00000f34:    7003        .p      STRB     r3,[r0,#0]
        0x00000f36:    6083        .`      STR      r3,[r0,#8]
        0x00000f38:    bd30        0.      POP      {r4,r5,pc}
    $d
        0x00000f3a:    0000        ..      DCW    0
        0x00000f3c:    500040c0    .@.P    DCD    1342193856
        0x00000f40:    200001ac    ...     DCD    536871340
        0x00000f44:    200009d2    ...     DCD    536873426
    $t
    i.GPIO_EnableInt
    GPIO_EnableInt
        0x00000f48:    b510        ..      PUSH     {r4,lr}
        0x00000f4a:    6983        .i      LDR      r3,[r0,#0x18]
        0x00000f4c:    0e14        ..      LSRS     r4,r2,#24
        0x00000f4e:    408c        .@      LSLS     r4,r4,r1
        0x00000f50:    4323        #C      ORRS     r3,r3,r4
        0x00000f52:    6183        .a      STR      r3,[r0,#0x18]
        0x00000f54:    69c3        .i      LDR      r3,[r0,#0x1c]
        0x00000f56:    0212        ..      LSLS     r2,r2,#8
        0x00000f58:    0a12        ..      LSRS     r2,r2,#8
        0x00000f5a:    408a        .@      LSLS     r2,r2,r1
        0x00000f5c:    4313        .C      ORRS     r3,r3,r2
        0x00000f5e:    61c3        .a      STR      r3,[r0,#0x1c]
        0x00000f60:    bd10        ..      POP      {r4,pc}
    i.GPIO_SetMode
    GPIO_SetMode
        0x00000f62:    b5f0        ..      PUSH     {r4-r7,lr}
        0x00000f64:    2300        .#      MOVS     r3,#0
        0x00000f66:    2701        .'      MOVS     r7,#1
        0x00000f68:    463c        <F      MOV      r4,r7
        0x00000f6a:    409c        .@      LSLS     r4,r4,r3
        0x00000f6c:    420c        .B      TST      r4,r1
        0x00000f6e:    d008        ..      BEQ      0xf82 ; GPIO_SetMode + 32
        0x00000f70:    6805        .h      LDR      r5,[r0,#0]
        0x00000f72:    005c        \.      LSLS     r4,r3,#1
        0x00000f74:    2603        .&      MOVS     r6,#3
        0x00000f76:    40a6        .@      LSLS     r6,r6,r4
        0x00000f78:    43b5        .C      BICS     r5,r5,r6
        0x00000f7a:    4616        .F      MOV      r6,r2
        0x00000f7c:    40a6        .@      LSLS     r6,r6,r4
        0x00000f7e:    4335        5C      ORRS     r5,r5,r6
        0x00000f80:    6005        .`      STR      r5,[r0,#0]
        0x00000f82:    1c5b        [.      ADDS     r3,r3,#1
        0x00000f84:    2b10        .+      CMP      r3,#0x10
        0x00000f86:    d3ef        ..      BCC      0xf68 ; GPIO_SetMode + 6
        0x00000f88:    bdf0        ..      POP      {r4-r7,pc}
        0x00000f8a:    0000        ..      MOVS     r0,r0
    i.GetIrKey
    GetIrKey
        0x00000f8c:    b570        p.      PUSH     {r4-r6,lr}
        0x00000f8e:    4c0a        .L      LDR      r4,[pc,#40] ; [0xfb8] = 0x200001ac
        0x00000f90:    2500        .%      MOVS     r5,#0
        0x00000f92:    78a0        .x      LDRB     r0,[r4,#2]
        0x00000f94:    2800        .(      CMP      r0,#0
        0x00000f96:    d006        ..      BEQ      0xfa6 ; GetIrKey + 26
        0x00000f98:    a008        ..      ADR      r0,{pc}+0x24 ; 0xfbc
        0x00000f9a:    f7fff933    ..3.    BL       __2printf ; 0x204
        0x00000f9e:    f000fc1f    ....    BL       Ircordpro ; 0x17e0
        0x00000fa2:    70a5        .p      STRB     r5,[r4,#2]
        0x00000fa4:    bd70        p.      POP      {r4-r6,pc}
        0x00000fa6:    78e0        .x      LDRB     r0,[r4,#3]
        0x00000fa8:    2800        .(      CMP      r0,#0
        0x00000faa:    d003        ..      BEQ      0xfb4 ; GetIrKey + 40
        0x00000fac:    70e5        .p      STRB     r5,[r4,#3]
        0x00000fae:    a008        ..      ADR      r0,{pc}+0x22 ; 0xfd0
        0x00000fb0:    f7fff928    ..(.    BL       __2printf ; 0x204
        0x00000fb4:    2000        .       MOVS     r0,#0
        0x00000fb6:    bd70        p.      POP      {r4-r6,pc}
    $d
        0x00000fb8:    200001ac    ...     DCD    536871340
        0x00000fbc:    645f7269    ir_d    DCD    1683976809
        0x00000fc0:    5f617461    ata_    DCD    1600222305
        0x00000fc4:    6f5f7872    rx_o    DCD    1868527730
        0x00000fc8:    203d206b    k =     DCD    540876907
        0x00000fcc:    00000a31    1...    DCD    2609
        0x00000fd0:    676e6f4c    Long    DCD    1735290700
        0x00000fd4:    73657250    Pres    DCD    1936028240
        0x00000fd8:    00000a73    s...    DCD    2675
    $t
    i.GetKeyEvent
    GetKeyEvent
        0x00000fdc:    b5f8        ..      PUSH     {r3-r7,lr}
        0x00000fde:    2400        .$      MOVS     r4,#0
        0x00000fe0:    4840        @H      LDR      r0,[pc,#256] ; [0x10e4] = 0x200001fc
        0x00000fe2:    f000fc59    ..Y.    BL       IsTimeOut ; 0x1898
        0x00000fe6:    2800        .(      CMP      r0,#0
        0x00000fe8:    d036        6.      BEQ      0x1058 ; GetKeyEvent + 124
        0x00000fea:    210a        .!      MOVS     r1,#0xa
        0x00000fec:    483d        =H      LDR      r0,[pc,#244] ; [0x10e4] = 0x200001fc
        0x00000fee:    f001f9f1    ....    BL       TimeOutSet ; 0x23d4
        0x00000ff2:    483d        =H      LDR      r0,[pc,#244] ; [0x10e8] = 0x50004280
        0x00000ff4:    68c1        .h      LDR      r1,[r0,#0xc]
        0x00000ff6:    2900        .)      CMP      r1,#0
        0x00000ff8:    d003        ..      BEQ      0x1002 ; GetKeyEvent + 38
        0x00000ffa:    6980        .i      LDR      r0,[r0,#0x18]
        0x00000ffc:    2800        .(      CMP      r0,#0
        0x00000ffe:    d002        ..      BEQ      0x1006 ; GetKeyEvent + 42
        0x00001000:    e002        ..      B        0x1008 ; GetKeyEvent + 44
        0x00001002:    2401        .$      MOVS     r4,#1
        0x00001004:    e000        ..      B        0x1008 ; GetKeyEvent + 44
        0x00001006:    2402        .$      MOVS     r4,#2
        0x00001008:    4d36        6M      LDR      r5,[pc,#216] ; [0x10e4] = 0x200001fc
        0x0000100a:    2700        .'      MOVS     r7,#0
        0x0000100c:    3d0c        .=      SUBS     r5,r5,#0xc
        0x0000100e:    78a8        .x      LDRB     r0,[r5,#2]
        0x00001010:    2800        .(      CMP      r0,#0
        0x00001012:    d007        ..      BEQ      0x1024 ; GetKeyEvent + 72
        0x00001014:    2801        .(      CMP      r0,#1
        0x00001016:    d00f        ..      BEQ      0x1038 ; GetKeyEvent + 92
        0x00001018:    4e34        4N      LDR      r6,[pc,#208] ; [0x10ec] = 0x20000a14
        0x0000101a:    2802        .(      CMP      r0,#2
        0x0000101c:    d01d        ..      BEQ      0x105a ; GetKeyEvent + 126
        0x0000101e:    2804        .(      CMP      r0,#4
        0x00001020:    d124        $.      BNE      0x106c ; GetKeyEvent + 144
        0x00001022:    e039        9.      B        0x1098 ; GetKeyEvent + 188
        0x00001024:    2c00        .,      CMP      r4,#0
        0x00001026:    d017        ..      BEQ      0x1058 ; GetKeyEvent + 124
        0x00001028:    482e        .H      LDR      r0,[pc,#184] ; [0x10e4] = 0x200001fc
        0x0000102a:    706c        lp      STRB     r4,[r5,#1]
        0x0000102c:    2114        .!      MOVS     r1,#0x14
        0x0000102e:    3808        .8      SUBS     r0,r0,#8
        0x00001030:    f001f9d0    ....    BL       TimeOutSet ; 0x23d4
        0x00001034:    2001        .       MOVS     r0,#1
        0x00001036:    70a8        .p      STRB     r0,[r5,#2]
        0x00001038:    7868        hx      LDRB     r0,[r5,#1]
        0x0000103a:    42a0        .B      CMP      r0,r4
        0x0000103c:    d116        ..      BNE      0x106c ; GetKeyEvent + 144
        0x0000103e:    4829        )H      LDR      r0,[pc,#164] ; [0x10e4] = 0x200001fc
        0x00001040:    3808        .8      SUBS     r0,r0,#8
        0x00001042:    f000fc29    ..).    BL       IsTimeOut ; 0x1898
        0x00001046:    2800        .(      CMP      r0,#0
        0x00001048:    d006        ..      BEQ      0x1058 ; GetKeyEvent + 124
        0x0000104a:    4826        &H      LDR      r0,[pc,#152] ; [0x10e4] = 0x200001fc
        0x0000104c:    4928        (I      LDR      r1,[pc,#160] ; [0x10f0] = 0x5dc
        0x0000104e:    3808        .8      SUBS     r0,r0,#8
        0x00001050:    f001f9c0    ....    BL       TimeOutSet ; 0x23d4
        0x00001054:    2002        .       MOVS     r0,#2
        0x00001056:    70a8        .p      STRB     r0,[r5,#2]
        0x00001058:    bdf8        ..      POP      {r3-r7,pc}
        0x0000105a:    7868        hx      LDRB     r0,[r5,#1]
        0x0000105c:    42a0        .B      CMP      r0,r4
        0x0000105e:    d007        ..      BEQ      0x1070 ; GetKeyEvent + 148
        0x00001060:    0041        A.      LSLS     r1,r0,#1
        0x00001062:    1841        A.      ADDS     r1,r0,r1
        0x00001064:    4823        #H      LDR      r0,[pc,#140] ; [0x10f4] = 0x868a
        0x00001066:    1808        ..      ADDS     r0,r1,r0
        0x00001068:    7800        .x      LDRB     r0,[r0,#0]
        0x0000106a:    7028        (p      STRB     r0,[r5,#0]
        0x0000106c:    70af        .p      STRB     r7,[r5,#2]
        0x0000106e:    bdf8        ..      POP      {r3-r7,pc}
        0x00001070:    481c        .H      LDR      r0,[pc,#112] ; [0x10e4] = 0x200001fc
        0x00001072:    3808        .8      SUBS     r0,r0,#8
        0x00001074:    f000fc10    ....    BL       IsTimeOut ; 0x1898
        0x00001078:    2800        .(      CMP      r0,#0
        0x0000107a:    d0f8        ..      BEQ      0x106e ; GetKeyEvent + 146
        0x0000107c:    4819        .H      LDR      r0,[pc,#100] ; [0x10e4] = 0x200001fc
        0x0000107e:    491c        .I      LDR      r1,[pc,#112] ; [0x10f0] = 0x5dc
        0x00001080:    3808        .8      SUBS     r0,r0,#8
        0x00001082:    f001f9a7    ....    BL       TimeOutSet ; 0x23d4
        0x00001086:    2004        .       MOVS     r0,#4
        0x00001088:    70a8        .p      STRB     r0,[r5,#2]
        0x0000108a:    7868        hx      LDRB     r0,[r5,#1]
        0x0000108c:    0041        A.      LSLS     r1,r0,#1
        0x0000108e:    1841        A.      ADDS     r1,r0,r1
        0x00001090:    4818        .H      LDR      r0,[pc,#96] ; [0x10f4] = 0x868a
        0x00001092:    1808        ..      ADDS     r0,r1,r0
        0x00001094:    7840        @x      LDRB     r0,[r0,#1]
        0x00001096:    e008        ..      B        0x10aa ; GetKeyEvent + 206
        0x00001098:    7868        hx      LDRB     r0,[r5,#1]
        0x0000109a:    42a0        .B      CMP      r0,r4
        0x0000109c:    d009        ..      BEQ      0x10b2 ; GetKeyEvent + 214
        0x0000109e:    0041        A.      LSLS     r1,r0,#1
        0x000010a0:    1841        A.      ADDS     r1,r0,r1
        0x000010a2:    4814        .H      LDR      r0,[pc,#80] ; [0x10f4] = 0x868a
        0x000010a4:    70af        .p      STRB     r7,[r5,#2]
        0x000010a6:    1808        ..      ADDS     r0,r1,r0
        0x000010a8:    7880        .x      LDRB     r0,[r0,#2]
        0x000010aa:    7028        (p      STRB     r0,[r5,#0]
        0x000010ac:    2001        .       MOVS     r0,#1
        0x000010ae:    7330        0s      STRB     r0,[r6,#0xc]
        0x000010b0:    bdf8        ..      POP      {r3-r7,pc}
        0x000010b2:    480c        .H      LDR      r0,[pc,#48] ; [0x10e4] = 0x200001fc
        0x000010b4:    3808        .8      SUBS     r0,r0,#8
        0x000010b6:    f000fbef    ....    BL       IsTimeOut ; 0x1898
        0x000010ba:    2800        .(      CMP      r0,#0
        0x000010bc:    d0f8        ..      BEQ      0x10b0 ; GetKeyEvent + 212
        0x000010be:    4809        .H      LDR      r0,[pc,#36] ; [0x10e4] = 0x200001fc
        0x000010c0:    490b        .I      LDR      r1,[pc,#44] ; [0x10f0] = 0x5dc
        0x000010c2:    3808        .8      SUBS     r0,r0,#8
        0x000010c4:    f001f986    ....    BL       TimeOutSet ; 0x23d4
        0x000010c8:    2004        .       MOVS     r0,#4
        0x000010ca:    70a8        .p      STRB     r0,[r5,#2]
        0x000010cc:    2c04        .,      CMP      r4,#4
        0x000010ce:    d001        ..      BEQ      0x10d4 ; GetKeyEvent + 248
        0x000010d0:    2c05        .,      CMP      r4,#5
        0x000010d2:    d1ed        ..      BNE      0x10b0 ; GetKeyEvent + 212
        0x000010d4:    7868        hx      LDRB     r0,[r5,#1]
        0x000010d6:    0041        A.      LSLS     r1,r0,#1
        0x000010d8:    1841        A.      ADDS     r1,r0,r1
        0x000010da:    4806        .H      LDR      r0,[pc,#24] ; [0x10f4] = 0x868a
        0x000010dc:    1808        ..      ADDS     r0,r1,r0
        0x000010de:    7840        @x      LDRB     r0,[r0,#1]
        0x000010e0:    7028        (p      STRB     r0,[r5,#0]
        0x000010e2:    bdf8        ..      POP      {r3-r7,pc}
    $d
        0x000010e4:    200001fc    ...     DCD    536871420
        0x000010e8:    50004280    .B.P    DCD    1342194304
        0x000010ec:    20000a14    ...     DCD    536873492
        0x000010f0:    000005dc    ....    DCD    1500
        0x000010f4:    0000868a    ....    DCD    34442
    $t
    i.Hal_I2c0_Stop
    Hal_I2c0_Stop
        0x000010f8:    b538        8.      PUSH     {r3-r5,lr}
        0x000010fa:    4d09        .M      LDR      r5,[pc,#36] ; [0x1120] = 0x40020000
        0x000010fc:    4628        (F      MOV      r0,r5
        0x000010fe:    f000fac1    ....    BL       I2C_ClearTimeoutFlag ; 0x1684
        0x00001102:    4628        (F      MOV      r0,r5
        0x00001104:    f000fac3    ....    BL       I2C_DisableInt ; 0x168e
        0x00001108:    2400        .$      MOVS     r4,#0
        0x0000110a:    2301        .#      MOVS     r3,#1
        0x0000110c:    461a        .F      MOV      r2,r3
        0x0000110e:    4621        !F      MOV      r1,r4
        0x00001110:    4628        (F      MOV      r0,r5
        0x00001112:    9400        ..      STR      r4,[sp,#0]
        0x00001114:    f000faf6    ....    BL       I2C_Trigger ; 0x1704
        0x00001118:    4802        .H      LDR      r0,[pc,#8] ; [0x1124] = 0x20000448
        0x0000111a:    8204        ..      STRH     r4,[r0,#0x10]
        0x0000111c:    7504        .u      STRB     r4,[r0,#0x14]
        0x0000111e:    bd38        8.      POP      {r3-r5,pc}
    $d
        0x00001120:    40020000    ...@    DCD    1073872896
        0x00001124:    20000448    H..     DCD    536872008
    $t
    i.Hal_I2c1_Stop
    Hal_I2c1_Stop
        0x00001128:    b538        8.      PUSH     {r3-r5,lr}
        0x0000112a:    4d09        .M      LDR      r5,[pc,#36] ; [0x1150] = 0x40120000
        0x0000112c:    4628        (F      MOV      r0,r5
        0x0000112e:    f000faa9    ....    BL       I2C_ClearTimeoutFlag ; 0x1684
        0x00001132:    4628        (F      MOV      r0,r5
        0x00001134:    f000faab    ....    BL       I2C_DisableInt ; 0x168e
        0x00001138:    2400        .$      MOVS     r4,#0
        0x0000113a:    2301        .#      MOVS     r3,#1
        0x0000113c:    461a        .F      MOV      r2,r3
        0x0000113e:    4621        !F      MOV      r1,r4
        0x00001140:    4628        (F      MOV      r0,r5
        0x00001142:    9400        ..      STR      r4,[sp,#0]
        0x00001144:    f000fade    ....    BL       I2C_Trigger ; 0x1704
        0x00001148:    4802        .H      LDR      r0,[pc,#8] ; [0x1154] = 0x20000448
        0x0000114a:    8204        ..      STRH     r4,[r0,#0x10]
        0x0000114c:    7504        .u      STRB     r4,[r0,#0x14]
        0x0000114e:    bd38        8.      POP      {r3-r5,pc}
    $d
        0x00001150:    40120000    ...@    DCD    1074921472
        0x00001154:    20000448    H..     DCD    536872008
    $t
    i.Hal_I2c1_Transfer
    Hal_I2c1_Transfer
        0x00001158:    b5ff        ..      PUSH     {r0-r7,lr}
        0x0000115a:    4c1c        .L      LDR      r4,[pc,#112] ; [0x11cc] = 0x20000448
        0x0000115c:    b081        ..      SUB      sp,sp,#4
        0x0000115e:    4616        .F      MOV      r6,r2
        0x00001160:    4607        .F      MOV      r7,r0
        0x00001162:    7d20         }      LDRB     r0,[r4,#0x14]
        0x00001164:    2800        .(      CMP      r0,#0
        0x00001166:    d1fc        ..      BNE      0x1162 ; Hal_I2c1_Transfer + 10
        0x00001168:    4d19        .M      LDR      r5,[pc,#100] ; [0x11d0] = 0x40120000
        0x0000116a:    4628        (F      MOV      r0,r5
        0x0000116c:    f000faa9    ....    BL       I2C_GetStatus ; 0x16c2
        0x00001170:    2800        .(      CMP      r0,#0
        0x00001172:    d109        ..      BNE      0x1188 ; Hal_I2c1_Transfer + 48
        0x00001174:    4817        .H      LDR      r0,[pc,#92] ; [0x11d4] = 0x20000038
        0x00001176:    7801        .x      LDRB     r1,[r0,#0]
        0x00001178:    0749        I.      LSLS     r1,r1,#29
        0x0000117a:    d405        ..      BMI      0x1188 ; Hal_I2c1_Transfer + 48
        0x0000117c:    7801        .x      LDRB     r1,[r0,#0]
        0x0000117e:    2204        ."      MOVS     r2,#4
        0x00001180:    4311        .C      ORRS     r1,r1,r2
        0x00001182:    7001        .p      STRB     r1,[r0,#0]
        0x00001184:    b005        ..      ADD      sp,sp,#0x14
        0x00001186:    bdf0        ..      POP      {r4-r7,pc}
        0x00001188:    74a7        .t      STRB     r7,[r4,#0x12]
        0x0000118a:    9802        ..      LDR      r0,[sp,#8]
        0x0000118c:    6020         `      STR      r0,[r4,#0]
        0x0000118e:    9804        ..      LDR      r0,[sp,#0x10]
        0x00001190:    6060        ``      STR      r0,[r4,#4]
        0x00001192:    8126        &.      STRH     r6,[r4,#8]
        0x00001194:    980a        ..      LDR      r0,[sp,#0x28]
        0x00001196:    8160        `.      STRH     r0,[r4,#0xa]
        0x00001198:    2600        .&      MOVS     r6,#0
        0x0000119a:    81a6        ..      STRH     r6,[r4,#0xc]
        0x0000119c:    81e6        ..      STRH     r6,[r4,#0xe]
        0x0000119e:    2008        .       MOVS     r0,#8
        0x000011a0:    74e0        .t      STRB     r0,[r4,#0x13]
        0x000011a2:    8226        &.      STRH     r6,[r4,#0x10]
        0x000011a4:    2001        .       MOVS     r0,#1
        0x000011a6:    7520         u      STRB     r0,[r4,#0x14]
        0x000011a8:    4628        (F      MOV      r0,r5
        0x000011aa:    f000fa6b    ..k.    BL       I2C_ClearTimeoutFlag ; 0x1684
        0x000011ae:    2301        .#      MOVS     r3,#1
        0x000011b0:    2200        ."      MOVS     r2,#0
        0x000011b2:    4619        .F      MOV      r1,r3
        0x000011b4:    4628        (F      MOV      r0,r5
        0x000011b6:    9600        ..      STR      r6,[sp,#0]
        0x000011b8:    f000faa4    ....    BL       I2C_Trigger ; 0x1704
        0x000011bc:    4628        (F      MOV      r0,r5
        0x000011be:    f000fa6b    ..k.    BL       I2C_EnableInt ; 0x1698
        0x000011c2:    7d20         }      LDRB     r0,[r4,#0x14]
        0x000011c4:    2800        .(      CMP      r0,#0
        0x000011c6:    d1fc        ..      BNE      0x11c2 ; Hal_I2c1_Transfer + 106
        0x000011c8:    e7dc        ..      B        0x1184 ; Hal_I2c1_Transfer + 44
    $d
        0x000011ca:    0000        ..      DCW    0
        0x000011cc:    20000448    H..     DCD    536872008
        0x000011d0:    40120000    ...@    DCD    1074921472
        0x000011d4:    20000038    8..     DCD    536870968
    $t
    i.Hal_I2c_Init
    Hal_I2c_Init
        0x000011d8:    b570        p.      PUSH     {r4-r6,lr}
        0x000011da:    4818        .H      LDR      r0,[pc,#96] ; [0x123c] = 0x40000008
        0x000011dc:    f7fffb48    ..H.    BL       CLK_EnableModuleClock ; 0x870
        0x000011e0:    4817        .H      LDR      r0,[pc,#92] ; [0x1240] = 0x4000008
        0x000011e2:    f000fe09    ....    BL       SYS_ResetModule ; 0x1df8
        0x000011e6:    4c17        .L      LDR      r4,[pc,#92] ; [0x1244] = 0x40020000
        0x000011e8:    2101        .!      MOVS     r1,#1
        0x000011ea:    4620         F      MOV      r0,r4
        0x000011ec:    f000fa59    ..Y.    BL       I2C_EnableTimeout ; 0x16a2
        0x000011f0:    4915        .I      LDR      r1,[pc,#84] ; [0x1248] = 0x30d40
        0x000011f2:    4620         F      MOV      r0,r4
        0x000011f4:    f000fa68    ..h.    BL       I2C_Open ; 0x16c8
        0x000011f8:    2001        .       MOVS     r0,#1
        0x000011fa:    4c14        .L      LDR      r4,[pc,#80] ; [0x124c] = 0xe000e100
        0x000011fc:    0480        ..      LSLS     r0,r0,#18
        0x000011fe:    6020         `      STR      r0,[r4,#0]
        0x00001200:    2102        .!      MOVS     r1,#2
        0x00001202:    2012        .       MOVS     r0,#0x12
        0x00001204:    f000fb76    ..v.    BL       NVIC_SetPriority ; 0x18f4
        0x00001208:    480c        .H      LDR      r0,[pc,#48] ; [0x123c] = 0x40000008
        0x0000120a:    1c40        @.      ADDS     r0,r0,#1
        0x0000120c:    f7fffb30    ..0.    BL       CLK_EnableModuleClock ; 0x870
        0x00001210:    480b        .H      LDR      r0,[pc,#44] ; [0x1240] = 0x4000008
        0x00001212:    1c40        @.      ADDS     r0,r0,#1
        0x00001214:    f000fdf0    ....    BL       SYS_ResetModule ; 0x1df8
        0x00001218:    4d0d        .M      LDR      r5,[pc,#52] ; [0x1250] = 0x40120000
        0x0000121a:    2101        .!      MOVS     r1,#1
        0x0000121c:    4628        (F      MOV      r0,r5
        0x0000121e:    f000fa40    ..@.    BL       I2C_EnableTimeout ; 0x16a2
        0x00001222:    490c        .I      LDR      r1,[pc,#48] ; [0x1254] = 0x186a0
        0x00001224:    4628        (F      MOV      r0,r5
        0x00001226:    f000fa4f    ..O.    BL       I2C_Open ; 0x16c8
        0x0000122a:    2001        .       MOVS     r0,#1
        0x0000122c:    04c0        ..      LSLS     r0,r0,#19
        0x0000122e:    6020         `      STR      r0,[r4,#0]
        0x00001230:    2102        .!      MOVS     r1,#2
        0x00001232:    2013        .       MOVS     r0,#0x13
        0x00001234:    f000fb5e    ..^.    BL       NVIC_SetPriority ; 0x18f4
        0x00001238:    bd70        p.      POP      {r4-r6,pc}
    $d
        0x0000123a:    0000        ..      DCW    0
        0x0000123c:    40000008    ...@    DCD    1073741832
        0x00001240:    04000008    ....    DCD    67108872
        0x00001244:    40020000    ...@    DCD    1073872896
        0x00001248:    00030d40    @...    DCD    200000
        0x0000124c:    e000e100    ....    DCD    3758153984
        0x00001250:    40120000    ...@    DCD    1074921472
        0x00001254:    000186a0    ....    DCD    100000
    $t
    i.Hal_I2c_Transfer
    Hal_I2c_Transfer
        0x00001258:    b5ff        ..      PUSH     {r0-r7,lr}
        0x0000125a:    4c1c        .L      LDR      r4,[pc,#112] ; [0x12cc] = 0x20000448
        0x0000125c:    b081        ..      SUB      sp,sp,#4
        0x0000125e:    4616        .F      MOV      r6,r2
        0x00001260:    4607        .F      MOV      r7,r0
        0x00001262:    7d20         }      LDRB     r0,[r4,#0x14]
        0x00001264:    2800        .(      CMP      r0,#0
        0x00001266:    d1fc        ..      BNE      0x1262 ; Hal_I2c_Transfer + 10
        0x00001268:    4d19        .M      LDR      r5,[pc,#100] ; [0x12d0] = 0x40020000
        0x0000126a:    4628        (F      MOV      r0,r5
        0x0000126c:    f000fa29    ..).    BL       I2C_GetStatus ; 0x16c2
        0x00001270:    2800        .(      CMP      r0,#0
        0x00001272:    d109        ..      BNE      0x1288 ; Hal_I2c_Transfer + 48
        0x00001274:    4817        .H      LDR      r0,[pc,#92] ; [0x12d4] = 0x20000038
        0x00001276:    7801        .x      LDRB     r1,[r0,#0]
        0x00001278:    0789        ..      LSLS     r1,r1,#30
        0x0000127a:    d405        ..      BMI      0x1288 ; Hal_I2c_Transfer + 48
        0x0000127c:    7801        .x      LDRB     r1,[r0,#0]
        0x0000127e:    2202        ."      MOVS     r2,#2
        0x00001280:    4311        .C      ORRS     r1,r1,r2
        0x00001282:    7001        .p      STRB     r1,[r0,#0]
        0x00001284:    b005        ..      ADD      sp,sp,#0x14
        0x00001286:    bdf0        ..      POP      {r4-r7,pc}
        0x00001288:    74a7        .t      STRB     r7,[r4,#0x12]
        0x0000128a:    9802        ..      LDR      r0,[sp,#8]
        0x0000128c:    6020         `      STR      r0,[r4,#0]
        0x0000128e:    9804        ..      LDR      r0,[sp,#0x10]
        0x00001290:    6060        ``      STR      r0,[r4,#4]
        0x00001292:    8126        &.      STRH     r6,[r4,#8]
        0x00001294:    980a        ..      LDR      r0,[sp,#0x28]
        0x00001296:    8160        `.      STRH     r0,[r4,#0xa]
        0x00001298:    2600        .&      MOVS     r6,#0
        0x0000129a:    81a6        ..      STRH     r6,[r4,#0xc]
        0x0000129c:    81e6        ..      STRH     r6,[r4,#0xe]
        0x0000129e:    2008        .       MOVS     r0,#8
        0x000012a0:    74e0        .t      STRB     r0,[r4,#0x13]
        0x000012a2:    8226        &.      STRH     r6,[r4,#0x10]
        0x000012a4:    2001        .       MOVS     r0,#1
        0x000012a6:    7520         u      STRB     r0,[r4,#0x14]
        0x000012a8:    4628        (F      MOV      r0,r5
        0x000012aa:    f000f9eb    ....    BL       I2C_ClearTimeoutFlag ; 0x1684
        0x000012ae:    2301        .#      MOVS     r3,#1
        0x000012b0:    2200        ."      MOVS     r2,#0
        0x000012b2:    4619        .F      MOV      r1,r3
        0x000012b4:    4628        (F      MOV      r0,r5
        0x000012b6:    9600        ..      STR      r6,[sp,#0]
        0x000012b8:    f000fa24    ..$.    BL       I2C_Trigger ; 0x1704
        0x000012bc:    4628        (F      MOV      r0,r5
        0x000012be:    f000f9eb    ....    BL       I2C_EnableInt ; 0x1698
        0x000012c2:    7d20         }      LDRB     r0,[r4,#0x14]
        0x000012c4:    2800        .(      CMP      r0,#0
        0x000012c6:    d1fc        ..      BNE      0x12c2 ; Hal_I2c_Transfer + 106
        0x000012c8:    e7dc        ..      B        0x1284 ; Hal_I2c_Transfer + 44
    $d
        0x000012ca:    0000        ..      DCW    0
        0x000012cc:    20000448    H..     DCD    536872008
        0x000012d0:    40020000    ...@    DCD    1073872896
        0x000012d4:    20000038    8..     DCD    536870968
    $t
    i.Hal_Timer1_Init
    Hal_Timer1_Init
        0x000012d8:    b510        ..      PUSH     {r4,lr}
        0x000012da:    4c17        .L      LDR      r4,[pc,#92] ; [0x1338] = 0x5ec00003
        0x000012dc:    4620         F      MOV      r0,r4
        0x000012de:    f7fffac7    ....    BL       CLK_EnableModuleClock ; 0x870
        0x000012e2:    2107        .!      MOVS     r1,#7
        0x000012e4:    2200        ."      MOVS     r2,#0
        0x000012e6:    0209        ..      LSLS     r1,r1,#8
        0x000012e8:    4620         F      MOV      r0,r4
        0x000012ea:    f7fffc33    ..3.    BL       CLK_SetModuleClock ; 0xb54
        0x000012ee:    4c14        .L      LDR      r4,[pc,#80] ; [0x1340] = 0x40010100
        0x000012f0:    2101        .!      MOVS     r1,#1
        0x000012f2:    4a12        .J      LDR      r2,[pc,#72] ; [0x133c] = 0x2710
        0x000012f4:    06c9        ..      LSLS     r1,r1,#27
        0x000012f6:    4620         F      MOV      r0,r4
        0x000012f8:    f000feb4    ....    BL       TIMER_Open ; 0x2064
        0x000012fc:    6820         h      LDR      r0,[r4,#0]
        0x000012fe:    0561        a.      LSLS     r1,r4,#21
        0x00001300:    4308        .C      ORRS     r0,r0,r1
        0x00001302:    6020         `      STR      r0,[r4,#0]
        0x00001304:    1508        ..      ASRS     r0,r1,#20
        0x00001306:    490f        .I      LDR      r1,[pc,#60] ; [0x1344] = 0xe000e100
        0x00001308:    6008        .`      STR      r0,[r1,#0]
        0x0000130a:    2101        .!      MOVS     r1,#1
        0x0000130c:    2009        .       MOVS     r0,#9
        0x0000130e:    f000facf    ....    BL       NVIC_SetPriority ; 0x18b0
        0x00001312:    6820         h      LDR      r0,[r4,#0]
        0x00001314:    05a1        ..      LSLS     r1,r4,#22
        0x00001316:    4308        .C      ORRS     r0,r0,r1
        0x00001318:    6020         `      STR      r0,[r4,#0]
        0x0000131a:    2164        d!      MOVS     r1,#0x64
        0x0000131c:    480a        .H      LDR      r0,[pc,#40] ; [0x1348] = 0x20000018
        0x0000131e:    f001f859    ..Y.    BL       TimeOutSet ; 0x23d4
        0x00001322:    4809        .H      LDR      r0,[pc,#36] ; [0x1348] = 0x20000018
        0x00001324:    2164        d!      MOVS     r1,#0x64
        0x00001326:    3008        .0      ADDS     r0,r0,#8
        0x00001328:    f001f854    ..T.    BL       TimeOutSet ; 0x23d4
        0x0000132c:    4806        .H      LDR      r0,[pc,#24] ; [0x1348] = 0x20000018
        0x0000132e:    2164        d!      MOVS     r1,#0x64
        0x00001330:    3010        .0      ADDS     r0,r0,#0x10
        0x00001332:    f001f84f    ..O.    BL       TimeOutSet ; 0x23d4
        0x00001336:    bd10        ..      POP      {r4,pc}
    $d
        0x00001338:    5ec00003    ...^    DCD    1589641219
        0x0000133c:    00002710    .'..    DCD    10000
        0x00001340:    40010100    ...@    DCD    1073807616
        0x00001344:    e000e100    ....    DCD    3758153984
        0x00001348:    20000018    ...     DCD    536870936
    $t
    i.Hard_Fault_Handler
    Hard_Fault_Handler
    __tagsym$$used
        0x0000134c:    4604        .F      MOV      r4,r0
        0x0000134e:    a003        ..      ADR      r0,{pc}+0xe ; 0x135c
        0x00001350:    f7feff58    ..X.    BL       __2printf ; 0x204
        0x00001354:    4620         F      MOV      r0,r4
        0x00001356:    f002fdd5    ....    BL       stackDump ; 0x3f04
        0x0000135a:    e7fe        ..      B        0x135a ; Hard_Fault_Handler + 14
    $d
        0x0000135c:    48206e49    In H    DCD    1210084937
        0x00001360:    20647261    ard     DCD    543453793
        0x00001364:    6c756146    Faul    DCD    1819631942
        0x00001368:    61482074    t Ha    DCD    1632116852
        0x0000136c:    656c646e    ndle    DCD    1701602414
        0x00001370:    00000a72    r...    DCD    2674
    $t
    i.HwKeyScanInit
    HwKeyScanInit
        0x00001374:    b510        ..      PUSH     {r4,lr}
        0x00001376:    4904        .I      LDR      r1,[pc,#16] ; [0x1388] = 0x200001f0
        0x00001378:    2000        .       MOVS     r0,#0
        0x0000137a:    7088        .p      STRB     r0,[r1,#2]
        0x0000137c:    4802        .H      LDR      r0,[pc,#8] ; [0x1388] = 0x200001f0
        0x0000137e:    210a        .!      MOVS     r1,#0xa
        0x00001380:    300c        .0      ADDS     r0,r0,#0xc
        0x00001382:    f001f827    ..'.    BL       TimeOutSet ; 0x23d4
        0x00001386:    bd10        ..      POP      {r4,pc}
    $d
        0x00001388:    200001f0    ...     DCD    536871408
    $t
    i.I2C0_IRQHandler
    I2C0_IRQHandler
        0x0000138c:    b5f8        ..      PUSH     {r3-r7,lr}
        0x0000138e:    4e58        XN      LDR      r6,[pc,#352] ; [0x14f0] = 0x40020000
        0x00001390:    68f0        .h      LDR      r0,[r6,#0xc]
        0x00001392:    2701        .'      MOVS     r7,#1
        0x00001394:    9000        ..      STR      r0,[sp,#0]
        0x00001396:    4957        WI      LDR      r1,[pc,#348] ; [0x14f4] = 0xe000e280
        0x00001398:    04b8        ..      LSLS     r0,r7,#18
        0x0000139a:    6008        .`      STR      r0,[r1,#0]
        0x0000139c:    6970        pi      LDR      r0,[r6,#0x14]
        0x0000139e:    43c0        .C      MVNS     r0,r0
        0x000013a0:    07c0        ..      LSLS     r0,r0,#31
        0x000013a2:    d026        &.      BEQ      0x13f2 ; I2C0_IRQHandler + 102
        0x000013a4:    4c54        TL      LDR      r4,[pc,#336] ; [0x14f8] = 0x20000448
        0x000013a6:    7ce1        .|      LDRB     r1,[r4,#0x13]
        0x000013a8:    9800        ..      LDR      r0,[sp,#0]
        0x000013aa:    4281        .B      CMP      r1,r0
        0x000013ac:    d010        ..      BEQ      0x13d0 ; I2C0_IRQHandler + 68
        0x000013ae:    8a20         .      LDRH     r0,[r4,#0x10]
        0x000013b0:    1c40        @.      ADDS     r0,r0,#1
        0x000013b2:    8220         .      STRH     r0,[r4,#0x10]
        0x000013b4:    8a20         .      LDRH     r0,[r4,#0x10]
        0x000013b6:    4951        QI      LDR      r1,[pc,#324] ; [0x14fc] = 0x1388
        0x000013b8:    4288        .B      CMP      r0,r1
        0x000013ba:    d909        ..      BLS      0x13d0 ; I2C0_IRQHandler + 68
        0x000013bc:    4850        PH      LDR      r0,[pc,#320] ; [0x1500] = 0x20000038
        0x000013be:    7801        .x      LDRB     r1,[r0,#0]
        0x000013c0:    0789        ..      LSLS     r1,r1,#30
        0x000013c2:    d403        ..      BMI      0x13cc ; I2C0_IRQHandler + 64
        0x000013c4:    7801        .x      LDRB     r1,[r0,#0]
        0x000013c6:    2202        ."      MOVS     r2,#2
        0x000013c8:    4311        .C      ORRS     r1,r1,r2
        0x000013ca:    7001        .p      STRB     r1,[r0,#0]
        0x000013cc:    f7fffe94    ....    BL       Hal_I2c0_Stop ; 0x10f8
        0x000013d0:    9800        ..      LDR      r0,[sp,#0]
        0x000013d2:    0741        A.      LSLS     r1,r0,#29
        0x000013d4:    0f49        I.      LSRS     r1,r1,#29
        0x000013d6:    d133        3.      BNE      0x1440 ; I2C0_IRQHandler + 180
        0x000013d8:    10c0        ..      ASRS     r0,r0,#3
        0x000013da:    2150        P!      MOVS     r1,#0x50
        0x000013dc:    2500        .%      MOVS     r5,#0
        0x000013de:    0003        ..      MOVS     r3,r0
        0x000013e0:    f001fb52    ..R.    BL       __ARM_common_switch8 ; 0x2a88
    $d
        0x000013e4:    4a140b0c    ...J    DCD    1242827532
        0x000013e8:    0b2f0b19    ../.    DCD    187632409
        0x000013ec:    600b562e    .V.`    DCD    1611355694
        0x000013f0:    2e82        ..      DCW    11906
    $t
        0x000013f2:    4630        0F      MOV      r0,r6
        0x000013f4:    f000f946    ..F.    BL       I2C_ClearTimeoutFlag ; 0x1684
        0x000013f8:    e076        v.      B        0x14e8 ; I2C0_IRQHandler + 348
        0x000013fa:    4841        AH      LDR      r0,[pc,#260] ; [0x1500] = 0x20000038
        0x000013fc:    7801        .x      LDRB     r1,[r0,#0]
        0x000013fe:    0789        ..      LSLS     r1,r1,#30
        0x00001400:    d472        r.      BMI      0x14e8 ; I2C0_IRQHandler + 348
        0x00001402:    7802        .x      LDRB     r2,[r0,#0]
        0x00001404:    2102        .!      MOVS     r1,#2
        0x00001406:    430a        .C      ORRS     r2,r2,r1
        0x00001408:    7002        .p      STRB     r2,[r0,#0]
        0x0000140a:    e06d        m.      B        0x14e8 ; I2C0_IRQHandler + 348
        0x0000140c:    2018        .       MOVS     r0,#0x18
        0x0000140e:    74e0        .t      STRB     r0,[r4,#0x13]
        0x00001410:    8225        %.      STRH     r5,[r4,#0x10]
        0x00001412:    7ca1        .|      LDRB     r1,[r4,#0x12]
        0x00001414:    e038        8.      B        0x1488 ; I2C0_IRQHandler + 252
        0x00001416:    2110        .!      MOVS     r1,#0x10
        0x00001418:    483a        :H      LDR      r0,[pc,#232] ; [0x1504] = 0x40010000
        0x0000141a:    f000fd8d    ....    BL       TIMER_Delay ; 0x1f38
        0x0000141e:    8920         .      LDRH     r0,[r4,#8]
        0x00001420:    2800        .(      CMP      r0,#0
        0x00001422:    d061        a.      BEQ      0x14e8 ; I2C0_IRQHandler + 348
        0x00001424:    2028        (       MOVS     r0,#0x28
        0x00001426:    74e0        .t      STRB     r0,[r4,#0x13]
        0x00001428:    8225        %.      STRH     r5,[r4,#0x10]
        0x0000142a:    6820         h      LDR      r0,[r4,#0]
        0x0000142c:    7801        .x      LDRB     r1,[r0,#0]
        0x0000142e:    4630        0F      MOV      r0,r6
        0x00001430:    f000f966    ..f.    BL       I2C_SetData ; 0x1700
        0x00001434:    81a7        ..      STRH     r7,[r4,#0xc]
        0x00001436:    9500        ..      STR      r5,[sp,#0]
        0x00001438:    e052        R.      B        0x14e0 ; I2C0_IRQHandler + 340
        0x0000143a:    4630        0F      MOV      r0,r6
        0x0000143c:    f000f962    ..b.    BL       I2C_Trigger ; 0x1704
        0x00001440:    bdf8        ..      POP      {r3-r7,pc}
        0x00001442:    89a0        ..      LDRH     r0,[r4,#0xc]
        0x00001444:    8921        !.      LDRH     r1,[r4,#8]
        0x00001446:    4281        .B      CMP      r1,r0
        0x00001448:    d90b        ..      BLS      0x1462 ; I2C0_IRQHandler + 214
        0x0000144a:    2128        (!      MOVS     r1,#0x28
        0x0000144c:    74e1        .t      STRB     r1,[r4,#0x13]
        0x0000144e:    8225        %.      STRH     r5,[r4,#0x10]
        0x00001450:    6821        !h      LDR      r1,[r4,#0]
        0x00001452:    5c09        .\      LDRB     r1,[r1,r0]
        0x00001454:    4630        0F      MOV      r0,r6
        0x00001456:    f000f953    ..S.    BL       I2C_SetData ; 0x1700
        0x0000145a:    89a1        ..      LDRH     r1,[r4,#0xc]
        0x0000145c:    1c49        I.      ADDS     r1,r1,#1
        0x0000145e:    81a1        ..      STRH     r1,[r4,#0xc]
        0x00001460:    e7e9        ..      B        0x1436 ; I2C0_IRQHandler + 170
        0x00001462:    8960        `.      LDRH     r0,[r4,#0xa]
        0x00001464:    2800        .(      CMP      r0,#0
        0x00001466:    d03f        ?.      BEQ      0x14e8 ; I2C0_IRQHandler + 348
        0x00001468:    2010        .       MOVS     r0,#0x10
        0x0000146a:    74e0        .t      STRB     r0,[r4,#0x13]
        0x0000146c:    8225        %.      STRH     r5,[r4,#0x10]
        0x0000146e:    2301        .#      MOVS     r3,#1
        0x00001470:    2200        ."      MOVS     r2,#0
        0x00001472:    4619        .F      MOV      r1,r3
        0x00001474:    9500        ..      STR      r5,[sp,#0]
        0x00001476:    e7e0        ..      B        0x143a ; I2C0_IRQHandler + 174
        0x00001478:    8960        `.      LDRH     r0,[r4,#0xa]
        0x0000147a:    2800        .(      CMP      r0,#0
        0x0000147c:    d034        4.      BEQ      0x14e8 ; I2C0_IRQHandler + 348
        0x0000147e:    2040        @       MOVS     r0,#0x40
        0x00001480:    74e0        .t      STRB     r0,[r4,#0x13]
        0x00001482:    8225        %.      STRH     r5,[r4,#0x10]
        0x00001484:    7ca1        .|      LDRB     r1,[r4,#0x12]
        0x00001486:    4339        9C      ORRS     r1,r1,r7
        0x00001488:    4630        0F      MOV      r0,r6
        0x0000148a:    f000f939    ..9.    BL       I2C_SetData ; 0x1700
        0x0000148e:    e7d2        ..      B        0x1436 ; I2C0_IRQHandler + 170
        0x00001490:    8960        `.      LDRH     r0,[r4,#0xa]
        0x00001492:    2800        .(      CMP      r0,#0
        0x00001494:    d028        (.      BEQ      0x14e8 ; I2C0_IRQHandler + 348
        0x00001496:    74e1        .t      STRB     r1,[r4,#0x13]
        0x00001498:    8225        %.      STRH     r5,[r4,#0x10]
        0x0000149a:    8960        `.      LDRH     r0,[r4,#0xa]
        0x0000149c:    2801        .(      CMP      r0,#1
        0x0000149e:    d0ca        ..      BEQ      0x1436 ; I2C0_IRQHandler + 170
        0x000014a0:    9700        ..      STR      r7,[sp,#0]
        0x000014a2:    e01d        ..      B        0x14e0 ; I2C0_IRQHandler + 340
        0x000014a4:    4620         F      MOV      r0,r4
        0x000014a6:    89e4        ..      LDRH     r4,[r4,#0xe]
        0x000014a8:    6842        Bh      LDR      r2,[r0,#4]
        0x000014aa:    9200        ..      STR      r2,[sp,#0]
        0x000014ac:    8943        C.      LDRH     r3,[r0,#0xa]
        0x000014ae:    42a3        .B      CMP      r3,r4
        0x000014b0:    d91a        ..      BLS      0x14e8 ; I2C0_IRQHandler + 348
        0x000014b2:    8942        B.      LDRH     r2,[r0,#0xa]
        0x000014b4:    1b12        ..      SUBS     r2,r2,r4
        0x000014b6:    2a02        .*      CMP      r2,#2
        0x000014b8:    d100        ..      BNE      0x14bc ; I2C0_IRQHandler + 304
        0x000014ba:    2158        X!      MOVS     r1,#0x58
        0x000014bc:    74c1        .t      STRB     r1,[r0,#0x13]
        0x000014be:    2100        .!      MOVS     r1,#0
        0x000014c0:    4605        .F      MOV      r5,r0
        0x000014c2:    8201        ..      STRH     r1,[r0,#0x10]
        0x000014c4:    4630        0F      MOV      r0,r6
        0x000014c6:    f000f8f9    ....    BL       I2C_GetData ; 0x16bc
        0x000014ca:    9900        ..      LDR      r1,[sp,#0]
        0x000014cc:    5508        .U      STRB     r0,[r1,r4]
        0x000014ce:    89e8        ..      LDRH     r0,[r5,#0xe]
        0x000014d0:    1c40        @.      ADDS     r0,r0,#1
        0x000014d2:    81e8        ..      STRH     r0,[r5,#0xe]
        0x000014d4:    8968        h.      LDRH     r0,[r5,#0xa]
        0x000014d6:    1b00        ..      SUBS     r0,r0,r4
        0x000014d8:    2802        .(      CMP      r0,#2
        0x000014da:    d1e1        ..      BNE      0x14a0 ; I2C0_IRQHandler + 276
        0x000014dc:    2000        .       MOVS     r0,#0
        0x000014de:    9000        ..      STR      r0,[sp,#0]
        0x000014e0:    2301        .#      MOVS     r3,#1
        0x000014e2:    2200        ."      MOVS     r2,#0
        0x000014e4:    4611        .F      MOV      r1,r2
        0x000014e6:    e7a8        ..      B        0x143a ; I2C0_IRQHandler + 174
        0x000014e8:    f7fffe06    ....    BL       Hal_I2c0_Stop ; 0x10f8
        0x000014ec:    bdf8        ..      POP      {r3-r7,pc}
    $d
        0x000014ee:    0000        ..      DCW    0
        0x000014f0:    40020000    ...@    DCD    1073872896
        0x000014f4:    e000e280    ....    DCD    3758154368
        0x000014f8:    20000448    H..     DCD    536872008
        0x000014fc:    00001388    ....    DCD    5000
        0x00001500:    20000038    8..     DCD    536870968
        0x00001504:    40010000    ...@    DCD    1073807360
    $t
    i.I2C1_IRQHandler
    I2C1_IRQHandler
        0x00001508:    b5f8        ..      PUSH     {r3-r7,lr}
        0x0000150a:    4d59        YM      LDR      r5,[pc,#356] ; [0x1670] = 0x40120000
        0x0000150c:    68e8        .h      LDR      r0,[r5,#0xc]
        0x0000150e:    2601        .&      MOVS     r6,#1
        0x00001510:    9000        ..      STR      r0,[sp,#0]
        0x00001512:    4958        XI      LDR      r1,[pc,#352] ; [0x1674] = 0xe000e280
        0x00001514:    04f0        ..      LSLS     r0,r6,#19
        0x00001516:    6008        .`      STR      r0,[r1,#0]
        0x00001518:    6968        hi      LDR      r0,[r5,#0x14]
        0x0000151a:    43c0        .C      MVNS     r0,r0
        0x0000151c:    07c0        ..      LSLS     r0,r0,#31
        0x0000151e:    d026        &.      BEQ      0x156e ; I2C1_IRQHandler + 102
        0x00001520:    4c55        UL      LDR      r4,[pc,#340] ; [0x1678] = 0x20000448
        0x00001522:    7ce1        .|      LDRB     r1,[r4,#0x13]
        0x00001524:    9800        ..      LDR      r0,[sp,#0]
        0x00001526:    4f55        UO      LDR      r7,[pc,#340] ; [0x167c] = 0x20000038
        0x00001528:    4281        .B      CMP      r1,r0
        0x0000152a:    d00f        ..      BEQ      0x154c ; I2C1_IRQHandler + 68
        0x0000152c:    8a20         .      LDRH     r0,[r4,#0x10]
        0x0000152e:    1c40        @.      ADDS     r0,r0,#1
        0x00001530:    8220         .      STRH     r0,[r4,#0x10]
        0x00001532:    8a20         .      LDRH     r0,[r4,#0x10]
        0x00001534:    4952        RI      LDR      r1,[pc,#328] ; [0x1680] = 0x1388
        0x00001536:    4288        .B      CMP      r0,r1
        0x00001538:    d908        ..      BLS      0x154c ; I2C1_IRQHandler + 68
        0x0000153a:    7838        8x      LDRB     r0,[r7,#0]
        0x0000153c:    0740        @.      LSLS     r0,r0,#29
        0x0000153e:    d403        ..      BMI      0x1548 ; I2C1_IRQHandler + 64
        0x00001540:    7838        8x      LDRB     r0,[r7,#0]
        0x00001542:    2104        .!      MOVS     r1,#4
        0x00001544:    4308        .C      ORRS     r0,r0,r1
        0x00001546:    7038        8p      STRB     r0,[r7,#0]
        0x00001548:    f7fffdee    ....    BL       Hal_I2c1_Stop ; 0x1128
        0x0000154c:    9800        ..      LDR      r0,[sp,#0]
        0x0000154e:    0741        A.      LSLS     r1,r0,#29
        0x00001550:    0f49        I.      LSRS     r1,r1,#29
        0x00001552:    d131        1.      BNE      0x15b8 ; I2C1_IRQHandler + 176
        0x00001554:    10c2        ..      ASRS     r2,r0,#3
        0x00001556:    2128        (!      MOVS     r1,#0x28
        0x00001558:    2000        .       MOVS     r0,#0
        0x0000155a:    0013        ..      MOVS     r3,r2
        0x0000155c:    f001fa94    ....    BL       __ARM_common_switch8 ; 0x2a88
    $d
        0x00001560:    49130b0c    ...I    DCD    1225984780
        0x00001564:    0b2d0b1c    ..-.    DCD    187501340
        0x00001568:    650b572c    ,W.e    DCD    1695242028
        0x0000156c:    2c84        .,      DCW    11396
    $t
        0x0000156e:    4628        (F      MOV      r0,r5
        0x00001570:    f000f888    ....    BL       I2C_ClearTimeoutFlag ; 0x1684
        0x00001574:    e078        x.      B        0x1668 ; I2C1_IRQHandler + 352
        0x00001576:    7838        8x      LDRB     r0,[r7,#0]
        0x00001578:    0740        @.      LSLS     r0,r0,#29
        0x0000157a:    d475        u.      BMI      0x1668 ; I2C1_IRQHandler + 352
        0x0000157c:    7838        8x      LDRB     r0,[r7,#0]
        0x0000157e:    2104        .!      MOVS     r1,#4
        0x00001580:    4308        .C      ORRS     r0,r0,r1
        0x00001582:    7038        8p      STRB     r0,[r7,#0]
        0x00001584:    e070        p.      B        0x1668 ; I2C1_IRQHandler + 352
        0x00001586:    2118        .!      MOVS     r1,#0x18
        0x00001588:    74e1        .t      STRB     r1,[r4,#0x13]
        0x0000158a:    4606        .F      MOV      r6,r0
        0x0000158c:    8220         .      STRH     r0,[r4,#0x10]
        0x0000158e:    7ca1        .|      LDRB     r1,[r4,#0x12]
        0x00001590:    4628        (F      MOV      r0,r5
        0x00001592:    f000f8b5    ....    BL       I2C_SetData ; 0x1700
        0x00001596:    e01f        ..      B        0x15d8 ; I2C1_IRQHandler + 208
        0x00001598:    8922        ".      LDRH     r2,[r4,#8]
        0x0000159a:    2a00        .*      CMP      r2,#0
        0x0000159c:    d064        d.      BEQ      0x1668 ; I2C1_IRQHandler + 352
        0x0000159e:    74e1        .t      STRB     r1,[r4,#0x13]
        0x000015a0:    4607        .F      MOV      r7,r0
        0x000015a2:    8220         .      STRH     r0,[r4,#0x10]
        0x000015a4:    6820         h      LDR      r0,[r4,#0]
        0x000015a6:    7801        .x      LDRB     r1,[r0,#0]
        0x000015a8:    4628        (F      MOV      r0,r5
        0x000015aa:    f000f8a9    ....    BL       I2C_SetData ; 0x1700
        0x000015ae:    81a6        ..      STRH     r6,[r4,#0xc]
        0x000015b0:    e02b        +.      B        0x160a ; I2C1_IRQHandler + 258
        0x000015b2:    4628        (F      MOV      r0,r5
        0x000015b4:    f000f8a6    ....    BL       I2C_Trigger ; 0x1704
        0x000015b8:    bdf8        ..      POP      {r3-r7,pc}
        0x000015ba:    89a2        ..      LDRH     r2,[r4,#0xc]
        0x000015bc:    8923        #.      LDRH     r3,[r4,#8]
        0x000015be:    4293        .B      CMP      r3,r2
        0x000015c0:    d90c        ..      BLS      0x15dc ; I2C1_IRQHandler + 212
        0x000015c2:    74e1        .t      STRB     r1,[r4,#0x13]
        0x000015c4:    4606        .F      MOV      r6,r0
        0x000015c6:    8220         .      STRH     r0,[r4,#0x10]
        0x000015c8:    6820         h      LDR      r0,[r4,#0]
        0x000015ca:    5c81        .\      LDRB     r1,[r0,r2]
        0x000015cc:    4628        (F      MOV      r0,r5
        0x000015ce:    f000f897    ....    BL       I2C_SetData ; 0x1700
        0x000015d2:    89a1        ..      LDRH     r1,[r4,#0xc]
        0x000015d4:    1c49        I.      ADDS     r1,r1,#1
        0x000015d6:    81a1        ..      STRH     r1,[r4,#0xc]
        0x000015d8:    9600        ..      STR      r6,[sp,#0]
        0x000015da:    e022        ".      B        0x1622 ; I2C1_IRQHandler + 282
        0x000015dc:    8961        a.      LDRH     r1,[r4,#0xa]
        0x000015de:    2900        .)      CMP      r1,#0
        0x000015e0:    d042        B.      BEQ      0x1668 ; I2C1_IRQHandler + 352
        0x000015e2:    2110        .!      MOVS     r1,#0x10
        0x000015e4:    74e1        .t      STRB     r1,[r4,#0x13]
        0x000015e6:    8220         .      STRH     r0,[r4,#0x10]
        0x000015e8:    2301        .#      MOVS     r3,#1
        0x000015ea:    2200        ."      MOVS     r2,#0
        0x000015ec:    4619        .F      MOV      r1,r3
        0x000015ee:    9000        ..      STR      r0,[sp,#0]
        0x000015f0:    e7df        ..      B        0x15b2 ; I2C1_IRQHandler + 170
        0x000015f2:    8961        a.      LDRH     r1,[r4,#0xa]
        0x000015f4:    2900        .)      CMP      r1,#0
        0x000015f6:    d037        7.      BEQ      0x1668 ; I2C1_IRQHandler + 352
        0x000015f8:    2140        @!      MOVS     r1,#0x40
        0x000015fa:    74e1        .t      STRB     r1,[r4,#0x13]
        0x000015fc:    4607        .F      MOV      r7,r0
        0x000015fe:    8220         .      STRH     r0,[r4,#0x10]
        0x00001600:    7ca1        .|      LDRB     r1,[r4,#0x12]
        0x00001602:    4628        (F      MOV      r0,r5
        0x00001604:    4331        1C      ORRS     r1,r1,r6
        0x00001606:    f000f87b    ..{.    BL       I2C_SetData ; 0x1700
        0x0000160a:    9700        ..      STR      r7,[sp,#0]
        0x0000160c:    e009        ..      B        0x1622 ; I2C1_IRQHandler + 282
        0x0000160e:    8961        a.      LDRH     r1,[r4,#0xa]
        0x00001610:    2900        .)      CMP      r1,#0
        0x00001612:    d029        ).      BEQ      0x1668 ; I2C1_IRQHandler + 352
        0x00001614:    2150        P!      MOVS     r1,#0x50
        0x00001616:    74e1        .t      STRB     r1,[r4,#0x13]
        0x00001618:    8220         .      STRH     r0,[r4,#0x10]
        0x0000161a:    8961        a.      LDRH     r1,[r4,#0xa]
        0x0000161c:    2901        .)      CMP      r1,#1
        0x0000161e:    d1db        ..      BNE      0x15d8 ; I2C1_IRQHandler + 208
        0x00001620:    9000        ..      STR      r0,[sp,#0]
        0x00001622:    2301        .#      MOVS     r3,#1
        0x00001624:    2200        ."      MOVS     r2,#0
        0x00001626:    4611        .F      MOV      r1,r2
        0x00001628:    e7c3        ..      B        0x15b2 ; I2C1_IRQHandler + 170
        0x0000162a:    89e7        ..      LDRH     r7,[r4,#0xe]
        0x0000162c:    6861        ah      LDR      r1,[r4,#4]
        0x0000162e:    9100        ..      STR      r1,[sp,#0]
        0x00001630:    8961        a.      LDRH     r1,[r4,#0xa]
        0x00001632:    42b9        .B      CMP      r1,r7
        0x00001634:    d918        ..      BLS      0x1668 ; I2C1_IRQHandler + 352
        0x00001636:    8961        a.      LDRH     r1,[r4,#0xa]
        0x00001638:    1bc9        ..      SUBS     r1,r1,r7
        0x0000163a:    2902        .)      CMP      r1,#2
        0x0000163c:    d012        ..      BEQ      0x1664 ; I2C1_IRQHandler + 348
        0x0000163e:    2150        P!      MOVS     r1,#0x50
        0x00001640:    74e1        .t      STRB     r1,[r4,#0x13]
        0x00001642:    2000        .       MOVS     r0,#0
        0x00001644:    8220         .      STRH     r0,[r4,#0x10]
        0x00001646:    4628        (F      MOV      r0,r5
        0x00001648:    f000f838    ..8.    BL       I2C_GetData ; 0x16bc
        0x0000164c:    4601        .F      MOV      r1,r0
        0x0000164e:    9800        ..      LDR      r0,[sp,#0]
        0x00001650:    55c1        .U      STRB     r1,[r0,r7]
        0x00001652:    89e0        ..      LDRH     r0,[r4,#0xe]
        0x00001654:    1c40        @.      ADDS     r0,r0,#1
        0x00001656:    81e0        ..      STRH     r0,[r4,#0xe]
        0x00001658:    8960        `.      LDRH     r0,[r4,#0xa]
        0x0000165a:    1bc0        ..      SUBS     r0,r0,r7
        0x0000165c:    2802        .(      CMP      r0,#2
        0x0000165e:    d1bb        ..      BNE      0x15d8 ; I2C1_IRQHandler + 208
        0x00001660:    2000        .       MOVS     r0,#0
        0x00001662:    e7dd        ..      B        0x1620 ; I2C1_IRQHandler + 280
        0x00001664:    2158        X!      MOVS     r1,#0x58
        0x00001666:    e7eb        ..      B        0x1640 ; I2C1_IRQHandler + 312
        0x00001668:    f7fffd5e    ..^.    BL       Hal_I2c1_Stop ; 0x1128
        0x0000166c:    bdf8        ..      POP      {r3-r7,pc}
    $d
        0x0000166e:    0000        ..      DCW    0
        0x00001670:    40120000    ...@    DCD    1074921472
        0x00001674:    e000e280    ....    DCD    3758154368
        0x00001678:    20000448    H..     DCD    536872008
        0x0000167c:    20000038    8..     DCD    536870968
        0x00001680:    00001388    ....    DCD    5000
    $t
    i.I2C_ClearTimeoutFlag
    I2C_ClearTimeoutFlag
        0x00001684:    6941        Ai      LDR      r1,[r0,#0x14]
        0x00001686:    2201        ."      MOVS     r2,#1
        0x00001688:    4311        .C      ORRS     r1,r1,r2
        0x0000168a:    6141        Aa      STR      r1,[r0,#0x14]
        0x0000168c:    4770        pG      BX       lr
    i.I2C_DisableInt
    I2C_DisableInt
        0x0000168e:    6801        .h      LDR      r1,[r0,#0]
        0x00001690:    2280        ."      MOVS     r2,#0x80
        0x00001692:    4391        .C      BICS     r1,r1,r2
        0x00001694:    6001        .`      STR      r1,[r0,#0]
        0x00001696:    4770        pG      BX       lr
    i.I2C_EnableInt
    I2C_EnableInt
        0x00001698:    6801        .h      LDR      r1,[r0,#0]
        0x0000169a:    2280        ."      MOVS     r2,#0x80
        0x0000169c:    4311        .C      ORRS     r1,r1,r2
        0x0000169e:    6001        .`      STR      r1,[r0,#0]
        0x000016a0:    4770        pG      BX       lr
    i.I2C_EnableTimeout
    I2C_EnableTimeout
        0x000016a2:    2202        ."      MOVS     r2,#2
        0x000016a4:    2900        .)      CMP      r1,#0
        0x000016a6:    6941        Ai      LDR      r1,[r0,#0x14]
        0x000016a8:    d001        ..      BEQ      0x16ae ; I2C_EnableTimeout + 12
        0x000016aa:    4311        .C      ORRS     r1,r1,r2
        0x000016ac:    e000        ..      B        0x16b0 ; I2C_EnableTimeout + 14
        0x000016ae:    4391        .C      BICS     r1,r1,r2
        0x000016b0:    6141        Aa      STR      r1,[r0,#0x14]
        0x000016b2:    6941        Ai      LDR      r1,[r0,#0x14]
        0x000016b4:    2204        ."      MOVS     r2,#4
        0x000016b6:    4311        .C      ORRS     r1,r1,r2
        0x000016b8:    6141        Aa      STR      r1,[r0,#0x14]
        0x000016ba:    4770        pG      BX       lr
    i.I2C_GetData
    I2C_GetData
        0x000016bc:    6880        .h      LDR      r0,[r0,#8]
        0x000016be:    b2c0        ..      UXTB     r0,r0
        0x000016c0:    4770        pG      BX       lr
    i.I2C_GetStatus
    I2C_GetStatus
        0x000016c2:    68c0        .h      LDR      r0,[r0,#0xc]
        0x000016c4:    4770        pG      BX       lr
        0x000016c6:    0000        ..      MOVS     r0,r0
    i.I2C_Open
    I2C_Open
        0x000016c8:    b570        p.      PUSH     {r4-r6,lr}
        0x000016ca:    4d0c        .M      LDR      r5,[pc,#48] ; [0x16fc] = 0x20000000
        0x000016cc:    4604        .F      MOV      r4,r0
        0x000016ce:    6828        (h      LDR      r0,[r5,#0]
        0x000016d0:    220a        ."      MOVS     r2,#0xa
        0x000016d2:    0089        ..      LSLS     r1,r1,#2
        0x000016d4:    4350        PC      MULS     r0,r2,r0
        0x000016d6:    f7fefec9    ....    BL       __aeabi_uidiv ; 0x46c
        0x000016da:    210a        .!      MOVS     r1,#0xa
        0x000016dc:    1d40        @.      ADDS     r0,r0,#5
        0x000016de:    f7fefec5    ....    BL       __aeabi_uidiv ; 0x46c
        0x000016e2:    1e40        @.      SUBS     r0,r0,#1
        0x000016e4:    6120         a      STR      r0,[r4,#0x10]
        0x000016e6:    6821        !h      LDR      r1,[r4,#0]
        0x000016e8:    2240        @"      MOVS     r2,#0x40
        0x000016ea:    4311        .C      ORRS     r1,r1,r2
        0x000016ec:    6021        !`      STR      r1,[r4,#0]
        0x000016ee:    0081        ..      LSLS     r1,r0,#2
        0x000016f0:    1d09        ..      ADDS     r1,r1,#4
        0x000016f2:    6828        (h      LDR      r0,[r5,#0]
        0x000016f4:    f7fefeba    ....    BL       __aeabi_uidiv ; 0x46c
        0x000016f8:    bd70        p.      POP      {r4-r6,pc}
    $d
        0x000016fa:    0000        ..      DCW    0
        0x000016fc:    20000000    ...     DCD    536870912
    $t
    i.I2C_SetData
    I2C_SetData
        0x00001700:    6081        .`      STR      r1,[r0,#8]
        0x00001702:    4770        pG      BX       lr
    i.I2C_Trigger
    I2C_Trigger
        0x00001704:    b530        0.      PUSH     {r4,r5,lr}
        0x00001706:    2400        .$      MOVS     r4,#0
        0x00001708:    9d03        ..      LDR      r5,[sp,#0xc]
        0x0000170a:    2900        .)      CMP      r1,#0
        0x0000170c:    d000        ..      BEQ      0x1710 ; I2C_Trigger + 12
        0x0000170e:    2420         $      MOVS     r4,#0x20
        0x00001710:    2a00        .*      CMP      r2,#0
        0x00001712:    d001        ..      BEQ      0x1718 ; I2C_Trigger + 20
        0x00001714:    2110        .!      MOVS     r1,#0x10
        0x00001716:    430c        .C      ORRS     r4,r4,r1
        0x00001718:    2b00        .+      CMP      r3,#0
        0x0000171a:    d001        ..      BEQ      0x1720 ; I2C_Trigger + 28
        0x0000171c:    2108        .!      MOVS     r1,#8
        0x0000171e:    430c        .C      ORRS     r4,r4,r1
        0x00001720:    2d00        .-      CMP      r5,#0
        0x00001722:    d001        ..      BEQ      0x1728 ; I2C_Trigger + 36
        0x00001724:    2104        .!      MOVS     r1,#4
        0x00001726:    430c        .C      ORRS     r4,r4,r1
        0x00001728:    6801        .h      LDR      r1,[r0,#0]
        0x0000172a:    223c        <"      MOVS     r2,#0x3c
        0x0000172c:    4391        .C      BICS     r1,r1,r2
        0x0000172e:    4321        !C      ORRS     r1,r1,r4
        0x00001730:    6001        .`      STR      r1,[r0,#0]
        0x00001732:    bd30        0.      POP      {r4,r5,pc}
    i.IoKeyProcess
    IoKeyProcess
        0x00001734:    b510        ..      PUSH     {r4,lr}
        0x00001736:    4c18        .L      LDR      r4,[pc,#96] ; [0x1798] = 0x200001f0
        0x00001738:    7820         x      LDRB     r0,[r4,#0]
        0x0000173a:    2800        .(      CMP      r0,#0
        0x0000173c:    d025        %.      BEQ      0x178a ; IoKeyProcess + 86
        0x0000173e:    28f0        .(      CMP      r0,#0xf0
        0x00001740:    d012        ..      BEQ      0x1768 ; IoKeyProcess + 52
        0x00001742:    28f1        .(      CMP      r0,#0xf1
        0x00001744:    d016        ..      BEQ      0x1774 ; IoKeyProcess + 64
        0x00001746:    28f3        .(      CMP      r0,#0xf3
        0x00001748:    d002        ..      BEQ      0x1750 ; IoKeyProcess + 28
        0x0000174a:    28f4        .(      CMP      r0,#0xf4
        0x0000174c:    d11d        ..      BNE      0x178a ; IoKeyProcess + 86
        0x0000174e:    e005        ..      B        0x175c ; IoKeyProcess + 40
        0x00001750:    a012        ..      ADR      r0,{pc}+0x4c ; 0x179c
        0x00001752:    f7fefd57    ..W.    BL       __2printf ; 0x204
        0x00001756:    f001fd5f    .._.    BL       drv_wifi_4g_switch_cmd_send ; 0x3218
        0x0000175a:    e016        ..      B        0x178a ; IoKeyProcess + 86
        0x0000175c:    a013        ..      ADR      r0,{pc}+0x50 ; 0x17ac
        0x0000175e:    f7fefd51    ..Q.    BL       __2printf ; 0x204
        0x00001762:    f001fcf9    ....    BL       drv_pairing_cmd_send ; 0x3158
        0x00001766:    e010        ..      B        0x178a ; IoKeyProcess + 86
        0x00001768:    a014        ..      ADR      r0,{pc}+0x54 ; 0x17bc
        0x0000176a:    f7fefd4b    ..K.    BL       __2printf ; 0x204
        0x0000176e:    f002f923    ..#.    BL       srv_key_mode_handler ; 0x39b8
        0x00001772:    e00a        ..      B        0x178a ; IoKeyProcess + 86
        0x00001774:    a015        ..      ADR      r0,{pc}+0x58 ; 0x17cc
        0x00001776:    f7fefd45    ..E.    BL       __2printf ; 0x204
        0x0000177a:    4818        .H      LDR      r0,[pc,#96] ; [0x17dc] = 0x20000a14
        0x0000177c:    7940        @y      LDRB     r0,[r0,#5]
        0x0000177e:    280e        .(      CMP      r0,#0xe
        0x00001780:    d006        ..      BEQ      0x1790 ; IoKeyProcess + 92
        0x00001782:    f000f8d9    ....    BL       PowerOff ; 0x1938
        0x00001786:    f000fb75    ..u.    BL       SysIdle ; 0x1e74
        0x0000178a:    2000        .       MOVS     r0,#0
        0x0000178c:    7020         p      STRB     r0,[r4,#0]
        0x0000178e:    bd10        ..      POP      {r4,pc}
        0x00001790:    f000fb40    ..@.    BL       SYS_Status ; 0x1e14
        0x00001794:    e7f9        ..      B        0x178a ; IoKeyProcess + 86
    $d
        0x00001796:    0000        ..      DCW    0
        0x00001798:    200001f0    ...     DCD    536871408
        0x0000179c:    69726170    pari    DCD    1769103728
        0x000017a0:    79656b20     key    DCD    2036689696
        0x000017a4:    0a707320     sp.    DCD    175141664
        0x000017a8:    00000000    ....    DCD    0
        0x000017ac:    69726170    pari    DCD    1769103728
        0x000017b0:    79656b20     key    DCD    2036689696
        0x000017b4:    0a706320     cp.    DCD    175137568
        0x000017b8:    00000000    ....    DCD    0
        0x000017bc:    65776f70    powe    DCD    1702326128
        0x000017c0:    656b2072    r ke    DCD    1701519474
        0x000017c4:    70732079    y sp    DCD    1886593145
        0x000017c8:    0000000a    ....    DCD    10
        0x000017cc:    65776f70    powe    DCD    1702326128
        0x000017d0:    656b2072    r ke    DCD    1701519474
        0x000017d4:    70632079    y cp    DCD    1885544569
        0x000017d8:    0000000a    ....    DCD    10
        0x000017dc:    20000a14    ...     DCD    536873492
    $t
    i.Ircordpro
    Ircordpro
        0x000017e0:    b5f8        ..      PUSH     {r3-r7,lr}
        0x000017e2:    2000        .       MOVS     r0,#0
        0x000017e4:    4d26        &M      LDR      r5,[pc,#152] ; [0x1880] = 0x200009d2
        0x000017e6:    4f27        'O      LDR      r7,[pc,#156] ; [0x1884] = 0x200001b8
        0x000017e8:    4602        .F      MOV      r2,r0
        0x000017ea:    4603        .F      MOV      r3,r0
        0x000017ec:    2680        .&      MOVS     r6,#0x80
        0x000017ee:    2101        .!      MOVS     r1,#1
        0x000017f0:    5cac        .\      LDRB     r4,[r5,r2]
        0x000017f2:    2c0f        .,      CMP      r4,#0xf
        0x000017f4:    d900        ..      BLS      0x17f8 ; Ircordpro + 24
        0x000017f6:    4330        0C      ORRS     r0,r0,r6
        0x000017f8:    2908        .)      CMP      r1,#8
        0x000017fa:    d200        ..      BCS      0x17fe ; Ircordpro + 30
        0x000017fc:    0840        @.      LSRS     r0,r0,#1
        0x000017fe:    1c52        R.      ADDS     r2,r2,#1
        0x00001800:    1c49        I.      ADDS     r1,r1,#1
        0x00001802:    b2c9        ..      UXTB     r1,r1
        0x00001804:    b2d2        ..      UXTB     r2,r2
        0x00001806:    2908        .)      CMP      r1,#8
        0x00001808:    d9f2        ..      BLS      0x17f0 ; Ircordpro + 16
        0x0000180a:    54f8        .T      STRB     r0,[r7,r3]
        0x0000180c:    1c5b        [.      ADDS     r3,r3,#1
        0x0000180e:    2000        .       MOVS     r0,#0
        0x00001810:    b2db        ..      UXTB     r3,r3
        0x00001812:    2b04        .+      CMP      r3,#4
        0x00001814:    d3eb        ..      BCC      0x17ee ; Ircordpro + 14
        0x00001816:    491b        .I      LDR      r1,[pc,#108] ; [0x1884] = 0x200001b8
        0x00001818:    2001        .       MOVS     r0,#1
        0x0000181a:    390c        .9      SUBS     r1,r1,#0xc
        0x0000181c:    7048        Hp      STRB     r0,[r1,#1]
        0x0000181e:    7838        8x      LDRB     r0,[r7,#0]
        0x00001820:    2812        .(      CMP      r0,#0x12
        0x00001822:    d002        ..      BEQ      0x182a ; Ircordpro + 74
        0x00001824:    280c        .(      CMP      r0,#0xc
        0x00001826:    d011        ..      BEQ      0x184c ; Ircordpro + 108
        0x00001828:    e027        '.      B        0x187a ; Ircordpro + 154
        0x0000182a:    7878        xx      LDRB     r0,[r7,#1]
        0x0000182c:    2834        4(      CMP      r0,#0x34
        0x0000182e:    d124        $.      BNE      0x187a ; Ircordpro + 154
        0x00001830:    4814        .H      LDR      r0,[pc,#80] ; [0x1884] = 0x200001b8
        0x00001832:    78ba        .x      LDRB     r2,[r7,#2]
        0x00001834:    2100        .!      MOVS     r1,#0
        0x00001836:    3008        .0      ADDS     r0,r0,#8
        0x00001838:    004b        K.      LSLS     r3,r1,#1
        0x0000183a:    181b        ..      ADDS     r3,r3,r0
        0x0000183c:    785b        [x      LDRB     r3,[r3,#1]
        0x0000183e:    4293        .B      CMP      r3,r2
        0x00001840:    d010        ..      BEQ      0x1864 ; Ircordpro + 132
        0x00001842:    1c49        I.      ADDS     r1,r1,#1
        0x00001844:    b2c9        ..      UXTB     r1,r1
        0x00001846:    290b        .)      CMP      r1,#0xb
        0x00001848:    d3f6        ..      BCC      0x1838 ; Ircordpro + 88
        0x0000184a:    e016        ..      B        0x187a ; Ircordpro + 154
        0x0000184c:    7878        xx      LDRB     r0,[r7,#1]
        0x0000184e:    28f3        .(      CMP      r0,#0xf3
        0x00001850:    d113        ..      BNE      0x187a ; Ircordpro + 154
        0x00001852:    480c        .H      LDR      r0,[pc,#48] ; [0x1884] = 0x200001b8
        0x00001854:    78ba        .x      LDRB     r2,[r7,#2]
        0x00001856:    2100        .!      MOVS     r1,#0
        0x00001858:    3020         0      ADDS     r0,r0,#0x20
        0x0000185a:    004b        K.      LSLS     r3,r1,#1
        0x0000185c:    181b        ..      ADDS     r3,r3,r0
        0x0000185e:    785b        [x      LDRB     r3,[r3,#1]
        0x00001860:    4293        .B      CMP      r3,r2
        0x00001862:    d106        ..      BNE      0x1872 ; Ircordpro + 146
        0x00001864:    004a        J.      LSLS     r2,r1,#1
        0x00001866:    5c84        .\      LDRB     r4,[r0,r2]
        0x00001868:    a007        ..      ADR      r0,{pc}+0x20 ; 0x1888
        0x0000186a:    f7fefccb    ....    BL       __2printf ; 0x204
        0x0000186e:    4620         F      MOV      r0,r4
        0x00001870:    bdf8        ..      POP      {r3-r7,pc}
        0x00001872:    1c49        I.      ADDS     r1,r1,#1
        0x00001874:    b2c9        ..      UXTB     r1,r1
        0x00001876:    290b        .)      CMP      r1,#0xb
        0x00001878:    d3ef        ..      BCC      0x185a ; Ircordpro + 122
        0x0000187a:    2000        .       MOVS     r0,#0
        0x0000187c:    bdf8        ..      POP      {r3-r7,pc}
    $d
        0x0000187e:    0000        ..      DCW    0
        0x00001880:    200009d2    ...     DCD    536873426
        0x00001884:    200001b8    ...     DCD    536871352
        0x00001888:    6b5f7269    ir_k    DCD    1801417321
        0x0000188c:    6e5f7965    ey_n    DCD    1851750757
        0x00001890:    253a6d75    um:%    DCD    624586101
        0x00001894:    00000a64    d...    DCD    2660
    $t
    i.IsTimeOut
    IsTimeOut
        0x00001898:    4904        .I      LDR      r1,[pc,#16] ; [0x18ac] = 0x200009f4
        0x0000189a:    6800        .h      LDR      r0,[r0,#0]
        0x0000189c:    6a89        .j      LDR      r1,[r1,#0x28]
        0x0000189e:    4281        .B      CMP      r1,r0
        0x000018a0:    d301        ..      BCC      0x18a6 ; IsTimeOut + 14
        0x000018a2:    2001        .       MOVS     r0,#1
        0x000018a4:    4770        pG      BX       lr
        0x000018a6:    2000        .       MOVS     r0,#0
        0x000018a8:    4770        pG      BX       lr
    $d
        0x000018aa:    0000        ..      DCW    0
        0x000018ac:    200009f4    ...     DCD    536873460
    $t
    i.NVIC_SetPriority
    NVIC_SetPriority
        0x000018b0:    0783        ..      LSLS     r3,r0,#30
        0x000018b2:    22ff        ."      MOVS     r2,#0xff
        0x000018b4:    0edb        ..      LSRS     r3,r3,#27
        0x000018b6:    409a        .@      LSLS     r2,r2,r3
        0x000018b8:    0789        ..      LSLS     r1,r1,#30
        0x000018ba:    0e09        ..      LSRS     r1,r1,#24
        0x000018bc:    4099        .@      LSLS     r1,r1,r3
        0x000018be:    2800        .(      CMP      r0,#0
        0x000018c0:    da0b        ..      BGE      0x18da ; NVIC_SetPriority + 42
        0x000018c2:    0700        ..      LSLS     r0,r0,#28
        0x000018c4:    0f00        ..      LSRS     r0,r0,#28
        0x000018c6:    3808        .8      SUBS     r0,r0,#8
        0x000018c8:    0883        ..      LSRS     r3,r0,#2
        0x000018ca:    4808        .H      LDR      r0,[pc,#32] ; [0x18ec] = 0xe000ed00
        0x000018cc:    009b        ..      LSLS     r3,r3,#2
        0x000018ce:    1818        ..      ADDS     r0,r3,r0
        0x000018d0:    69c3        .i      LDR      r3,[r0,#0x1c]
        0x000018d2:    4393        .C      BICS     r3,r3,r2
        0x000018d4:    430b        .C      ORRS     r3,r3,r1
        0x000018d6:    61c3        .a      STR      r3,[r0,#0x1c]
        0x000018d8:    4770        pG      BX       lr
        0x000018da:    0883        ..      LSRS     r3,r0,#2
        0x000018dc:    4804        .H      LDR      r0,[pc,#16] ; [0x18f0] = 0xe000e400
        0x000018de:    009b        ..      LSLS     r3,r3,#2
        0x000018e0:    1818        ..      ADDS     r0,r3,r0
        0x000018e2:    6803        .h      LDR      r3,[r0,#0]
        0x000018e4:    4393        .C      BICS     r3,r3,r2
        0x000018e6:    430b        .C      ORRS     r3,r3,r1
        0x000018e8:    6003        .`      STR      r3,[r0,#0]
        0x000018ea:    4770        pG      BX       lr
    $d
        0x000018ec:    e000ed00    ....    DCD    3758157056
        0x000018f0:    e000e400    ....    DCD    3758154752
    $t
    i.NVIC_SetPriority
    NVIC_SetPriority
        0x000018f4:    0783        ..      LSLS     r3,r0,#30
        0x000018f6:    22ff        ."      MOVS     r2,#0xff
        0x000018f8:    0edb        ..      LSRS     r3,r3,#27
        0x000018fa:    409a        .@      LSLS     r2,r2,r3
        0x000018fc:    0789        ..      LSLS     r1,r1,#30
        0x000018fe:    0e09        ..      LSRS     r1,r1,#24
        0x00001900:    4099        .@      LSLS     r1,r1,r3
        0x00001902:    2800        .(      CMP      r0,#0
        0x00001904:    da0b        ..      BGE      0x191e ; NVIC_SetPriority + 42
        0x00001906:    0700        ..      LSLS     r0,r0,#28
        0x00001908:    0f00        ..      LSRS     r0,r0,#28
        0x0000190a:    3808        .8      SUBS     r0,r0,#8
        0x0000190c:    0883        ..      LSRS     r3,r0,#2
        0x0000190e:    4808        .H      LDR      r0,[pc,#32] ; [0x1930] = 0xe000ed00
        0x00001910:    009b        ..      LSLS     r3,r3,#2
        0x00001912:    1818        ..      ADDS     r0,r3,r0
        0x00001914:    69c3        .i      LDR      r3,[r0,#0x1c]
        0x00001916:    4393        .C      BICS     r3,r3,r2
        0x00001918:    430b        .C      ORRS     r3,r3,r1
        0x0000191a:    61c3        .a      STR      r3,[r0,#0x1c]
        0x0000191c:    4770        pG      BX       lr
        0x0000191e:    0883        ..      LSRS     r3,r0,#2
        0x00001920:    4804        .H      LDR      r0,[pc,#16] ; [0x1934] = 0xe000e400
        0x00001922:    009b        ..      LSLS     r3,r3,#2
        0x00001924:    1818        ..      ADDS     r0,r3,r0
        0x00001926:    6803        .h      LDR      r3,[r0,#0]
        0x00001928:    4393        .C      BICS     r3,r3,r2
        0x0000192a:    430b        .C      ORRS     r3,r3,r1
        0x0000192c:    6003        .`      STR      r3,[r0,#0]
        0x0000192e:    4770        pG      BX       lr
    $d
        0x00001930:    e000ed00    ....    DCD    3758157056
        0x00001934:    e000e400    ....    DCD    3758154752
    $t
    i.PowerOff
    PowerOff
        0x00001938:    b510        ..      PUSH     {r4,lr}
        0x0000193a:    2200        ."      MOVS     r2,#0
        0x0000193c:    2115        .!      MOVS     r1,#0x15
        0x0000193e:    2007        .       MOVS     r0,#7
        0x00001940:    f001fa2e    ....    BL       drv_Cmd_Send2NCU031 ; 0x2da0
        0x00001944:    2000        .       MOVS     r0,#0
        0x00001946:    f000fc7f    ....    BL       TYM_drv_powerkeepon ; 0x2248
        0x0000194a:    2000        .       MOVS     r0,#0
        0x0000194c:    f7fffa48    ..H.    BL       Drv_4GMoudle_PowerUp ; 0xde0
        0x00001950:    f001fbbe    ....    BL       drv_led_init ; 0x30d0
        0x00001954:    f7fffab6    ....    BL       Drv_audio_powerdown ; 0xec4
        0x00001958:    bd10        ..      POP      {r4,pc}
        0x0000195a:    0000        ..      MOVS     r0,r0
    i.RTC_GetAlarmDateAndTime
    RTC_GetAlarmDateAndTime
        0x0000195c:    b5f8        ..      PUSH     {r3-r7,lr}
        0x0000195e:    4e3c        <N      LDR      r6,[pc,#240] ; [0x1a50] = 0x40008000
        0x00001960:    4604        .F      MOV      r4,r0
        0x00001962:    6970        pi      LDR      r0,[r6,#0x14]
        0x00001964:    07c0        ..      LSLS     r0,r0,#31
        0x00001966:    0fc0        ..      LSRS     r0,r0,#31
        0x00001968:    61e0        .a      STR      r0,[r4,#0x1c]
        0x0000196a:    69b0        .i      LDR      r0,[r6,#0x18]
        0x0000196c:    0740        @.      LSLS     r0,r0,#29
        0x0000196e:    0f40        @.      LSRS     r0,r0,#29
        0x00001970:    60e0        .`      STR      r0,[r4,#0xc]
        0x00001972:    f000f99f    ....    BL       RTC_WaitAccessEnable ; 0x1cb4
        0x00001976:    6a30        0j      LDR      r0,[r6,#0x20]
        0x00001978:    4d36        6M      LDR      r5,[pc,#216] ; [0x1a54] = 0x20000208
        0x0000197a:    0200        ..      LSLS     r0,r0,#8
        0x0000197c:    0f00        ..      LSRS     r0,r0,#28
        0x0000197e:    6028        (`      STR      r0,[r5,#0]
        0x00001980:    6a30        0j      LDR      r0,[r6,#0x20]
        0x00001982:    0300        ..      LSLS     r0,r0,#12
        0x00001984:    0f00        ..      LSRS     r0,r0,#28
        0x00001986:    6068        h`      STR      r0,[r5,#4]
        0x00001988:    6a30        0j      LDR      r0,[r6,#0x20]
        0x0000198a:    2701        .'      MOVS     r7,#1
        0x0000198c:    04c0        ..      LSLS     r0,r0,#19
        0x0000198e:    0fc0        ..      LSRS     r0,r0,#31
        0x00001990:    60a8        .`      STR      r0,[r5,#8]
        0x00001992:    6a30        0j      LDR      r0,[r6,#0x20]
        0x00001994:    0500        ..      LSLS     r0,r0,#20
        0x00001996:    0f00        ..      LSRS     r0,r0,#28
        0x00001998:    60e8        .`      STR      r0,[r5,#0xc]
        0x0000199a:    6a30        0j      LDR      r0,[r6,#0x20]
        0x0000199c:    0680        ..      LSLS     r0,r0,#26
        0x0000199e:    0f80        ..      LSRS     r0,r0,#30
        0x000019a0:    6128        (a      STR      r0,[r5,#0x10]
        0x000019a2:    6a30        0j      LDR      r0,[r6,#0x20]
        0x000019a4:    0700        ..      LSLS     r0,r0,#28
        0x000019a6:    0f00        ..      LSRS     r0,r0,#28
        0x000019a8:    6168        ha      STR      r0,[r5,#0x14]
        0x000019aa:    f000f983    ....    BL       RTC_WaitAccessEnable ; 0x1cb4
        0x000019ae:    69f0        .i      LDR      r0,[r6,#0x1c]
        0x000019b0:    0280        ..      LSLS     r0,r0,#10
        0x000019b2:    0f80        ..      LSRS     r0,r0,#30
        0x000019b4:    61a8        .a      STR      r0,[r5,#0x18]
        0x000019b6:    69f0        .i      LDR      r0,[r6,#0x1c]
        0x000019b8:    0300        ..      LSLS     r0,r0,#12
        0x000019ba:    0f00        ..      LSRS     r0,r0,#28
        0x000019bc:    61e8        .a      STR      r0,[r5,#0x1c]
        0x000019be:    69f0        .i      LDR      r0,[r6,#0x1c]
        0x000019c0:    0440        @.      LSLS     r0,r0,#17
        0x000019c2:    0f40        @.      LSRS     r0,r0,#29
        0x000019c4:    6228        (b      STR      r0,[r5,#0x20]
        0x000019c6:    69f0        .i      LDR      r0,[r6,#0x1c]
        0x000019c8:    0500        ..      LSLS     r0,r0,#20
        0x000019ca:    0f00        ..      LSRS     r0,r0,#28
        0x000019cc:    6268        hb      STR      r0,[r5,#0x24]
        0x000019ce:    69f0        .i      LDR      r0,[r6,#0x1c]
        0x000019d0:    0640        @.      LSLS     r0,r0,#25
        0x000019d2:    0f40        @.      LSRS     r0,r0,#29
        0x000019d4:    62a8        .b      STR      r0,[r5,#0x28]
        0x000019d6:    69f0        .i      LDR      r0,[r6,#0x1c]
        0x000019d8:    0700        ..      LSLS     r0,r0,#28
        0x000019da:    0f00        ..      LSRS     r0,r0,#28
        0x000019dc:    62e8        .b      STR      r0,[r5,#0x2c]
        0x000019de:    6828        (h      LDR      r0,[r5,#0]
        0x000019e0:    210a        .!      MOVS     r1,#0xa
        0x000019e2:    4348        HC      MULS     r0,r1,r0
        0x000019e4:    6869        ih      LDR      r1,[r5,#4]
        0x000019e6:    1840        @.      ADDS     r0,r0,r1
        0x000019e8:    217d        }!      MOVS     r1,#0x7d
        0x000019ea:    0109        ..      LSLS     r1,r1,#4
        0x000019ec:    1840        @.      ADDS     r0,r0,r1
        0x000019ee:    6020         `      STR      r0,[r4,#0]
        0x000019f0:    68a8        .h      LDR      r0,[r5,#8]
        0x000019f2:    210a        .!      MOVS     r1,#0xa
        0x000019f4:    4348        HC      MULS     r0,r1,r0
        0x000019f6:    68e9        .h      LDR      r1,[r5,#0xc]
        0x000019f8:    1840        @.      ADDS     r0,r0,r1
        0x000019fa:    6060        ``      STR      r0,[r4,#4]
        0x000019fc:    6928        (i      LDR      r0,[r5,#0x10]
        0x000019fe:    210a        .!      MOVS     r1,#0xa
        0x00001a00:    4348        HC      MULS     r0,r1,r0
        0x00001a02:    6969        ii      LDR      r1,[r5,#0x14]
        0x00001a04:    1840        @.      ADDS     r0,r0,r1
        0x00001a06:    60a0        .`      STR      r0,[r4,#8]
        0x00001a08:    69e0        .i      LDR      r0,[r4,#0x1c]
        0x00001a0a:    2800        .(      CMP      r0,#0
        0x00001a0c:    69a8        .i      LDR      r0,[r5,#0x18]
        0x00001a0e:    d004        ..      BEQ      0x1a1a ; RTC_GetAlarmDateAndTime + 190
        0x00001a10:    210a        .!      MOVS     r1,#0xa
        0x00001a12:    4348        HC      MULS     r0,r1,r0
        0x00001a14:    69e9        .i      LDR      r1,[r5,#0x1c]
        0x00001a16:    1840        @.      ADDS     r0,r0,r1
        0x00001a18:    e009        ..      B        0x1a2e ; RTC_GetAlarmDateAndTime + 210
        0x00001a1a:    210a        .!      MOVS     r1,#0xa
        0x00001a1c:    4348        HC      MULS     r0,r1,r0
        0x00001a1e:    69e9        .i      LDR      r1,[r5,#0x1c]
        0x00001a20:    1840        @.      ADDS     r0,r0,r1
        0x00001a22:    6120         a      STR      r0,[r4,#0x10]
        0x00001a24:    2815        .(      CMP      r0,#0x15
        0x00001a26:    d304        ..      BCC      0x1a32 ; RTC_GetAlarmDateAndTime + 214
        0x00001a28:    2102        .!      MOVS     r1,#2
        0x00001a2a:    3814        .8      SUBS     r0,r0,#0x14
        0x00001a2c:    6221        !b      STR      r1,[r4,#0x20]
        0x00001a2e:    6120         a      STR      r0,[r4,#0x10]
        0x00001a30:    e000        ..      B        0x1a34 ; RTC_GetAlarmDateAndTime + 216
        0x00001a32:    6227        'b      STR      r7,[r4,#0x20]
        0x00001a34:    6a28        (j      LDR      r0,[r5,#0x20]
        0x00001a36:    210a        .!      MOVS     r1,#0xa
        0x00001a38:    4348        HC      MULS     r0,r1,r0
        0x00001a3a:    6a69        ij      LDR      r1,[r5,#0x24]
        0x00001a3c:    1840        @.      ADDS     r0,r0,r1
        0x00001a3e:    6160        `a      STR      r0,[r4,#0x14]
        0x00001a40:    6aa8        .j      LDR      r0,[r5,#0x28]
        0x00001a42:    210a        .!      MOVS     r1,#0xa
        0x00001a44:    4348        HC      MULS     r0,r1,r0
        0x00001a46:    6ae9        .j      LDR      r1,[r5,#0x2c]
        0x00001a48:    1840        @.      ADDS     r0,r0,r1
        0x00001a4a:    61a0        .a      STR      r0,[r4,#0x18]
        0x00001a4c:    bdf8        ..      POP      {r3-r7,pc}
    $d
        0x00001a4e:    0000        ..      DCW    0
        0x00001a50:    40008000    ...@    DCD    1073774592
        0x00001a54:    20000208    ...     DCD    536871432
    $t
    i.RTC_GetDateAndTime
    RTC_GetDateAndTime
        0x00001a58:    b530        0.      PUSH     {r4,r5,lr}
        0x00001a5a:    4a39        9J      LDR      r2,[pc,#228] ; [0x1b40] = 0x40008000
        0x00001a5c:    6951        Qi      LDR      r1,[r2,#0x14]
        0x00001a5e:    07cb        ..      LSLS     r3,r1,#31
        0x00001a60:    0fdb        ..      LSRS     r3,r3,#31
        0x00001a62:    61c3        .a      STR      r3,[r0,#0x1c]
        0x00001a64:    6991        .i      LDR      r1,[r2,#0x18]
        0x00001a66:    0749        I.      LSLS     r1,r1,#29
        0x00001a68:    0f49        I.      LSRS     r1,r1,#29
        0x00001a6a:    60c1        .`      STR      r1,[r0,#0xc]
        0x00001a6c:    6911        .i      LDR      r1,[r2,#0x10]
        0x00001a6e:    0209        ..      LSLS     r1,r1,#8
        0x00001a70:    0f0c        ..      LSRS     r4,r1,#28
        0x00001a72:    4934        4I      LDR      r1,[pc,#208] ; [0x1b44] = 0x20000208
        0x00001a74:    600c        .`      STR      r4,[r1,#0]
        0x00001a76:    6914        .i      LDR      r4,[r2,#0x10]
        0x00001a78:    0324        $.      LSLS     r4,r4,#12
        0x00001a7a:    0f24        $.      LSRS     r4,r4,#28
        0x00001a7c:    604c        L`      STR      r4,[r1,#4]
        0x00001a7e:    6914        .i      LDR      r4,[r2,#0x10]
        0x00001a80:    04e5        ..      LSLS     r5,r4,#19
        0x00001a82:    2401        .$      MOVS     r4,#1
        0x00001a84:    0fed        ..      LSRS     r5,r5,#31
        0x00001a86:    608d        .`      STR      r5,[r1,#8]
        0x00001a88:    6915        .i      LDR      r5,[r2,#0x10]
        0x00001a8a:    052d        -.      LSLS     r5,r5,#20
        0x00001a8c:    0f2d        -.      LSRS     r5,r5,#28
        0x00001a8e:    60cd        .`      STR      r5,[r1,#0xc]
        0x00001a90:    6915        .i      LDR      r5,[r2,#0x10]
        0x00001a92:    06ad        ..      LSLS     r5,r5,#26
        0x00001a94:    0fad        ..      LSRS     r5,r5,#30
        0x00001a96:    610d        .a      STR      r5,[r1,#0x10]
        0x00001a98:    6915        .i      LDR      r5,[r2,#0x10]
        0x00001a9a:    072d        -.      LSLS     r5,r5,#28
        0x00001a9c:    0f2d        -.      LSRS     r5,r5,#28
        0x00001a9e:    614d        Ma      STR      r5,[r1,#0x14]
        0x00001aa0:    68d5        .h      LDR      r5,[r2,#0xc]
        0x00001aa2:    02ad        ..      LSLS     r5,r5,#10
        0x00001aa4:    0fad        ..      LSRS     r5,r5,#30
        0x00001aa6:    618d        .a      STR      r5,[r1,#0x18]
        0x00001aa8:    68d5        .h      LDR      r5,[r2,#0xc]
        0x00001aaa:    032d        -.      LSLS     r5,r5,#12
        0x00001aac:    0f2d        -.      LSRS     r5,r5,#28
        0x00001aae:    61cd        .a      STR      r5,[r1,#0x1c]
        0x00001ab0:    68d5        .h      LDR      r5,[r2,#0xc]
        0x00001ab2:    046d        m.      LSLS     r5,r5,#17
        0x00001ab4:    0f6d        m.      LSRS     r5,r5,#29
        0x00001ab6:    620d        .b      STR      r5,[r1,#0x20]
        0x00001ab8:    68d5        .h      LDR      r5,[r2,#0xc]
        0x00001aba:    052d        -.      LSLS     r5,r5,#20
        0x00001abc:    0f2d        -.      LSRS     r5,r5,#28
        0x00001abe:    624d        Mb      STR      r5,[r1,#0x24]
        0x00001ac0:    68d5        .h      LDR      r5,[r2,#0xc]
        0x00001ac2:    066d        m.      LSLS     r5,r5,#25
        0x00001ac4:    0f6d        m.      LSRS     r5,r5,#29
        0x00001ac6:    628d        .b      STR      r5,[r1,#0x28]
        0x00001ac8:    68d2        .h      LDR      r2,[r2,#0xc]
        0x00001aca:    0712        ..      LSLS     r2,r2,#28
        0x00001acc:    0f12        ..      LSRS     r2,r2,#28
        0x00001ace:    62ca        .b      STR      r2,[r1,#0x2c]
        0x00001ad0:    680a        .h      LDR      r2,[r1,#0]
        0x00001ad2:    250a        .%      MOVS     r5,#0xa
        0x00001ad4:    436a        jC      MULS     r2,r5,r2
        0x00001ad6:    684d        Mh      LDR      r5,[r1,#4]
        0x00001ad8:    1952        R.      ADDS     r2,r2,r5
        0x00001ada:    257d        }%      MOVS     r5,#0x7d
        0x00001adc:    012d        -.      LSLS     r5,r5,#4
        0x00001ade:    1952        R.      ADDS     r2,r2,r5
        0x00001ae0:    6002        .`      STR      r2,[r0,#0]
        0x00001ae2:    688a        .h      LDR      r2,[r1,#8]
        0x00001ae4:    250a        .%      MOVS     r5,#0xa
        0x00001ae6:    436a        jC      MULS     r2,r5,r2
        0x00001ae8:    68cd        .h      LDR      r5,[r1,#0xc]
        0x00001aea:    1952        R.      ADDS     r2,r2,r5
        0x00001aec:    6042        B`      STR      r2,[r0,#4]
        0x00001aee:    690a        .i      LDR      r2,[r1,#0x10]
        0x00001af0:    250a        .%      MOVS     r5,#0xa
        0x00001af2:    436a        jC      MULS     r2,r5,r2
        0x00001af4:    694d        Mi      LDR      r5,[r1,#0x14]
        0x00001af6:    1952        R.      ADDS     r2,r2,r5
        0x00001af8:    6082        .`      STR      r2,[r0,#8]
        0x00001afa:    698a        .i      LDR      r2,[r1,#0x18]
        0x00001afc:    2b00        .+      CMP      r3,#0
        0x00001afe:    d004        ..      BEQ      0x1b0a ; RTC_GetDateAndTime + 178
        0x00001b00:    230a        .#      MOVS     r3,#0xa
        0x00001b02:    435a        ZC      MULS     r2,r3,r2
        0x00001b04:    69cb        .i      LDR      r3,[r1,#0x1c]
        0x00001b06:    18d2        ..      ADDS     r2,r2,r3
        0x00001b08:    e009        ..      B        0x1b1e ; RTC_GetDateAndTime + 198
        0x00001b0a:    230a        .#      MOVS     r3,#0xa
        0x00001b0c:    435a        ZC      MULS     r2,r3,r2
        0x00001b0e:    69cb        .i      LDR      r3,[r1,#0x1c]
        0x00001b10:    18d2        ..      ADDS     r2,r2,r3
        0x00001b12:    6102        .a      STR      r2,[r0,#0x10]
        0x00001b14:    2a15        .*      CMP      r2,#0x15
        0x00001b16:    d304        ..      BCC      0x1b22 ; RTC_GetDateAndTime + 202
        0x00001b18:    2302        .#      MOVS     r3,#2
        0x00001b1a:    3a14        .:      SUBS     r2,r2,#0x14
        0x00001b1c:    6203        .b      STR      r3,[r0,#0x20]
        0x00001b1e:    6102        .a      STR      r2,[r0,#0x10]
        0x00001b20:    e000        ..      B        0x1b24 ; RTC_GetDateAndTime + 204
        0x00001b22:    6204        .b      STR      r4,[r0,#0x20]
        0x00001b24:    6a0a        .j      LDR      r2,[r1,#0x20]
        0x00001b26:    230a        .#      MOVS     r3,#0xa
        0x00001b28:    435a        ZC      MULS     r2,r3,r2
        0x00001b2a:    6a4b        Kj      LDR      r3,[r1,#0x24]
        0x00001b2c:    18d2        ..      ADDS     r2,r2,r3
        0x00001b2e:    6142        Ba      STR      r2,[r0,#0x14]
        0x00001b30:    6a8a        .j      LDR      r2,[r1,#0x28]
        0x00001b32:    230a        .#      MOVS     r3,#0xa
        0x00001b34:    6ac9        .j      LDR      r1,[r1,#0x2c]
        0x00001b36:    435a        ZC      MULS     r2,r3,r2
        0x00001b38:    1851        Q.      ADDS     r1,r2,r1
        0x00001b3a:    6181        .a      STR      r1,[r0,#0x18]
        0x00001b3c:    bd30        0.      POP      {r4,r5,pc}
    $d
        0x00001b3e:    0000        ..      DCW    0
        0x00001b40:    40008000    ...@    DCD    1073774592
        0x00001b44:    20000208    ...     DCD    536871432
    $t
    i.RTC_IRQHandler
    RTC_IRQHandler
        0x00001b48:    4803        .H      LDR      r0,[pc,#12] ; [0x1b58] = 0x40008000
        0x00001b4a:    6ac1        .j      LDR      r1,[r0,#0x2c]
        0x00001b4c:    0789        ..      LSLS     r1,r1,#30
        0x00001b4e:    d501        ..      BPL      0x1b54 ; RTC_IRQHandler + 12
        0x00001b50:    2102        .!      MOVS     r1,#2
        0x00001b52:    62c1        .b      STR      r1,[r0,#0x2c]
        0x00001b54:    4770        pG      BX       lr
    $d
        0x00001b56:    0000        ..      DCW    0
        0x00001b58:    40008000    ...@    DCD    1073774592
    $t
    i.RTC_SetAlarmDate
    RTC_SetAlarmDate
        0x00001b5c:    b570        p.      PUSH     {r4-r6,lr}
        0x00001b5e:    4615        .F      MOV      r5,r2
        0x00001b60:    227d        }"      MOVS     r2,#0x7d
        0x00001b62:    460e        .F      MOV      r6,r1
        0x00001b64:    0112        ..      LSLS     r2,r2,#4
        0x00001b66:    210a        .!      MOVS     r1,#0xa
        0x00001b68:    1a80        ..      SUBS     r0,r0,r2
        0x00001b6a:    f7fefc7f    ....    BL       __aeabi_uidiv ; 0x46c
        0x00001b6e:    040c        ..      LSLS     r4,r1,#16
        0x00001b70:    0500        ..      LSLS     r0,r0,#20
        0x00001b72:    4304        .C      ORRS     r4,r4,r0
        0x00001b74:    210a        .!      MOVS     r1,#0xa
        0x00001b76:    4630        0F      MOV      r0,r6
        0x00001b78:    f7fefc78    ..x.    BL       __aeabi_uidiv ; 0x46c
        0x00001b7c:    0300        ..      LSLS     r0,r0,#12
        0x00001b7e:    4320         C      ORRS     r0,r0,r4
        0x00001b80:    020c        ..      LSLS     r4,r1,#8
        0x00001b82:    4304        .C      ORRS     r4,r4,r0
        0x00001b84:    210a        .!      MOVS     r1,#0xa
        0x00001b86:    4628        (F      MOV      r0,r5
        0x00001b88:    f7fefc70    ..p.    BL       __aeabi_uidiv ; 0x46c
        0x00001b8c:    0100        ..      LSLS     r0,r0,#4
        0x00001b8e:    4320         C      ORRS     r0,r0,r4
        0x00001b90:    460c        .F      MOV      r4,r1
        0x00001b92:    4304        .C      ORRS     r4,r4,r0
        0x00001b94:    f000f88e    ....    BL       RTC_WaitAccessEnable ; 0x1cb4
        0x00001b98:    4801        .H      LDR      r0,[pc,#4] ; [0x1ba0] = 0x40008000
        0x00001b9a:    6204        .b      STR      r4,[r0,#0x20]
        0x00001b9c:    bd70        p.      POP      {r4-r6,pc}
    $d
        0x00001b9e:    0000        ..      DCW    0
        0x00001ba0:    40008000    ...@    DCD    1073774592
    $t
    i.RTC_SetAlarmTime
    RTC_SetAlarmTime
        0x00001ba4:    b5f8        ..      PUSH     {r3-r7,lr}
        0x00001ba6:    460e        .F      MOV      r6,r1
        0x00001ba8:    9906        ..      LDR      r1,[sp,#0x18]
        0x00001baa:    001d        ..      MOVS     r5,r3
        0x00001bac:    4614        .F      MOV      r4,r2
        0x00001bae:    d102        ..      BNE      0x1bb6 ; RTC_SetAlarmTime + 18
        0x00001bb0:    2902        .)      CMP      r1,#2
        0x00001bb2:    d100        ..      BNE      0x1bb6 ; RTC_SetAlarmTime + 18
        0x00001bb4:    3014        .0      ADDS     r0,r0,#0x14
        0x00001bb6:    210a        .!      MOVS     r1,#0xa
        0x00001bb8:    f7fefc58    ..X.    BL       __aeabi_uidiv ; 0x46c
        0x00001bbc:    040f        ..      LSLS     r7,r1,#16
        0x00001bbe:    0500        ..      LSLS     r0,r0,#20
        0x00001bc0:    4307        .C      ORRS     r7,r7,r0
        0x00001bc2:    210a        .!      MOVS     r1,#0xa
        0x00001bc4:    4630        0F      MOV      r0,r6
        0x00001bc6:    f7fefc51    ..Q.    BL       __aeabi_uidiv ; 0x46c
        0x00001bca:    0300        ..      LSLS     r0,r0,#12
        0x00001bcc:    020e        ..      LSLS     r6,r1,#8
        0x00001bce:    4338        8C      ORRS     r0,r0,r7
        0x00001bd0:    4306        .C      ORRS     r6,r6,r0
        0x00001bd2:    210a        .!      MOVS     r1,#0xa
        0x00001bd4:    4620         F      MOV      r0,r4
        0x00001bd6:    f7fefc49    ..I.    BL       __aeabi_uidiv ; 0x46c
        0x00001bda:    0100        ..      LSLS     r0,r0,#4
        0x00001bdc:    4330        0C      ORRS     r0,r0,r6
        0x00001bde:    4301        .C      ORRS     r1,r1,r0
        0x00001be0:    460c        .F      MOV      r4,r1
        0x00001be2:    f000f867    ..g.    BL       RTC_WaitAccessEnable ; 0x1cb4
        0x00001be6:    4806        .H      LDR      r0,[pc,#24] ; [0x1c00] = 0x40008000
        0x00001be8:    2d00        .-      CMP      r5,#0
        0x00001bea:    6941        Ai      LDR      r1,[r0,#0x14]
        0x00001bec:    d004        ..      BEQ      0x1bf8 ; RTC_SetAlarmTime + 84
        0x00001bee:    2201        ."      MOVS     r2,#1
        0x00001bf0:    4311        .C      ORRS     r1,r1,r2
        0x00001bf2:    6141        Aa      STR      r1,[r0,#0x14]
        0x00001bf4:    61c4        .a      STR      r4,[r0,#0x1c]
        0x00001bf6:    bdf8        ..      POP      {r3-r7,pc}
        0x00001bf8:    0849        I.      LSRS     r1,r1,#1
        0x00001bfa:    0049        I.      LSLS     r1,r1,#1
        0x00001bfc:    e7f9        ..      B        0x1bf2 ; RTC_SetAlarmTime + 78
    $d
        0x00001bfe:    0000        ..      DCW    0
        0x00001c00:    40008000    ...@    DCD    1073774592
    $t
    i.RTC_SetDate
    RTC_SetDate
        0x00001c04:    b5f8        ..      PUSH     {r3-r7,lr}
        0x00001c06:    4616        .F      MOV      r6,r2
        0x00001c08:    227d        }"      MOVS     r2,#0x7d
        0x00001c0a:    460f        .F      MOV      r7,r1
        0x00001c0c:    0112        ..      LSLS     r2,r2,#4
        0x00001c0e:    461d        .F      MOV      r5,r3
        0x00001c10:    210a        .!      MOVS     r1,#0xa
        0x00001c12:    1a80        ..      SUBS     r0,r0,r2
        0x00001c14:    f7fefc2a    ..*.    BL       __aeabi_uidiv ; 0x46c
        0x00001c18:    040c        ..      LSLS     r4,r1,#16
        0x00001c1a:    0500        ..      LSLS     r0,r0,#20
        0x00001c1c:    4304        .C      ORRS     r4,r4,r0
        0x00001c1e:    210a        .!      MOVS     r1,#0xa
        0x00001c20:    4638        8F      MOV      r0,r7
        0x00001c22:    f7fefc23    ..#.    BL       __aeabi_uidiv ; 0x46c
        0x00001c26:    0300        ..      LSLS     r0,r0,#12
        0x00001c28:    4320         C      ORRS     r0,r0,r4
        0x00001c2a:    020c        ..      LSLS     r4,r1,#8
        0x00001c2c:    4304        .C      ORRS     r4,r4,r0
        0x00001c2e:    210a        .!      MOVS     r1,#0xa
        0x00001c30:    4630        0F      MOV      r0,r6
        0x00001c32:    f7fefc1b    ....    BL       __aeabi_uidiv ; 0x46c
        0x00001c36:    0100        ..      LSLS     r0,r0,#4
        0x00001c38:    4320         C      ORRS     r0,r0,r4
        0x00001c3a:    460c        .F      MOV      r4,r1
        0x00001c3c:    4304        .C      ORRS     r4,r4,r0
        0x00001c3e:    f000f839    ..9.    BL       RTC_WaitAccessEnable ; 0x1cb4
        0x00001c42:    0769        i.      LSLS     r1,r5,#29
        0x00001c44:    4802        .H      LDR      r0,[pc,#8] ; [0x1c50] = 0x40008000
        0x00001c46:    0f49        I.      LSRS     r1,r1,#29
        0x00001c48:    6181        .a      STR      r1,[r0,#0x18]
        0x00001c4a:    6104        .a      STR      r4,[r0,#0x10]
        0x00001c4c:    bdf8        ..      POP      {r3-r7,pc}
    $d
        0x00001c4e:    0000        ..      DCW    0
        0x00001c50:    40008000    ...@    DCD    1073774592
    $t
    i.RTC_SetTime
    RTC_SetTime
        0x00001c54:    b5f8        ..      PUSH     {r3-r7,lr}
        0x00001c56:    460e        .F      MOV      r6,r1
        0x00001c58:    9906        ..      LDR      r1,[sp,#0x18]
        0x00001c5a:    001d        ..      MOVS     r5,r3
        0x00001c5c:    4614        .F      MOV      r4,r2
        0x00001c5e:    d102        ..      BNE      0x1c66 ; RTC_SetTime + 18
        0x00001c60:    2902        .)      CMP      r1,#2
        0x00001c62:    d100        ..      BNE      0x1c66 ; RTC_SetTime + 18
        0x00001c64:    3014        .0      ADDS     r0,r0,#0x14
        0x00001c66:    210a        .!      MOVS     r1,#0xa
        0x00001c68:    f7fefc00    ....    BL       __aeabi_uidiv ; 0x46c
        0x00001c6c:    040f        ..      LSLS     r7,r1,#16
        0x00001c6e:    0500        ..      LSLS     r0,r0,#20
        0x00001c70:    4307        .C      ORRS     r7,r7,r0
        0x00001c72:    210a        .!      MOVS     r1,#0xa
        0x00001c74:    4630        0F      MOV      r0,r6
        0x00001c76:    f7fefbf9    ....    BL       __aeabi_uidiv ; 0x46c
        0x00001c7a:    0300        ..      LSLS     r0,r0,#12
        0x00001c7c:    020e        ..      LSLS     r6,r1,#8
        0x00001c7e:    4338        8C      ORRS     r0,r0,r7
        0x00001c80:    4306        .C      ORRS     r6,r6,r0
        0x00001c82:    210a        .!      MOVS     r1,#0xa
        0x00001c84:    4620         F      MOV      r0,r4
        0x00001c86:    f7fefbf1    ....    BL       __aeabi_uidiv ; 0x46c
        0x00001c8a:    0100        ..      LSLS     r0,r0,#4
        0x00001c8c:    4330        0C      ORRS     r0,r0,r6
        0x00001c8e:    4301        .C      ORRS     r1,r1,r0
        0x00001c90:    460c        .F      MOV      r4,r1
        0x00001c92:    f000f80f    ....    BL       RTC_WaitAccessEnable ; 0x1cb4
        0x00001c96:    4806        .H      LDR      r0,[pc,#24] ; [0x1cb0] = 0x40008000
        0x00001c98:    2d00        .-      CMP      r5,#0
        0x00001c9a:    6941        Ai      LDR      r1,[r0,#0x14]
        0x00001c9c:    d004        ..      BEQ      0x1ca8 ; RTC_SetTime + 84
        0x00001c9e:    2201        ."      MOVS     r2,#1
        0x00001ca0:    4311        .C      ORRS     r1,r1,r2
        0x00001ca2:    6141        Aa      STR      r1,[r0,#0x14]
        0x00001ca4:    60c4        .`      STR      r4,[r0,#0xc]
        0x00001ca6:    bdf8        ..      POP      {r3-r7,pc}
        0x00001ca8:    0849        I.      LSRS     r1,r1,#1
        0x00001caa:    0049        I.      LSLS     r1,r1,#1
        0x00001cac:    e7f9        ..      B        0x1ca2 ; RTC_SetTime + 78
    $d
        0x00001cae:    0000        ..      DCW    0
        0x00001cb0:    40008000    ...@    DCD    1073774592
    $t
    i.RTC_WaitAccessEnable
    RTC_WaitAccessEnable
        0x00001cb4:    4805        .H      LDR      r0,[pc,#20] ; [0x1ccc] = 0x40008000
        0x00001cb6:    2100        .!      MOVS     r1,#0
        0x00001cb8:    6041        A`      STR      r1,[r0,#4]
        0x00001cba:    6841        Ah      LDR      r1,[r0,#4]
        0x00001cbc:    03c9        ..      LSLS     r1,r1,#15
        0x00001cbe:    d4fc        ..      BMI      0x1cba ; RTC_WaitAccessEnable + 6
        0x00001cc0:    4903        .I      LDR      r1,[pc,#12] ; [0x1cd0] = 0xa965
        0x00001cc2:    6041        A`      STR      r1,[r0,#4]
        0x00001cc4:    6841        Ah      LDR      r1,[r0,#4]
        0x00001cc6:    03c9        ..      LSLS     r1,r1,#15
        0x00001cc8:    d5fc        ..      BPL      0x1cc4 ; RTC_WaitAccessEnable + 16
        0x00001cca:    4770        pG      BX       lr
    $d
        0x00001ccc:    40008000    ...@    DCD    1073774592
        0x00001cd0:    0000a965    e...    DCD    43365
    $t
    i.SYS_BusInit
    SYS_BusInit
        0x00001cd4:    b510        ..      PUSH     {r4,lr}
        0x00001cd6:    f7fff86b    ..k.    BL       Debug_Uart_Init ; 0xdb0
        0x00001cda:    f000fb85    ....    BL       Transfer_Uart_Init ; 0x23e8
        0x00001cde:    f000fe13    ....    BL       USCI_Uart_Init ; 0x2908
        0x00001ce2:    f7fffa79    ..y.    BL       Hal_I2c_Init ; 0x11d8
        0x00001ce6:    bd10        ..      POP      {r4,pc}
    i.SYS_Clock_init
    SYS_Clock_init
        0x00001ce8:    b5f8        ..      PUSH     {r3-r7,lr}
        0x00001cea:    2004        .       MOVS     r0,#4
        0x00001cec:    f7fefea4    ....    BL       CLK_EnableXtalRC ; 0xa38
        0x00001cf0:    2010        .       MOVS     r0,#0x10
        0x00001cf2:    f7feff73    ..s.    BL       CLK_WaitClockReady ; 0xbdc
        0x00001cf6:    2100        .!      MOVS     r1,#0
        0x00001cf8:    2007        .       MOVS     r0,#7
        0x00001cfa:    f7feff05    ....    BL       CLK_SetHCLK ; 0xb08
        0x00001cfe:    2003        .       MOVS     r0,#3
        0x00001d00:    f7fefe9a    ....    BL       CLK_EnableXtalRC ; 0xa38
        0x00001d04:    2003        .       MOVS     r0,#3
        0x00001d06:    f7feff69    ..i.    BL       CLK_WaitClockReady ; 0xbdc
        0x00001d0a:    4822        "H      LDR      r0,[pc,#136] ; [0x1d94] = 0x44aa200
        0x00001d0c:    f7fefebc    ....    BL       CLK_SetCoreClock ; 0xa88
        0x00001d10:    2018        .       MOVS     r0,#0x18
        0x00001d12:    f7feff59    ..Y.    BL       CLK_SetSysTickClockSrc ; 0xbc8
        0x00001d16:    4c20         L      LDR      r4,[pc,#128] ; [0x1d98] = 0x57803d10
        0x00001d18:    4620         F      MOV      r0,r4
        0x00001d1a:    f7fefda9    ....    BL       CLK_EnableModuleClock ; 0x870
        0x00001d1e:    1c65        e.      ADDS     r5,r4,#1
        0x00001d20:    4628        (F      MOV      r0,r5
        0x00001d22:    f7fefda5    ....    BL       CLK_EnableModuleClock ; 0x870
        0x00001d26:    1ca6        ..      ADDS     r6,r4,#2
        0x00001d28:    4630        0F      MOV      r0,r6
        0x00001d2a:    f7fefda1    ....    BL       CLK_EnableModuleClock ; 0x870
        0x00001d2e:    4f1b        .O      LDR      r7,[pc,#108] ; [0x1d9c] = 0x80000008
        0x00001d30:    4638        8F      MOV      r0,r7
        0x00001d32:    f7fefd9d    ....    BL       CLK_EnableModuleClock ; 0x870
        0x00001d36:    481a        .H      LDR      r0,[pc,#104] ; [0x1da0] = 0x40000008
        0x00001d38:    f7fefd9a    ....    BL       CLK_EnableModuleClock ; 0x870
        0x00001d3c:    4818        .H      LDR      r0,[pc,#96] ; [0x1da0] = 0x40000008
        0x00001d3e:    1c40        @.      ADDS     r0,r0,#1
        0x00001d40:    f7fefd96    ....    BL       CLK_EnableModuleClock ; 0x870
        0x00001d44:    4817        .H      LDR      r0,[pc,#92] ; [0x1da4] = 0x5623fe1c
        0x00001d46:    f7fefd93    ....    BL       CLK_EnableModuleClock ; 0x870
        0x00001d4a:    4817        .H      LDR      r0,[pc,#92] ; [0x1da8] = 0x53c00014
        0x00001d4c:    f7fefd90    ....    BL       CLK_EnableModuleClock ; 0x870
        0x00001d50:    4816        .H      LDR      r0,[pc,#88] ; [0x1dac] = 0x5e800002
        0x00001d52:    f7fefd8d    ....    BL       CLK_EnableModuleClock ; 0x870
        0x00001d56:    4816        .H      LDR      r0,[pc,#88] ; [0x1db0] = 0x63200001
        0x00001d58:    f7fefd8a    ....    BL       CLK_EnableModuleClock ; 0x870
        0x00001d5c:    2200        ."      MOVS     r2,#0
        0x00001d5e:    4611        .F      MOV      r1,r2
        0x00001d60:    4620         F      MOV      r0,r4
        0x00001d62:    f7fefef7    ....    BL       CLK_SetModuleClock ; 0xb54
        0x00001d66:    2200        ."      MOVS     r2,#0
        0x00001d68:    4611        .F      MOV      r1,r2
        0x00001d6a:    4628        (F      MOV      r0,r5
        0x00001d6c:    f7fefef2    ....    BL       CLK_SetModuleClock ; 0xb54
        0x00001d70:    2200        ."      MOVS     r2,#0
        0x00001d72:    4611        .F      MOV      r1,r2
        0x00001d74:    4630        0F      MOV      r0,r6
        0x00001d76:    f7fefeed    ....    BL       CLK_SetModuleClock ; 0xb54
        0x00001d7a:    2200        ."      MOVS     r2,#0
        0x00001d7c:    4611        .F      MOV      r1,r2
        0x00001d7e:    4638        8F      MOV      r0,r7
        0x00001d80:    f7fefee8    ....    BL       CLK_SetModuleClock ; 0xb54
        0x00001d84:    2203        ."      MOVS     r2,#3
        0x00001d86:    0452        R.      LSLS     r2,r2,#17
        0x00001d88:    210c        .!      MOVS     r1,#0xc
        0x00001d8a:    4806        .H      LDR      r0,[pc,#24] ; [0x1da4] = 0x5623fe1c
        0x00001d8c:    f7fefee2    ....    BL       CLK_SetModuleClock ; 0xb54
        0x00001d90:    bdf8        ..      POP      {r3-r7,pc}
    $d
        0x00001d92:    0000        ..      DCW    0
        0x00001d94:    044aa200    ..J.    DCD    72000000
        0x00001d98:    57803d10    .=.W    DCD    1468022032
        0x00001d9c:    80000008    ....    DCD    2147483656
        0x00001da0:    40000008    ...@    DCD    1073741832
        0x00001da4:    5623fe1c    ..#V    DCD    1445199388
        0x00001da8:    53c00014    ...S    DCD    1405091860
        0x00001dac:    5e800002    ...^    DCD    1585446914
        0x00001db0:    63200001    .. c    DCD    1663041537
    $t
    i.SYS_Init
    SYS_Init
        0x00001db4:    b510        ..      PUSH     {r4,lr}
        0x00001db6:    2059        Y       MOVS     r0,#0x59
        0x00001db8:    4c0e        .L      LDR      r4,[pc,#56] ; [0x1df4] = 0x50000100
        0x00001dba:    2216        ."      MOVS     r2,#0x16
        0x00001dbc:    2188        .!      MOVS     r1,#0x88
        0x00001dbe:    6020         `      STR      r0,[r4,#0]
        0x00001dc0:    6022        "`      STR      r2,[r4,#0]
        0x00001dc2:    6021        !`      STR      r1,[r4,#0]
        0x00001dc4:    6823        #h      LDR      r3,[r4,#0]
        0x00001dc6:    2b00        .+      CMP      r3,#0
        0x00001dc8:    d0f9        ..      BEQ      0x1dbe ; SYS_Init + 10
        0x00001dca:    f7ffff8d    ....    BL       SYS_Clock_init ; 0x1ce8
        0x00001dce:    f000fa8f    ....    BL       TYM_gpio_init ; 0x22f0
        0x00001dd2:    2000        .       MOVS     r0,#0
        0x00001dd4:    6020         `      STR      r0,[r4,#0]
        0x00001dd6:    f000faef    ....    BL       TYM_sys_PowerManger_init ; 0x23b8
        0x00001dda:    f001f979    ..y.    BL       drv_led_init ; 0x30d0
        0x00001dde:    f7fff823    ..#.    BL       Drv_FourG_Gpio_Init ; 0xe28
        0x00001de2:    f7ffff77    ..w.    BL       SYS_BusInit ; 0x1cd4
        0x00001de6:    f7fffa77    ..w.    BL       Hal_Timer1_Init ; 0x12d8
        0x00001dea:    f000f98b    ....    BL       TYM_DriverInit ; 0x2104
        0x00001dee:    f7feff9b    ....    BL       Core_Msg_Init ; 0xd28
        0x00001df2:    bd10        ..      POP      {r4,pc}
    $d
        0x00001df4:    50000100    ...P    DCD    1342177536
    $t
    i.SYS_ResetModule
    SYS_ResetModule
        0x00001df8:    2105        .!      MOVS     r1,#5
        0x00001dfa:    0e02        ..      LSRS     r2,r0,#24
        0x00001dfc:    0709        ..      LSLS     r1,r1,#28
        0x00001dfe:    1851        Q.      ADDS     r1,r2,r1
        0x00001e00:    688b        .h      LDR      r3,[r1,#8]
        0x00001e02:    2201        ."      MOVS     r2,#1
        0x00001e04:    4082        .@      LSLS     r2,r2,r0
        0x00001e06:    4313        .C      ORRS     r3,r3,r2
        0x00001e08:    608b        .`      STR      r3,[r1,#8]
        0x00001e0a:    6888        .h      LDR      r0,[r1,#8]
        0x00001e0c:    4390        .C      BICS     r0,r0,r2
        0x00001e0e:    6088        .`      STR      r0,[r1,#8]
        0x00001e10:    4770        pG      BX       lr
        0x00001e12:    0000        ..      MOVS     r0,r0
    i.SYS_Status
    SYS_Status
        0x00001e14:    b510        ..      PUSH     {r4,lr}
        0x00001e16:    480b        .H      LDR      r0,[pc,#44] ; [0x1e44] = 0x20000a14
        0x00001e18:    2100        .!      MOVS     r1,#0
        0x00001e1a:    7141        Aq      STRB     r1,[r0,#5]
        0x00001e1c:    2101        .!      MOVS     r1,#1
        0x00001e1e:    7181        .q      STRB     r1,[r0,#6]
        0x00001e20:    4608        .F      MOV      r0,r1
        0x00001e22:    f000fa11    ....    BL       TYM_drv_powerkeepon ; 0x2248
        0x00001e26:    2001        .       MOVS     r0,#1
        0x00001e28:    f7feffda    ....    BL       Drv_4GMoudle_PowerUp ; 0xde0
        0x00001e2c:    f001f814    ....    BL       drv_FourGmodel_power_key_SetHi ; 0x2e58
        0x00001e30:    4905        .I      LDR      r1,[pc,#20] ; [0x1e48] = 0xbb8
        0x00001e32:    4806        .H      LDR      r0,[pc,#24] ; [0x1e4c] = 0x20000028
        0x00001e34:    f000face    ....    BL       TimeOutSet ; 0x23d4
        0x00001e38:    f7fff836    ..6.    BL       Drv_audio_init ; 0xea8
        0x00001e3c:    4904        .I      LDR      r1,[pc,#16] ; [0x1e50] = 0x20000039
        0x00001e3e:    2005        .       MOVS     r0,#5
        0x00001e40:    7008        .p      STRB     r0,[r1,#0]
        0x00001e42:    bd10        ..      POP      {r4,pc}
    $d
        0x00001e44:    20000a14    ...     DCD    536873492
        0x00001e48:    00000bb8    ....    DCD    3000
        0x00001e4c:    20000028    (..     DCD    536870952
        0x00001e50:    20000039    9..     DCD    536870969
    $t
    i.SendChar_ToUART
    SendChar_ToUART
        0x00001e54:    4906        .I      LDR      r1,[pc,#24] ; [0x1e70] = 0x40050000
        0x00001e56:    698a        .i      LDR      r2,[r1,#0x18]
        0x00001e58:    0212        ..      LSLS     r2,r2,#8
        0x00001e5a:    d4fc        ..      BMI      0x1e56 ; SendChar_ToUART + 2
        0x00001e5c:    6008        .`      STR      r0,[r1,#0]
        0x00001e5e:    280a        .(      CMP      r0,#0xa
        0x00001e60:    d104        ..      BNE      0x1e6c ; SendChar_ToUART + 24
        0x00001e62:    6988        .i      LDR      r0,[r1,#0x18]
        0x00001e64:    0200        ..      LSLS     r0,r0,#8
        0x00001e66:    d4fc        ..      BMI      0x1e62 ; SendChar_ToUART + 14
        0x00001e68:    200d        .       MOVS     r0,#0xd
        0x00001e6a:    6008        .`      STR      r0,[r1,#0]
        0x00001e6c:    4770        pG      BX       lr
    $d
        0x00001e6e:    0000        ..      DCW    0
        0x00001e70:    40050000    ...@    DCD    1074069504
    $t
    i.SysIdle
    SysIdle
        0x00001e74:    b510        ..      PUSH     {r4,lr}
        0x00001e76:    4809        .H      LDR      r0,[pc,#36] ; [0x1e9c] = 0x20000a14
        0x00001e78:    210e        .!      MOVS     r1,#0xe
        0x00001e7a:    7141        Aq      STRB     r1,[r0,#5]
        0x00001e7c:    2100        .!      MOVS     r1,#0
        0x00001e7e:    7181        .q      STRB     r1,[r0,#6]
        0x00001e80:    4608        .F      MOV      r0,r1
        0x00001e82:    f000f9e1    ....    BL       TYM_drv_powerkeepon ; 0x2248
        0x00001e86:    2000        .       MOVS     r0,#0
        0x00001e88:    f7feffaa    ....    BL       Drv_4GMoudle_PowerUp ; 0xde0
        0x00001e8c:    f000ffea    ....    BL       drv_FourGmodel_power_key_SetLow ; 0x2e64
        0x00001e90:    217d        }!      MOVS     r1,#0x7d
        0x00001e92:    00c9        ..      LSLS     r1,r1,#3
        0x00001e94:    4802        .H      LDR      r0,[pc,#8] ; [0x1ea0] = 0x20000020
        0x00001e96:    f000fa9d    ....    BL       TimeOutSet ; 0x23d4
        0x00001e9a:    bd10        ..      POP      {r4,pc}
    $d
        0x00001e9c:    20000a14    ...     DCD    536873492
        0x00001ea0:    20000020     ..     DCD    536870944
    $t
    i.SystemCoreClockUpdate
    SystemCoreClockUpdate
        0x00001ea4:    b5f8        ..      PUSH     {r3-r7,lr}
        0x00001ea6:    4d1c        .M      LDR      r5,[pc,#112] ; [0x1f18] = 0x50000200
        0x00001ea8:    6928        (i      LDR      r0,[r5,#0x10]
        0x00001eaa:    0744        D.      LSLS     r4,r0,#29
        0x00001eac:    a01b        ..      ADR      r0,{pc}+0x70 ; 0x1f1c
        0x00001eae:    6800        .h      LDR      r0,[r0,#0]
        0x00001eb0:    9000        ..      STR      r0,[sp,#0]
        0x00001eb2:    6a29        )j      LDR      r1,[r5,#0x20]
        0x00001eb4:    0f64        d.      LSRS     r4,r4,#29
        0x00001eb6:    1328        (.      ASRS     r0,r5,#12
        0x00001eb8:    4201        .B      TST      r1,r0
        0x00001eba:    d001        ..      BEQ      0x1ec0 ; SystemCoreClockUpdate + 28
        0x00001ebc:    2000        .       MOVS     r0,#0
        0x00001ebe:    e016        ..      B        0x1eee ; SystemCoreClockUpdate + 74
        0x00001ec0:    0308        ..      LSLS     r0,r1,#12
        0x00001ec2:    d501        ..      BPL      0x1ec8 ; SystemCoreClockUpdate + 36
        0x00001ec4:    4816        .H      LDR      r0,[pc,#88] ; [0x1f20] = 0x1518000
        0x00001ec6:    e000        ..      B        0x1eca ; SystemCoreClockUpdate + 38
        0x00001ec8:    4816        .H      LDR      r0,[pc,#88] ; [0x1f24] = 0xb71b00
        0x00001eca:    038a        ..      LSLS     r2,r1,#14
        0x00001ecc:    d40f        ..      BMI      0x1eee ; SystemCoreClockUpdate + 74
        0x00001ece:    040a        ..      LSLS     r2,r1,#16
        0x00001ed0:    0f92        ..      LSRS     r2,r2,#30
        0x00001ed2:    466b        kF      MOV      r3,sp
        0x00001ed4:    5c9b        .\      LDRB     r3,[r3,r2]
        0x00001ed6:    05ca        ..      LSLS     r2,r1,#23
        0x00001ed8:    0489        ..      LSLS     r1,r1,#18
        0x00001eda:    0dd2        ..      LSRS     r2,r2,#23
        0x00001edc:    0ec9        ..      LSRS     r1,r1,#27
        0x00001ede:    1c89        ..      ADDS     r1,r1,#2
        0x00001ee0:    0880        ..      LSRS     r0,r0,#2
        0x00001ee2:    1c92        ..      ADDS     r2,r2,#2
        0x00001ee4:    4359        YC      MULS     r1,r3,r1
        0x00001ee6:    4350        PC      MULS     r0,r2,r0
        0x00001ee8:    f7fefac0    ....    BL       __aeabi_uidiv ; 0x46c
        0x00001eec:    0080        ..      LSLS     r0,r0,#2
        0x00001eee:    4e0e        .N      LDR      r6,[pc,#56] ; [0x1f28] = 0x20000000
        0x00001ef0:    2c02        .,      CMP      r4,#2
        0x00001ef2:    60b0        .`      STR      r0,[r6,#8]
        0x00001ef4:    d002        ..      BEQ      0x1efc ; SystemCoreClockUpdate + 88
        0x00001ef6:    490d        .I      LDR      r1,[pc,#52] ; [0x1f2c] = 0x3fac
        0x00001ef8:    00a0        ..      LSLS     r0,r4,#2
        0x00001efa:    5808        .X      LDR      r0,[r1,r0]
        0x00001efc:    69a9        .i      LDR      r1,[r5,#0x18]
        0x00001efe:    0709        ..      LSLS     r1,r1,#28
        0x00001f00:    0f09        ..      LSRS     r1,r1,#28
        0x00001f02:    1c49        I.      ADDS     r1,r1,#1
        0x00001f04:    f7fefab2    ....    BL       __aeabi_uidiv ; 0x46c
        0x00001f08:    4909        .I      LDR      r1,[pc,#36] ; [0x1f30] = 0xf4240
        0x00001f0a:    6030        0`      STR      r0,[r6,#0]
        0x00001f0c:    104a        J.      ASRS     r2,r1,#1
        0x00001f0e:    1880        ..      ADDS     r0,r0,r2
        0x00001f10:    f7fefaac    ....    BL       __aeabi_uidiv ; 0x46c
        0x00001f14:    6070        p`      STR      r0,[r6,#4]
        0x00001f16:    bdf8        ..      POP      {r3-r7,pc}
    $d
        0x00001f18:    50000200    ...P    DCD    1342177792
        0x00001f1c:    04020201    ....    DCD    67240449
        0x00001f20:    01518000    ..Q.    DCD    22118400
        0x00001f24:    00b71b00    ....    DCD    12000000
        0x00001f28:    20000000    ...     DCD    536870912
        0x00001f2c:    00003fac    .?..    DCD    16300
        0x00001f30:    000f4240    @B..    DCD    1000000
    $t
    i.SystemInit
    SystemInit
        0x00001f34:    4770        pG      BX       lr
        0x00001f36:    0000        ..      MOVS     r0,r0
    i.TIMER_Delay
    TIMER_Delay
        0x00001f38:    b5f8        ..      PUSH     {r3-r7,lr}
        0x00001f3a:    460c        .F      MOV      r4,r1
        0x00001f3c:    4607        .F      MOV      r7,r0
        0x00001f3e:    f000f85d    ..].    BL       TIMER_GetModuleClock ; 0x1ffc
        0x00001f42:    4605        .F      MOV      r5,r0
        0x00001f44:    2000        .       MOVS     r0,#0
        0x00001f46:    9000        ..      STR      r0,[sp,#0]
        0x00001f48:    4826        &H      LDR      r0,[pc,#152] ; [0x1fe4] = 0x20000000
        0x00001f4a:    4629        )F      MOV      r1,r5
        0x00001f4c:    6800        .h      LDR      r0,[r0,#0]
        0x00001f4e:    f7fefa8d    ....    BL       __aeabi_uidiv ; 0x46c
        0x00001f52:    1c46        F.      ADDS     r6,r0,#1
        0x00001f54:    2000        .       MOVS     r0,#0
        0x00001f56:    6038        8`      STR      r0,[r7,#0]
        0x00001f58:    6178        xa      STR      r0,[r7,#0x14]
        0x00001f5a:    4923        #I      LDR      r1,[pc,#140] ; [0x1fe8] = 0xf4240
        0x00001f5c:    428d        .B      CMP      r5,r1
        0x00001f5e:    d805        ..      BHI      0x1f6c ; TIMER_Delay + 52
        0x00001f60:    207d        }       MOVS     r0,#0x7d
        0x00001f62:    00c0        ..      LSLS     r0,r0,#3
        0x00001f64:    4284        .B      CMP      r4,r0
        0x00001f66:    d205        ..      BCS      0x1f74 ; TIMER_Delay + 60
        0x00001f68:    4604        .F      MOV      r4,r0
        0x00001f6a:    e006        ..      B        0x1f7a ; TIMER_Delay + 66
        0x00001f6c:    2c64        d,      CMP      r4,#0x64
        0x00001f6e:    d201        ..      BCS      0x1f74 ; TIMER_Delay + 60
        0x00001f70:    2464        d$      MOVS     r4,#0x64
        0x00001f72:    e002        ..      B        0x1f7a ; TIMER_Delay + 66
        0x00001f74:    428c        .B      CMP      r4,r1
        0x00001f76:    d900        ..      BLS      0x1f7a ; TIMER_Delay + 66
        0x00001f78:    460c        .F      MOV      r4,r1
        0x00001f7a:    481c        .H      LDR      r0,[pc,#112] ; [0x1fec] = 0x3b9aca00
        0x00001f7c:    428d        .B      CMP      r5,r1
        0x00001f7e:    d807        ..      BHI      0x1f90 ; TIMER_Delay + 88
        0x00001f80:    4629        )F      MOV      r1,r5
        0x00001f82:    f7fefa73    ..s.    BL       __aeabi_uidiv ; 0x46c
        0x00001f86:    4601        .F      MOV      r1,r0
        0x00001f88:    207d        }       MOVS     r0,#0x7d
        0x00001f8a:    00c0        ..      LSLS     r0,r0,#3
        0x00001f8c:    4360        `C      MULS     r0,r4,r0
        0x00001f8e:    e017        ..      B        0x1fc0 ; TIMER_Delay + 136
        0x00001f90:    4a17        .J      LDR      r2,[pc,#92] ; [0x1ff0] = 0x3d09000
        0x00001f92:    4295        .B      CMP      r5,r2
        0x00001f94:    d903        ..      BLS      0x1f9e ; TIMER_Delay + 102
        0x00001f96:    2207        ."      MOVS     r2,#7
        0x00001f98:    08ed        ..      LSRS     r5,r5,#3
        0x00001f9a:    9200        ..      STR      r2,[sp,#0]
        0x00001f9c:    e00c        ..      B        0x1fb8 ; TIMER_Delay + 128
        0x00001f9e:    4a15        .J      LDR      r2,[pc,#84] ; [0x1ff4] = 0x1e84800
        0x00001fa0:    4295        .B      CMP      r5,r2
        0x00001fa2:    d903        ..      BLS      0x1fac ; TIMER_Delay + 116
        0x00001fa4:    2203        ."      MOVS     r2,#3
        0x00001fa6:    08ad        ..      LSRS     r5,r5,#2
        0x00001fa8:    9200        ..      STR      r2,[sp,#0]
        0x00001faa:    e005        ..      B        0x1fb8 ; TIMER_Delay + 128
        0x00001fac:    4a12        .J      LDR      r2,[pc,#72] ; [0x1ff8] = 0xf42400
        0x00001fae:    4295        .B      CMP      r5,r2
        0x00001fb0:    d902        ..      BLS      0x1fb8 ; TIMER_Delay + 128
        0x00001fb2:    2201        ."      MOVS     r2,#1
        0x00001fb4:    086d        m.      LSRS     r5,r5,#1
        0x00001fb6:    9200        ..      STR      r2,[sp,#0]
        0x00001fb8:    2cfa        .,      CMP      r4,#0xfa
        0x00001fba:    d2e1        ..      BCS      0x1f80 ; TIMER_Delay + 72
        0x00001fbc:    4620         F      MOV      r0,r4
        0x00001fbe:    4368        hC      MULS     r0,r5,r0
        0x00001fc0:    f7fefa54    ..T.    BL       __aeabi_uidiv ; 0x46c
        0x00001fc4:    6078        x`      STR      r0,[r7,#4]
        0x00001fc6:    2101        .!      MOVS     r1,#1
        0x00001fc8:    9800        ..      LDR      r0,[sp,#0]
        0x00001fca:    0789        ..      LSLS     r1,r1,#30
        0x00001fcc:    4308        .C      ORRS     r0,r0,r1
        0x00001fce:    6038        8`      STR      r0,[r7,#0]
        0x00001fd0:    2e00        ..      CMP      r6,#0
        0x00001fd2:    d002        ..      BEQ      0x1fda ; TIMER_Delay + 162
        0x00001fd4:    bf00        ..      NOP      
        0x00001fd6:    1e76        v.      SUBS     r6,r6,#1
        0x00001fd8:    d1fc        ..      BNE      0x1fd4 ; TIMER_Delay + 156
        0x00001fda:    6838        8h      LDR      r0,[r7,#0]
        0x00001fdc:    0180        ..      LSLS     r0,r0,#6
        0x00001fde:    d4fc        ..      BMI      0x1fda ; TIMER_Delay + 162
        0x00001fe0:    bdf8        ..      POP      {r3-r7,pc}
    $d
        0x00001fe2:    0000        ..      DCW    0
        0x00001fe4:    20000000    ...     DCD    536870912
        0x00001fe8:    000f4240    @B..    DCD    1000000
        0x00001fec:    3b9aca00    ...;    DCD    1000000000
        0x00001ff0:    03d09000    ....    DCD    64000000
        0x00001ff4:    01e84800    .H..    DCD    32000000
        0x00001ff8:    00f42400    .$..    DCD    16000000
    $t
    i.TIMER_GetModuleClock
    TIMER_GetModuleClock
        0x00001ffc:    b510        ..      PUSH     {r4,lr}
        0x00001ffe:    b088        ..      SUB      sp,sp,#0x20
        0x00002000:    4604        .F      MOV      r4,r0
        0x00002002:    2220         "      MOVS     r2,#0x20
        0x00002004:    4911        .I      LDR      r1,[pc,#68] ; [0x204c] = 0x86c8
        0x00002006:    4668        hF      MOV      r0,sp
        0x00002008:    f7fef8c6    ....    BL       __aeabi_memcpy4 ; 0x198
        0x0000200c:    4910        .I      LDR      r1,[pc,#64] ; [0x2050] = 0x40010000
        0x0000200e:    4811        .H      LDR      r0,[pc,#68] ; [0x2054] = 0x50000200
        0x00002010:    428c        .B      CMP      r4,r1
        0x00002012:    d102        ..      BNE      0x201a ; TIMER_GetModuleClock + 30
        0x00002014:    6940        @i      LDR      r0,[r0,#0x14]
        0x00002016:    0a00        ..      LSRS     r0,r0,#8
        0x00002018:    e00c        ..      B        0x2034 ; TIMER_GetModuleClock + 56
        0x0000201a:    490f        .I      LDR      r1,[pc,#60] ; [0x2058] = 0x40010100
        0x0000201c:    428c        .B      CMP      r4,r1
        0x0000201e:    d102        ..      BNE      0x2026 ; TIMER_GetModuleClock + 42
        0x00002020:    6940        @i      LDR      r0,[r0,#0x14]
        0x00002022:    0b00        ..      LSRS     r0,r0,#12
        0x00002024:    e006        ..      B        0x2034 ; TIMER_GetModuleClock + 56
        0x00002026:    490d        .I      LDR      r1,[pc,#52] ; [0x205c] = 0x40110000
        0x00002028:    6940        @i      LDR      r0,[r0,#0x14]
        0x0000202a:    428c        .B      CMP      r4,r1
        0x0000202c:    d101        ..      BNE      0x2032 ; TIMER_GetModuleClock + 54
        0x0000202e:    0c00        ..      LSRS     r0,r0,#16
        0x00002030:    e000        ..      B        0x2034 ; TIMER_GetModuleClock + 56
        0x00002032:    0d00        ..      LSRS     r0,r0,#20
        0x00002034:    0740        @.      LSLS     r0,r0,#29
        0x00002036:    0f40        @.      LSRS     r0,r0,#29
        0x00002038:    2802        .(      CMP      r0,#2
        0x0000203a:    d004        ..      BEQ      0x2046 ; TIMER_GetModuleClock + 74
        0x0000203c:    0080        ..      LSLS     r0,r0,#2
        0x0000203e:    4669        iF      MOV      r1,sp
        0x00002040:    5808        .X      LDR      r0,[r1,r0]
        0x00002042:    b008        ..      ADD      sp,sp,#0x20
        0x00002044:    bd10        ..      POP      {r4,pc}
        0x00002046:    4806        .H      LDR      r0,[pc,#24] ; [0x2060] = 0x20000000
        0x00002048:    6800        .h      LDR      r0,[r0,#0]
        0x0000204a:    e7fa        ..      B        0x2042 ; TIMER_GetModuleClock + 70
    $d
        0x0000204c:    000086c8    ....    DCD    34504
        0x00002050:    40010000    ...@    DCD    1073807360
        0x00002054:    50000200    ...P    DCD    1342177792
        0x00002058:    40010100    ...@    DCD    1073807616
        0x0000205c:    40110000    ...@    DCD    1074855936
        0x00002060:    20000000    ...     DCD    536870912
    $t
    i.TIMER_Open
    TIMER_Open
        0x00002064:    b5f7        ..      PUSH     {r0-r2,r4-r7,lr}
        0x00002066:    4617        .F      MOV      r7,r2
        0x00002068:    4606        .F      MOV      r6,r0
        0x0000206a:    f7ffffc7    ....    BL       TIMER_GetModuleClock ; 0x1ffc
        0x0000206e:    4604        .F      MOV      r4,r0
        0x00002070:    2500        .%      MOVS     r5,#0
        0x00002072:    0840        @.      LSRS     r0,r0,#1
        0x00002074:    42b8        .B      CMP      r0,r7
        0x00002076:    d201        ..      BCS      0x207c ; TIMER_Open + 24
        0x00002078:    2002        .       MOVS     r0,#2
        0x0000207a:    e014        ..      B        0x20a6 ; TIMER_Open + 66
        0x0000207c:    490f        .I      LDR      r1,[pc,#60] ; [0x20bc] = 0x3d09000
        0x0000207e:    428c        .B      CMP      r4,r1
        0x00002080:    d902        ..      BLS      0x2088 ; TIMER_Open + 36
        0x00002082:    2507        .%      MOVS     r5,#7
        0x00002084:    08e4        ..      LSRS     r4,r4,#3
        0x00002086:    e00a        ..      B        0x209e ; TIMER_Open + 58
        0x00002088:    490d        .I      LDR      r1,[pc,#52] ; [0x20c0] = 0x1e84800
        0x0000208a:    428c        .B      CMP      r4,r1
        0x0000208c:    d902        ..      BLS      0x2094 ; TIMER_Open + 48
        0x0000208e:    2503        .%      MOVS     r5,#3
        0x00002090:    08a4        ..      LSRS     r4,r4,#2
        0x00002092:    e004        ..      B        0x209e ; TIMER_Open + 58
        0x00002094:    490b        .I      LDR      r1,[pc,#44] ; [0x20c4] = 0xf42400
        0x00002096:    428c        .B      CMP      r4,r1
        0x00002098:    d901        ..      BLS      0x209e ; TIMER_Open + 58
        0x0000209a:    2501        .%      MOVS     r5,#1
        0x0000209c:    4604        .F      MOV      r4,r0
        0x0000209e:    4639        9F      MOV      r1,r7
        0x000020a0:    4620         F      MOV      r0,r4
        0x000020a2:    f7fef9e3    ....    BL       __aeabi_uidiv ; 0x46c
        0x000020a6:    9901        ..      LDR      r1,[sp,#4]
        0x000020a8:    4329        )C      ORRS     r1,r1,r5
        0x000020aa:    6031        1`      STR      r1,[r6,#0]
        0x000020ac:    6070        p`      STR      r0,[r6,#4]
        0x000020ae:    1c6d        m.      ADDS     r5,r5,#1
        0x000020b0:    4368        hC      MULS     r0,r5,r0
        0x000020b2:    4601        .F      MOV      r1,r0
        0x000020b4:    4620         F      MOV      r0,r4
        0x000020b6:    f7fef9d9    ....    BL       __aeabi_uidiv ; 0x46c
        0x000020ba:    bdfe        ..      POP      {r1-r7,pc}
    $d
        0x000020bc:    03d09000    ....    DCD    64000000
        0x000020c0:    01e84800    .H..    DCD    32000000
        0x000020c4:    00f42400    .$..    DCD    16000000
    $t
    i.TMR1_IRQHandler
    TMR1_IRQHandler
        0x000020c8:    490a        .I      LDR      r1,[pc,#40] ; [0x20f4] = 0x20000014
        0x000020ca:    7808        .x      LDRB     r0,[r1,#0]
        0x000020cc:    1c40        @.      ADDS     r0,r0,#1
        0x000020ce:    b2c0        ..      UXTB     r0,r0
        0x000020d0:    7008        .p      STRB     r0,[r1,#0]
        0x000020d2:    280a        .(      CMP      r0,#0xa
        0x000020d4:    d305        ..      BCC      0x20e2 ; TMR1_IRQHandler + 26
        0x000020d6:    2000        .       MOVS     r0,#0
        0x000020d8:    7008        .p      STRB     r0,[r1,#0]
        0x000020da:    4807        .H      LDR      r0,[pc,#28] ; [0x20f8] = 0x200009f4
        0x000020dc:    6a81        .j      LDR      r1,[r0,#0x28]
        0x000020de:    1c49        I.      ADDS     r1,r1,#1
        0x000020e0:    6281        .b      STR      r1,[r0,#0x28]
        0x000020e2:    4906        .I      LDR      r1,[pc,#24] ; [0x20fc] = 0x200001b4
        0x000020e4:    6808        .h      LDR      r0,[r1,#0]
        0x000020e6:    1c40        @.      ADDS     r0,r0,#1
        0x000020e8:    6008        .`      STR      r0,[r1,#0]
        0x000020ea:    4905        .I      LDR      r1,[pc,#20] ; [0x2100] = 0x40010100
        0x000020ec:    2001        .       MOVS     r0,#1
        0x000020ee:    6088        .`      STR      r0,[r1,#8]
        0x000020f0:    4770        pG      BX       lr
    $d
        0x000020f2:    0000        ..      DCW    0
        0x000020f4:    20000014    ...     DCD    536870932
        0x000020f8:    200009f4    ...     DCD    536873460
        0x000020fc:    200001b4    ...     DCD    536871348
        0x00002100:    40010100    ...@    DCD    1073807616
    $t
    i.TYM_DriverInit
    TYM_DriverInit
        0x00002104:    b510        ..      PUSH     {r4,lr}
        0x00002106:    f7fefeb7    ....    BL       Drv_IrKey_init ; 0xe78
        0x0000210a:    f000ffcf    ....    BL       drv_gipo_key_init ; 0x30ac
        0x0000210e:    bd10        ..      POP      {r4,pc}
    i.TYM_drv_BQ24610_charge_current_Set
    TYM_drv_BQ24610_charge_current_Set
        0x00002110:    b510        ..      PUSH     {r4,lr}
        0x00002112:    4604        .F      MOV      r4,r0
        0x00002114:    2201        ."      MOVS     r2,#1
        0x00002116:    0211        ..      LSLS     r1,r2,#8
        0x00002118:    4802        .H      LDR      r0,[pc,#8] ; [0x2124] = 0x500040c0
        0x0000211a:    f7feff22    ..".    BL       GPIO_SetMode ; 0xf62
        0x0000211e:    4802        .H      LDR      r0,[pc,#8] ; [0x2128] = 0x500042c0
        0x00002120:    6204        .b      STR      r4,[r0,#0x20]
        0x00002122:    bd10        ..      POP      {r4,pc}
    $d
        0x00002124:    500040c0    .@.P    DCD    1342193856
        0x00002128:    500042c0    .B.P    DCD    1342194368
    $t
    i.TYM_drv_In_bat_status_updata
    TYM_drv_In_bat_status_updata
        0x0000212c:    b570        p.      PUSH     {r4-r6,lr}
        0x0000212e:    4816        .H      LDR      r0,[pc,#88] ; [0x2188] = 0x200009f4
        0x00002130:    251e        .%      MOVS     r5,#0x1e
        0x00002132:    4604        .F      MOV      r4,r0
        0x00002134:    5f45        E_      LDRSH    r5,[r0,r5]
        0x00002136:    3420         4      ADDS     r4,r4,#0x20
        0x00002138:    2101        .!      MOVS     r1,#1
        0x0000213a:    78e0        .x      LDRB     r0,[r4,#3]
        0x0000213c:    2d22        "-      CMP      r5,#0x22
        0x0000213e:    da02        ..      BGE      0x2146 ; TYM_drv_In_bat_status_updata + 26
        0x00002140:    7021        !p      STRB     r1,[r4,#0]
        0x00002142:    4388        .C      BICS     r0,r0,r1
        0x00002144:    e01d        ..      B        0x2182 ; TYM_drv_In_bat_status_updata + 86
        0x00002146:    4308        .C      ORRS     r0,r0,r1
        0x00002148:    4629        )F      MOV      r1,r5
        0x0000214a:    4a10        .J      LDR      r2,[pc,#64] ; [0x218c] = 0x79e
        0x0000214c:    3922        "9      SUBS     r1,r1,#0x22
        0x0000214e:    70e0        .p      STRB     r0,[r4,#3]
        0x00002150:    4291        .B      CMP      r1,r2
        0x00002152:    d80d        ..      BHI      0x2170 ; TYM_drv_In_bat_status_updata + 68
        0x00002154:    2107        .!      MOVS     r1,#7
        0x00002156:    7021        !p      STRB     r1,[r4,#0]
        0x00002158:    21df        .!      MOVS     r1,#0xdf
        0x0000215a:    4008        .@      ANDS     r0,r0,r1
        0x0000215c:    70e0        .p      STRB     r0,[r4,#3]
        0x0000215e:    4628        (F      MOV      r0,r5
        0x00002160:    2179        y!      MOVS     r1,#0x79
        0x00002162:    f7fef98d    ....    BL       __aeabi_idiv ; 0x480
        0x00002166:    7921        !y      LDRB     r1,[r4,#4]
        0x00002168:    0909        ..      LSRS     r1,r1,#4
        0x0000216a:    0109        ..      LSLS     r1,r1,#4
        0x0000216c:    4308        .C      ORRS     r0,r0,r1
        0x0000216e:    7120         q      STRB     r0,[r4,#4]
        0x00002170:    201f        .       MOVS     r0,#0x1f
        0x00002172:    0180        ..      LSLS     r0,r0,#6
        0x00002174:    4285        .B      CMP      r5,r0
        0x00002176:    dd05        ..      BLE      0x2184 ; TYM_drv_In_bat_status_updata + 88
        0x00002178:    2006        .       MOVS     r0,#6
        0x0000217a:    7020         p      STRB     r0,[r4,#0]
        0x0000217c:    78e0        .x      LDRB     r0,[r4,#3]
        0x0000217e:    2120         !      MOVS     r1,#0x20
        0x00002180:    4308        .C      ORRS     r0,r0,r1
        0x00002182:    70e0        .p      STRB     r0,[r4,#3]
        0x00002184:    bd70        p.      POP      {r4-r6,pc}
    $d
        0x00002186:    0000        ..      DCW    0
        0x00002188:    200009f4    ...     DCD    536873460
        0x0000218c:    0000079e    ....    DCD    1950
    $t
    i.TYM_drv_SysPower_init
    TYM_drv_SysPower_init
        0x00002190:    b510        ..      PUSH     {r4,lr}
        0x00002192:    2000        .       MOVS     r0,#0
        0x00002194:    f000f858    ..X.    BL       TYM_drv_powerkeepon ; 0x2248
        0x00002198:    4908        .I      LDR      r1,[pc,#32] ; [0x21bc] = 0x50004240
        0x0000219a:    2001        .       MOVS     r0,#1
        0x0000219c:    6388        .c      STR      r0,[r1,#0x38]
        0x0000219e:    4907        .I      LDR      r1,[pc,#28] ; [0x21bc] = 0x50004240
        0x000021a0:    2000        .       MOVS     r0,#0
        0x000021a2:    3940        @9      SUBS     r1,r1,#0x40
        0x000021a4:    6208        .b      STR      r0,[r1,#0x20]
        0x000021a6:    4905        .I      LDR      r1,[pc,#20] ; [0x21bc] = 0x50004240
        0x000021a8:    3180        .1      ADDS     r1,r1,#0x80
        0x000021aa:    6388        .c      STR      r0,[r1,#0x38]
        0x000021ac:    4903        .I      LDR      r1,[pc,#12] ; [0x21bc] = 0x50004240
        0x000021ae:    3140        @1      ADDS     r1,r1,#0x40
        0x000021b0:    6048        H`      STR      r0,[r1,#4]
        0x000021b2:    2001        .       MOVS     r0,#1
        0x000021b4:    f7ffffac    ....    BL       TYM_drv_BQ24610_charge_current_Set ; 0x2110
        0x000021b8:    bd10        ..      POP      {r4,pc}
    $d
        0x000021ba:    0000        ..      DCW    0
        0x000021bc:    50004240    @B.P    DCD    1342194240
    $t
    i.TYM_drv_ac_status_updata
    TYM_drv_ac_status_updata
        0x000021c0:    4a09        .J      LDR      r2,[pc,#36] ; [0x21e8] = 0x50004280
        0x000021c2:    6913        .i      LDR      r3,[r2,#0x10]
        0x000021c4:    4809        .H      LDR      r0,[pc,#36] ; [0x21ec] = 0x20000a14
        0x000021c6:    2b00        .+      CMP      r3,#0
        0x000021c8:    78c1        .x      LDRB     r1,[r0,#3]
        0x000021ca:    d006        ..      BEQ      0x21da ; TYM_drv_ac_status_updata + 26
        0x000021cc:    2305        .#      MOVS     r3,#5
        0x000021ce:    7083        .p      STRB     r3,[r0,#2]
        0x000021d0:    23fb        .#      MOVS     r3,#0xfb
        0x000021d2:    4019        .@      ANDS     r1,r1,r3
        0x000021d4:    70c1        .p      STRB     r1,[r0,#3]
        0x000021d6:    2000        .       MOVS     r0,#0
        0x000021d8:    e004        ..      B        0x21e4 ; TYM_drv_ac_status_updata + 36
        0x000021da:    2304        .#      MOVS     r3,#4
        0x000021dc:    7083        .p      STRB     r3,[r0,#2]
        0x000021de:    4319        .C      ORRS     r1,r1,r3
        0x000021e0:    70c1        .p      STRB     r1,[r0,#3]
        0x000021e2:    2001        .       MOVS     r0,#1
        0x000021e4:    6050        P`      STR      r0,[r2,#4]
        0x000021e6:    4770        pG      BX       lr
    $d
        0x000021e8:    50004280    .B.P    DCD    1342194304
        0x000021ec:    20000a14    ...     DCD    536873492
    $t
    i.TYM_drv_ex_bat_status_updata
    TYM_drv_ex_bat_status_updata
        0x000021f0:    4b14        .K      LDR      r3,[pc,#80] ; [0x2244] = 0x200009f4
        0x000021f2:    b510        ..      PUSH     {r4,lr}
        0x000021f4:    2218        ."      MOVS     r2,#0x18
        0x000021f6:    4618        .F      MOV      r0,r3
        0x000021f8:    5e9a        .^      LDRSH    r2,[r3,r2]
        0x000021fa:    3020         0      ADDS     r0,r0,#0x20
        0x000021fc:    78c1        .x      LDRB     r1,[r0,#3]
        0x000021fe:    2a22        "*      CMP      r2,#0x22
        0x00002200:    da04        ..      BGE      0x220c ; TYM_drv_ex_bat_status_updata + 28
        0x00002202:    2203        ."      MOVS     r2,#3
        0x00002204:    7042        Bp      STRB     r2,[r0,#1]
        0x00002206:    22fd        ."      MOVS     r2,#0xfd
        0x00002208:    4011        .@      ANDS     r1,r1,r2
        0x0000220a:    e018        ..      B        0x223e ; TYM_drv_ex_bat_status_updata + 78
        0x0000220c:    2402        .$      MOVS     r4,#2
        0x0000220e:    4321        !C      ORRS     r1,r1,r4
        0x00002210:    70c1        .p      STRB     r1,[r0,#3]
        0x00002212:    241e        .$      MOVS     r4,#0x1e
        0x00002214:    5f1c        ._      LDRSH    r4,[r3,r4]
        0x00002216:    231f        .#      MOVS     r3,#0x1f
        0x00002218:    019b        ..      LSLS     r3,r3,#6
        0x0000221a:    429c        .B      CMP      r4,r3
        0x0000221c:    dc08        ..      BGT      0x2230 ; TYM_drv_ex_bat_status_updata + 64
        0x0000221e:    240a        .$      MOVS     r4,#0xa
        0x00002220:    7044        Dp      STRB     r4,[r0,#1]
        0x00002222:    24bf        .$      MOVS     r4,#0xbf
        0x00002224:    4021        !@      ANDS     r1,r1,r4
        0x00002226:    70c1        .p      STRB     r1,[r0,#3]
        0x00002228:    7901        .y      LDRB     r1,[r0,#4]
        0x0000222a:    0709        ..      LSLS     r1,r1,#28
        0x0000222c:    0f09        ..      LSRS     r1,r1,#28
        0x0000222e:    7101        .q      STRB     r1,[r0,#4]
        0x00002230:    429a        .B      CMP      r2,r3
        0x00002232:    dd05        ..      BLE      0x2240 ; TYM_drv_ex_bat_status_updata + 80
        0x00002234:    2109        .!      MOVS     r1,#9
        0x00002236:    7041        Ap      STRB     r1,[r0,#1]
        0x00002238:    78c1        .x      LDRB     r1,[r0,#3]
        0x0000223a:    2240        @"      MOVS     r2,#0x40
        0x0000223c:    4311        .C      ORRS     r1,r1,r2
        0x0000223e:    70c1        .p      STRB     r1,[r0,#3]
        0x00002240:    bd10        ..      POP      {r4,pc}
    $d
        0x00002242:    0000        ..      DCW    0
        0x00002244:    200009f4    ...     DCD    536873460
    $t
    i.TYM_drv_powerkeepon
    TYM_drv_powerkeepon
        0x00002248:    4902        .I      LDR      r1,[pc,#8] ; [0x2254] = 0x50004280
        0x0000224a:    2800        .(      CMP      r0,#0
        0x0000224c:    d000        ..      BEQ      0x2250 ; TYM_drv_powerkeepon + 8
        0x0000224e:    2001        .       MOVS     r0,#1
        0x00002250:    6088        .`      STR      r0,[r1,#8]
        0x00002252:    4770        pG      BX       lr
    $d
        0x00002254:    50004280    .B.P    DCD    1342194304
    $t
    i.TYM_gpio_adc_get
    TYM_gpio_adc_get
        0x00002258:    b5f8        ..      PUSH     {r3-r7,lr}
        0x0000225a:    4e23        #N      LDR      r6,[pc,#140] ; [0x22e8] = 0x400e0000
        0x0000225c:    4605        .F      MOV      r5,r0
        0x0000225e:    4603        .F      MOV      r3,r0
        0x00002260:    220c        ."      MOVS     r2,#0xc
        0x00002262:    2100        .!      MOVS     r1,#0
        0x00002264:    4630        0F      MOV      r0,r6
        0x00002266:    f7fefaeb    ....    BL       ADC_Open ; 0x840
        0x0000226a:    4c1f        .L      LDR      r4,[pc,#124] ; [0x22e8] = 0x400e0000
        0x0000226c:    3480        .4      ADDS     r4,r4,#0x80
        0x0000226e:    6820         h      LDR      r0,[r4,#0]
        0x00002270:    2701        .'      MOVS     r7,#1
        0x00002272:    4338        8C      ORRS     r0,r0,r7
        0x00002274:    6020         `      STR      r0,[r4,#0]
        0x00002276:    4639        9F      MOV      r1,r7
        0x00002278:    4630        0F      MOV      r0,r6
        0x0000227a:    f7fefa89    ....    BL       ADC_EnableInt ; 0x790
        0x0000227e:    6127        'a      STR      r7,[r4,#0x10]
        0x00002280:    6820         h      LDR      r0,[r4,#0]
        0x00002282:    02f9        ..      LSLS     r1,r7,#11
        0x00002284:    4308        .C      ORRS     r0,r0,r1
        0x00002286:    6020         `      STR      r0,[r4,#0]
        0x00002288:    6920         i      LDR      r0,[r4,#0x10]
        0x0000228a:    07c0        ..      LSLS     r0,r0,#31
        0x0000228c:    d0fc        ..      BEQ      0x2288 ; TYM_gpio_adc_get + 48
        0x0000228e:    2001        .       MOVS     r0,#1
        0x00002290:    6120         a      STR      r0,[r4,#0x10]
        0x00002292:    4a16        .J      LDR      r2,[pc,#88] ; [0x22ec] = 0x200009f4
        0x00002294:    4629        )F      MOV      r1,r5
        0x00002296:    2000        .       MOVS     r0,#0
        0x00002298:    07cb        ..      LSLS     r3,r1,#31
        0x0000229a:    d004        ..      BEQ      0x22a6 ; TYM_gpio_adc_get + 78
        0x0000229c:    0083        ..      LSLS     r3,r0,#2
        0x0000229e:    199b        ..      ADDS     r3,r3,r6
        0x000022a0:    681b        .h      LDR      r3,[r3,#0]
        0x000022a2:    0047        G.      LSLS     r7,r0,#1
        0x000022a4:    53d3        .S      STRH     r3,[r2,r7]
        0x000022a6:    1c40        @.      ADDS     r0,r0,#1
        0x000022a8:    0849        I.      LSRS     r1,r1,#1
        0x000022aa:    b2c0        ..      UXTB     r0,r0
        0x000022ac:    2810        .(      CMP      r0,#0x10
        0x000022ae:    d3f3        ..      BCC      0x2298 ; TYM_gpio_adc_get + 64
        0x000022b0:    6920         i      LDR      r0,[r4,#0x10]
        0x000022b2:    07c0        ..      LSLS     r0,r0,#31
        0x000022b4:    d0fc        ..      BEQ      0x22b0 ; TYM_gpio_adc_get + 88
        0x000022b6:    6820         h      LDR      r0,[r4,#0]
        0x000022b8:    2101        .!      MOVS     r1,#1
        0x000022ba:    02c9        ..      LSLS     r1,r1,#11
        0x000022bc:    4388        .C      BICS     r0,r0,r1
        0x000022be:    6020         `      STR      r0,[r4,#0]
        0x000022c0:    2100        .!      MOVS     r1,#0
        0x000022c2:    4630        0F      MOV      r0,r6
        0x000022c4:    07eb        ..      LSLS     r3,r5,#31
        0x000022c6:    d004        ..      BEQ      0x22d2 ; TYM_gpio_adc_get + 122
        0x000022c8:    008b        ..      LSLS     r3,r1,#2
        0x000022ca:    181b        ..      ADDS     r3,r3,r0
        0x000022cc:    681b        .h      LDR      r3,[r3,#0]
        0x000022ce:    004e        N.      LSLS     r6,r1,#1
        0x000022d0:    5393        .S      STRH     r3,[r2,r6]
        0x000022d2:    1c49        I.      ADDS     r1,r1,#1
        0x000022d4:    086d        m.      LSRS     r5,r5,#1
        0x000022d6:    b2c9        ..      UXTB     r1,r1
        0x000022d8:    2910        .)      CMP      r1,#0x10
        0x000022da:    d3f3        ..      BCC      0x22c4 ; TYM_gpio_adc_get + 108
        0x000022dc:    2101        .!      MOVS     r1,#1
        0x000022de:    6121        !a      STR      r1,[r4,#0x10]
        0x000022e0:    f7fefa40    ..@.    BL       ADC_DisableInt ; 0x764
        0x000022e4:    bdf8        ..      POP      {r3-r7,pc}
    $d
        0x000022e6:    0000        ..      DCW    0
        0x000022e8:    400e0000    ...@    DCD    1074659328
        0x000022ec:    200009f4    ...     DCD    536873460
    $t
    i.TYM_gpio_init
    TYM_gpio_init
        0x000022f0:    480d        .H      LDR      r0,[pc,#52] ; [0x2328] = 0x50004040
        0x000022f2:    6841        Ah      LDR      r1,[r0,#4]
        0x000022f4:    0442        B.      LSLS     r2,r0,#17
        0x000022f6:    4311        .C      ORRS     r1,r1,r2
        0x000022f8:    6041        A`      STR      r1,[r0,#4]
        0x000022fa:    2100        .!      MOVS     r1,#0
        0x000022fc:    2005        .       MOVS     r0,#5
        0x000022fe:    0700        ..      LSLS     r0,r0,#28
        0x00002300:    6341        Ac      STR      r1,[r0,#0x34]
        0x00002302:    6301        .c      STR      r1,[r0,#0x30]
        0x00002304:    0152        R.      LSLS     r2,r2,#5
        0x00002306:    63c2        .c      STR      r2,[r0,#0x3c]
        0x00002308:    4a08        .J      LDR      r2,[pc,#32] ; [0x232c] = 0x10008800
        0x0000230a:    6382        .c      STR      r2,[r0,#0x38]
        0x0000230c:    2233        3"      MOVS     r2,#0x33
        0x0000230e:    4808        .H      LDR      r0,[pc,#32] ; [0x2330] = 0x50000040
        0x00002310:    0112        ..      LSLS     r2,r2,#4
        0x00002312:    6042        B`      STR      r2,[r0,#4]
        0x00002314:    6001        .`      STR      r1,[r0,#0]
        0x00002316:    2130        0!      MOVS     r1,#0x30
        0x00002318:    60c1        .`      STR      r1,[r0,#0xc]
        0x0000231a:    6081        .`      STR      r1,[r0,#8]
        0x0000231c:    4905        .I      LDR      r1,[pc,#20] ; [0x2334] = 0x440011
        0x0000231e:    6141        Aa      STR      r1,[r0,#0x14]
        0x00002320:    0609        ..      LSLS     r1,r1,#24
        0x00002322:    6101        .a      STR      r1,[r0,#0x10]
        0x00002324:    4770        pG      BX       lr
    $d
        0x00002326:    0000        ..      DCW    0
        0x00002328:    50004040    @@.P    DCD    1342193728
        0x0000232c:    10008800    ....    DCD    268470272
        0x00002330:    50000040    @..P    DCD    1342177344
        0x00002334:    00440011    ..D.    DCD    4456465
    $t
    i.TYM_power_gpio_init
    TYM_power_gpio_init
        0x00002338:    b5f8        ..      PUSH     {r3-r7,lr}
        0x0000233a:    2201        ."      MOVS     r2,#1
        0x0000233c:    0215        ..      LSLS     r5,r2,#8
        0x0000233e:    4629        )F      MOV      r1,r5
        0x00002340:    481c        .H      LDR      r0,[pc,#112] ; [0x23b4] = 0x50004000
        0x00002342:    f7fefe0e    ....    BL       GPIO_SetMode ; 0xf62
        0x00002346:    4c1b        .L      LDR      r4,[pc,#108] ; [0x23b4] = 0x50004000
        0x00002348:    2200        ."      MOVS     r2,#0
        0x0000234a:    3480        .4      ADDS     r4,r4,#0x80
        0x0000234c:    2110        .!      MOVS     r1,#0x10
        0x0000234e:    4620         F      MOV      r0,r4
        0x00002350:    f7fefe07    ....    BL       GPIO_SetMode ; 0xf62
        0x00002354:    4629        )F      MOV      r1,r5
        0x00002356:    4d17        .M      LDR      r5,[pc,#92] ; [0x23b4] = 0x50004000
        0x00002358:    2201        ."      MOVS     r2,#1
        0x0000235a:    35c0        .5      ADDS     r5,r5,#0xc0
        0x0000235c:    4628        (F      MOV      r0,r5
        0x0000235e:    f7fefe00    ....    BL       GPIO_SetMode ; 0xf62
        0x00002362:    4e14        .N      LDR      r6,[pc,#80] ; [0x23b4] = 0x50004000
        0x00002364:    2101        .!      MOVS     r1,#1
        0x00002366:    3640        @6      ADDS     r6,r6,#0x40
        0x00002368:    2200        ."      MOVS     r2,#0
        0x0000236a:    0289        ..      LSLS     r1,r1,#10
        0x0000236c:    4630        0F      MOV      r0,r6
        0x0000236e:    f7fefdf8    ....    BL       GPIO_SetMode ; 0xf62
        0x00002372:    2101        .!      MOVS     r1,#1
        0x00002374:    2200        ."      MOVS     r2,#0
        0x00002376:    02c9        ..      LSLS     r1,r1,#11
        0x00002378:    4630        0F      MOV      r0,r6
        0x0000237a:    f7fefdf2    ....    BL       GPIO_SetMode ; 0xf62
        0x0000237e:    2201        ."      MOVS     r2,#1
        0x00002380:    0397        ..      LSLS     r7,r2,#14
        0x00002382:    4639        9F      MOV      r1,r7
        0x00002384:    4628        (F      MOV      r0,r5
        0x00002386:    f7fefdec    ....    BL       GPIO_SetMode ; 0xf62
        0x0000238a:    2200        ."      MOVS     r2,#0
        0x0000238c:    2180        .!      MOVS     r1,#0x80
        0x0000238e:    4628        (F      MOV      r0,r5
        0x00002390:    f7fefde7    ....    BL       GPIO_SetMode ; 0xf62
        0x00002394:    2201        ."      MOVS     r2,#1
        0x00002396:    2104        .!      MOVS     r1,#4
        0x00002398:    4620         F      MOV      r0,r4
        0x0000239a:    f7fefde2    ....    BL       GPIO_SetMode ; 0xf62
        0x0000239e:    2201        ."      MOVS     r2,#1
        0x000023a0:    4639        9F      MOV      r1,r7
        0x000023a2:    4630        0F      MOV      r0,r6
        0x000023a4:    f7fefddd    ....    BL       GPIO_SetMode ; 0xf62
        0x000023a8:    2201        ."      MOVS     r2,#1
        0x000023aa:    2102        .!      MOVS     r1,#2
        0x000023ac:    4620         F      MOV      r0,r4
        0x000023ae:    f7fefdd8    ....    BL       GPIO_SetMode ; 0xf62
        0x000023b2:    bdf8        ..      POP      {r3-r7,pc}
    $d
        0x000023b4:    50004000    .@.P    DCD    1342193664
    $t
    i.TYM_sys_PowerManger_init
    TYM_sys_PowerManger_init
        0x000023b8:    b510        ..      PUSH     {r4,lr}
        0x000023ba:    f7ffffbd    ....    BL       TYM_power_gpio_init ; 0x2338
        0x000023be:    f7fffee7    ....    BL       TYM_drv_SysPower_init ; 0x2190
        0x000023c2:    f000ff1d    ....    BL       drv_power_status_updata ; 0x3200
        0x000023c6:    4802        .H      LDR      r0,[pc,#8] ; [0x23d0] = 0x20000a14
        0x000023c8:    2100        .!      MOVS     r1,#0
        0x000023ca:    70c1        .p      STRB     r1,[r0,#3]
        0x000023cc:    7101        .q      STRB     r1,[r0,#4]
        0x000023ce:    bd10        ..      POP      {r4,pc}
    $d
        0x000023d0:    20000a14    ...     DCD    536873492
    $t
    i.TimeOutSet
    TimeOutSet
        0x000023d4:    4a03        .J      LDR      r2,[pc,#12] ; [0x23e4] = 0x200009f4
        0x000023d6:    6a93        .j      LDR      r3,[r2,#0x28]
        0x000023d8:    6043        C`      STR      r3,[r0,#4]
        0x000023da:    6a92        .j      LDR      r2,[r2,#0x28]
        0x000023dc:    1851        Q.      ADDS     r1,r2,r1
        0x000023de:    6001        .`      STR      r1,[r0,#0]
        0x000023e0:    4770        pG      BX       lr
    $d
        0x000023e2:    0000        ..      DCW    0
        0x000023e4:    200009f4    ...     DCD    536873460
    $t
    i.Transfer_Uart_Init
    Transfer_Uart_Init
        0x000023e8:    b510        ..      PUSH     {r4,lr}
        0x000023ea:    a00c        ..      ADR      r0,{pc}+0x32 ; 0x241c
        0x000023ec:    f7fdff0a    ....    BL       __2printf ; 0x204
        0x000023f0:    f000f856    ..V.    BL       UART1_Init ; 0x24a0
        0x000023f4:    f000f868    ..h.    BL       UART2_Init ; 0x24c8
        0x000023f8:    480e        .H      LDR      r0,[pc,#56] ; [0x2434] = 0x20000000
        0x000023fa:    6801        .h      LDR      r1,[r0,#0]
        0x000023fc:    a00e        ..      ADR      r0,{pc}+0x3c ; 0x2438
        0x000023fe:    f7fdff01    ....    BL       __2printf ; 0x204
        0x00002402:    a011        ..      ADR      r0,{pc}+0x46 ; 0x2448
        0x00002404:    f7fdfefe    ....    BL       __2printf ; 0x204
        0x00002408:    2101        .!      MOVS     r1,#1
        0x0000240a:    4815        .H      LDR      r0,[pc,#84] ; [0x2460] = 0x40154000
        0x0000240c:    f000f8e4    ....    BL       UART_EnableInt ; 0x25d8
        0x00002410:    2101        .!      MOVS     r1,#1
        0x00002412:    4814        .H      LDR      r0,[pc,#80] ; [0x2464] = 0x40150000
        0x00002414:    f000f8e0    ....    BL       UART_EnableInt ; 0x25d8
        0x00002418:    2000        .       MOVS     r0,#0
        0x0000241a:    bd10        ..      POP      {r4,pc}
    $d
        0x0000241c:    6e617274    tran    DCD    1851880052
        0x00002420:    72656673    sfer    DCD    1919247987
        0x00002424:    72617520     uar    DCD    1918989600
        0x00002428:    6e692074    t in    DCD    1852383348
        0x0000242c:    0a217469    it!.    DCD    169964649
        0x00002430:    00000000    ....    DCD    0
        0x00002434:    20000000    ...     DCD    536870912
        0x00002438:    50430a0a    ..CP    DCD    1346570762
        0x0000243c:    20402055    U @     DCD    541073493
        0x00002440:    48206425    %d H    DCD    1210082341
        0x00002444:    00000a7a    z...    DCD    2682
        0x00002448:    5241550a    .UAR    DCD    1380013322
        0x0000244c:    61532054    T Sa    DCD    1632837716
        0x00002450:    656c706d    mple    DCD    1701605485
        0x00002454:    6f725020     Pro    DCD    1869762592
        0x00002458:    6d617267    gram    DCD    1835102823
        0x0000245c:    0000000a    ....    DCD    10
        0x00002460:    40154000    .@.@    DCD    1075134464
        0x00002464:    40150000    ...@    DCD    1075118080
    $t
    i.UART02_IRQHandler
    UART02_IRQHandler
        0x00002468:    b510        ..      PUSH     {r4,lr}
        0x0000246a:    f000f8cd    ....    BL       UART_TEST_HANDLE ; 0x2608
        0x0000246e:    bd10        ..      POP      {r4,pc}
    i.UART0_Init
    UART0_Init
        0x00002470:    2005        .       MOVS     r0,#5
        0x00002472:    0700        ..      LSLS     r0,r0,#28
        0x00002474:    68c2        .h      LDR      r2,[r0,#0xc]
        0x00002476:    2101        .!      MOVS     r1,#1
        0x00002478:    0409        ..      LSLS     r1,r1,#16
        0x0000247a:    430a        .C      ORRS     r2,r2,r1
        0x0000247c:    60c2        .`      STR      r2,[r0,#0xc]
        0x0000247e:    68c2        .h      LDR      r2,[r0,#0xc]
        0x00002480:    438a        .C      BICS     r2,r2,r1
        0x00002482:    60c2        .`      STR      r2,[r0,#0xc]
        0x00002484:    4803        .H      LDR      r0,[pc,#12] ; [0x2494] = 0x40050000
        0x00002486:    4902        .I      LDR      r1,[pc,#8] ; [0x2490] = 0x30000066
        0x00002488:    6241        Ab      STR      r1,[r0,#0x24]
        0x0000248a:    2103        .!      MOVS     r1,#3
        0x0000248c:    60c1        .`      STR      r1,[r0,#0xc]
        0x0000248e:    4770        pG      BX       lr
    $d
        0x00002490:    30000066    f..0    DCD    805306470
        0x00002494:    40050000    ...@    DCD    1074069504
    $t
    i.UART1_IRQHandler
    UART1_IRQHandler
        0x00002498:    b510        ..      PUSH     {r4,lr}
        0x0000249a:    f000f835    ..5.    BL       UART_4G_HANDLE ; 0x2508
        0x0000249e:    bd10        ..      POP      {r4,pc}
    i.UART1_Init
    UART1_Init
        0x000024a0:    2005        .       MOVS     r0,#5
        0x000024a2:    0700        ..      LSLS     r0,r0,#28
        0x000024a4:    68c2        .h      LDR      r2,[r0,#0xc]
        0x000024a6:    2101        .!      MOVS     r1,#1
        0x000024a8:    0449        I.      LSLS     r1,r1,#17
        0x000024aa:    430a        .C      ORRS     r2,r2,r1
        0x000024ac:    60c2        .`      STR      r2,[r0,#0xc]
        0x000024ae:    68c2        .h      LDR      r2,[r0,#0xc]
        0x000024b0:    438a        .C      BICS     r2,r2,r1
        0x000024b2:    60c2        .`      STR      r2,[r0,#0xc]
        0x000024b4:    4803        .H      LDR      r0,[pc,#12] ; [0x24c4] = 0x40150000
        0x000024b6:    4902        .I      LDR      r1,[pc,#8] ; [0x24c0] = 0x3000026f
        0x000024b8:    6241        Ab      STR      r1,[r0,#0x24]
        0x000024ba:    2103        .!      MOVS     r1,#3
        0x000024bc:    60c1        .`      STR      r1,[r0,#0xc]
        0x000024be:    4770        pG      BX       lr
    $d
        0x000024c0:    3000026f    o..0    DCD    805306991
        0x000024c4:    40150000    ...@    DCD    1075118080
    $t
    i.UART2_Init
    UART2_Init
        0x000024c8:    2005        .       MOVS     r0,#5
        0x000024ca:    0700        ..      LSLS     r0,r0,#28
        0x000024cc:    68c2        .h      LDR      r2,[r0,#0xc]
        0x000024ce:    2101        .!      MOVS     r1,#1
        0x000024d0:    0489        ..      LSLS     r1,r1,#18
        0x000024d2:    430a        .C      ORRS     r2,r2,r1
        0x000024d4:    60c2        .`      STR      r2,[r0,#0xc]
        0x000024d6:    68c2        .h      LDR      r2,[r0,#0xc]
        0x000024d8:    438a        .C      BICS     r2,r2,r1
        0x000024da:    60c2        .`      STR      r2,[r0,#0xc]
        0x000024dc:    4808        .H      LDR      r0,[pc,#32] ; [0x2500] = 0x40154000
        0x000024de:    4907        .I      LDR      r1,[pc,#28] ; [0x24fc] = 0x30000066
        0x000024e0:    6241        Ab      STR      r1,[r0,#0x24]
        0x000024e2:    2103        .!      MOVS     r1,#3
        0x000024e4:    60c1        .`      STR      r1,[r0,#0xc]
        0x000024e6:    4807        .H      LDR      r0,[pc,#28] ; [0x2504] = 0x200009b6
        0x000024e8:    2100        .!      MOVS     r1,#0
        0x000024ea:    7581        .u      STRB     r1,[r0,#0x16]
        0x000024ec:    7601        .v      STRB     r1,[r0,#0x18]
        0x000024ee:    7681        .v      STRB     r1,[r0,#0x1a]
        0x000024f0:    75c1        .u      STRB     r1,[r0,#0x17]
        0x000024f2:    7641        Av      STRB     r1,[r0,#0x19]
        0x000024f4:    2101        .!      MOVS     r1,#1
        0x000024f6:    76c1        .v      STRB     r1,[r0,#0x1b]
        0x000024f8:    4770        pG      BX       lr
    $d
        0x000024fa:    0000        ..      DCW    0
        0x000024fc:    30000066    f..0    DCD    805306470
        0x00002500:    40154000    .@.@    DCD    1075134464
        0x00002504:    200009b6    ...     DCD    536873398
    $t
    i.UART_4G_HANDLE
    UART_4G_HANDLE
        0x00002508:    b570        p.      PUSH     {r4-r6,lr}
        0x0000250a:    4c23        #L      LDR      r4,[pc,#140] ; [0x2598] = 0x40150000
        0x0000250c:    2101        .!      MOVS     r1,#1
        0x0000250e:    4620         F      MOV      r0,r4
        0x00002510:    f000f846    ..F.    BL       UART_ClearIntFlag ; 0x25a0
        0x00002514:    69e1        .i      LDR      r1,[r4,#0x1c]
        0x00002516:    07c9        ..      LSLS     r1,r1,#31
        0x00002518:    d00f        ..      BEQ      0x253a ; UART_4G_HANDLE + 50
        0x0000251a:    6820         h      LDR      r0,[r4,#0]
        0x0000251c:    4c1f        .L      LDR      r4,[pc,#124] ; [0x259c] = 0x2000003c
        0x0000251e:    b2c0        ..      UXTB     r0,r0
        0x00002520:    78e2        .x      LDRB     r2,[r4,#3]
        0x00002522:    2500        .%      MOVS     r5,#0
        0x00002524:    2101        .!      MOVS     r1,#1
        0x00002526:    0013        ..      MOVS     r3,r2
        0x00002528:    f000faae    ....    BL       __ARM_common_switch8 ; 0x2a88
    $d
        0x0000252c:    0f080508    ....    DCD    252183816
        0x00002530:    201d1a16    ...     DCD    538778134
        0x00002534:    2527        '%      DCW    9511
    $t
        0x00002536:    28ff        .(      CMP      r0,#0xff
        0x00002538:    d02b        +.      BEQ      0x2592 ; UART_4G_HANDLE + 138
        0x0000253a:    bd70        p.      POP      {r4-r6,pc}
        0x0000253c:    2855        U(      CMP      r0,#0x55
        0x0000253e:    d002        ..      BEQ      0x2546 ; UART_4G_HANDLE + 62
        0x00002540:    28ff        .(      CMP      r0,#0xff
        0x00002542:    d0fa        ..      BEQ      0x253a ; UART_4G_HANDLE + 50
        0x00002544:    e017        ..      B        0x2576 ; UART_4G_HANDLE + 110
        0x00002546:    2002        .       MOVS     r0,#2
        0x00002548:    e013        ..      B        0x2572 ; UART_4G_HANDLE + 106
        0x0000254a:    2804        .(      CMP      r0,#4
        0x0000254c:    d101        ..      BNE      0x2552 ; UART_4G_HANDLE + 74
        0x0000254e:    2003        .       MOVS     r0,#3
        0x00002550:    e00f        ..      B        0x2572 ; UART_4G_HANDLE + 106
        0x00002552:    28ff        .(      CMP      r0,#0xff
        0x00002554:    d01d        ..      BEQ      0x2592 ; UART_4G_HANDLE + 138
        0x00002556:    e00e        ..      B        0x2576 ; UART_4G_HANDLE + 110
        0x00002558:    2880        .(      CMP      r0,#0x80
        0x0000255a:    d1fa        ..      BNE      0x2552 ; UART_4G_HANDLE + 74
        0x0000255c:    2004        .       MOVS     r0,#4
        0x0000255e:    e008        ..      B        0x2572 ; UART_4G_HANDLE + 106
        0x00002560:    7020         p      STRB     r0,[r4,#0]
        0x00002562:    2005        .       MOVS     r0,#5
        0x00002564:    e005        ..      B        0x2572 ; UART_4G_HANDLE + 106
        0x00002566:    7060        `p      STRB     r0,[r4,#1]
        0x00002568:    2006        .       MOVS     r0,#6
        0x0000256a:    e002        ..      B        0x2572 ; UART_4G_HANDLE + 106
        0x0000256c:    2800        .(      CMP      r0,#0
        0x0000256e:    d1f0        ..      BNE      0x2552 ; UART_4G_HANDLE + 74
        0x00002570:    2007        .       MOVS     r0,#7
        0x00002572:    70e0        .p      STRB     r0,[r4,#3]
        0x00002574:    bd70        p.      POP      {r4-r6,pc}
        0x00002576:    70e5        .p      STRB     r5,[r4,#3]
        0x00002578:    bd70        p.      POP      {r4-r6,pc}
        0x0000257a:    28ff        .(      CMP      r0,#0xff
        0x0000257c:    d009        ..      BEQ      0x2592 ; UART_4G_HANDLE + 138
        0x0000257e:    7862        bx      LDRB     r2,[r4,#1]
        0x00002580:    2300        .#      MOVS     r3,#0
        0x00002582:    7821        !x      LDRB     r1,[r4,#0]
        0x00002584:    2001        .       MOVS     r0,#1
        0x00002586:    f7fefbe9    ....    BL       Core_Msg_Send ; 0xd5c
        0x0000258a:    20ff        .       MOVS     r0,#0xff
        0x0000258c:    7020         p      STRB     r0,[r4,#0]
        0x0000258e:    7060        `p      STRB     r0,[r4,#1]
        0x00002590:    e7f1        ..      B        0x2576 ; UART_4G_HANDLE + 110
        0x00002592:    70e1        .p      STRB     r1,[r4,#3]
        0x00002594:    bd70        p.      POP      {r4-r6,pc}
    $d
        0x00002596:    0000        ..      DCW    0
        0x00002598:    40150000    ...@    DCD    1075118080
        0x0000259c:    2000003c    <..     DCD    536870972
    $t
    i.UART_ClearIntFlag
    UART_ClearIntFlag
        0x000025a0:    054a        J.      LSLS     r2,r1,#21
        0x000025a2:    d501        ..      BPL      0x25a8 ; UART_ClearIntFlag + 8
        0x000025a4:    2268        h"      MOVS     r2,#0x68
        0x000025a6:    6182        .a      STR      r2,[r0,#0x18]
        0x000025a8:    050a        ..      LSLS     r2,r1,#20
        0x000025aa:    d503        ..      BPL      0x25b4 ; UART_ClearIntFlag + 20
        0x000025ac:    6942        Bi      LDR      r2,[r0,#0x14]
        0x000025ae:    2301        .#      MOVS     r3,#1
        0x000025b0:    431a        .C      ORRS     r2,r2,r3
        0x000025b2:    6142        Ba      STR      r2,[r0,#0x14]
        0x000025b4:    048a        ..      LSLS     r2,r1,#18
        0x000025b6:    d501        ..      BPL      0x25bc ; UART_ClearIntFlag + 28
        0x000025b8:    4a06        .J      LDR      r2,[pc,#24] ; [0x25d4] = 0x1000001
        0x000025ba:    6182        .a      STR      r2,[r0,#0x18]
        0x000025bc:    044a        J.      LSLS     r2,r1,#17
        0x000025be:    d501        ..      BPL      0x25c4 ; UART_ClearIntFlag + 36
        0x000025c0:    6c42        Bl      LDR      r2,[r0,#0x44]
        0x000025c2:    6442        Bd      STR      r2,[r0,#0x44]
        0x000025c4:    0409        ..      LSLS     r1,r1,#16
        0x000025c6:    d503        ..      BPL      0x25d0 ; UART_ClearIntFlag + 48
        0x000025c8:    2180        .!      MOVS     r1,#0x80
        0x000025ca:    61c1        .a      STR      r1,[r0,#0x1c]
        0x000025cc:    6b81        .k      LDR      r1,[r0,#0x38]
        0x000025ce:    6381        .c      STR      r1,[r0,#0x38]
        0x000025d0:    4770        pG      BX       lr
    $d
        0x000025d2:    0000        ..      DCW    0
        0x000025d4:    01000001    ....    DCD    16777217
    $t
    i.UART_EnableInt
    UART_EnableInt
        0x000025d8:    6842        Bh      LDR      r2,[r0,#4]
        0x000025da:    430a        .C      ORRS     r2,r2,r1
        0x000025dc:    6042        B`      STR      r2,[r0,#4]
        0x000025de:    4b07        .K      LDR      r3,[pc,#28] ; [0x25fc] = 0x40050000
        0x000025e0:    2201        ."      MOVS     r2,#1
        0x000025e2:    0312        ..      LSLS     r2,r2,#12
        0x000025e4:    4906        .I      LDR      r1,[pc,#24] ; [0x2600] = 0xe000e100
        0x000025e6:    4298        .B      CMP      r0,r3
        0x000025e8:    d101        ..      BNE      0x25ee ; UART_EnableInt + 22
        0x000025ea:    600a        .`      STR      r2,[r1,#0]
        0x000025ec:    4770        pG      BX       lr
        0x000025ee:    4b05        .K      LDR      r3,[pc,#20] ; [0x2604] = 0x40150000
        0x000025f0:    4298        .B      CMP      r0,r3
        0x000025f2:    d1fa        ..      BNE      0x25ea ; UART_EnableInt + 18
        0x000025f4:    2001        .       MOVS     r0,#1
        0x000025f6:    0340        @.      LSLS     r0,r0,#13
        0x000025f8:    6008        .`      STR      r0,[r1,#0]
        0x000025fa:    4770        pG      BX       lr
    $d
        0x000025fc:    40050000    ...@    DCD    1074069504
        0x00002600:    e000e100    ....    DCD    3758153984
        0x00002604:    40150000    ...@    DCD    1075118080
    $t
    i.UART_TEST_HANDLE
    UART_TEST_HANDLE
        0x00002608:    b570        p.      PUSH     {r4-r6,lr}
        0x0000260a:    4e1d        .N      LDR      r6,[pc,#116] ; [0x2680] = 0x40050000
        0x0000260c:    2101        .!      MOVS     r1,#1
        0x0000260e:    4630        0F      MOV      r0,r6
        0x00002610:    f7ffffc6    ....    BL       UART_ClearIntFlag ; 0x25a0
        0x00002614:    4c1b        .L      LDR      r4,[pc,#108] ; [0x2684] = 0x40154000
        0x00002616:    2101        .!      MOVS     r1,#1
        0x00002618:    4620         F      MOV      r0,r4
        0x0000261a:    f7ffffc1    ....    BL       UART_ClearIntFlag ; 0x25a0
        0x0000261e:    69f0        .i      LDR      r0,[r6,#0x1c]
        0x00002620:    2500        .%      MOVS     r5,#0
        0x00002622:    07c0        ..      LSLS     r0,r0,#31
        0x00002624:    4b18        .K      LDR      r3,[pc,#96] ; [0x2688] = 0x2000003c
        0x00002626:    2800        .(      CMP      r0,#0
        0x00002628:    d018        ..      BEQ      0x265c ; UART_TEST_HANDLE + 84
        0x0000262a:    6830        0h      LDR      r0,[r6,#0]
        0x0000262c:    b2c0        ..      UXTB     r0,r0
        0x0000262e:    2830        0(      CMP      r0,#0x30
        0x00002630:    d100        ..      BNE      0x2634 ; UART_TEST_HANDLE + 44
        0x00002632:    60dd        .`      STR      r5,[r3,#0xc]
        0x00002634:    6859        Yh      LDR      r1,[r3,#4]
        0x00002636:    2201        ."      MOVS     r2,#1
        0x00002638:    0292        ..      LSLS     r2,r2,#10
        0x0000263a:    4291        .B      CMP      r1,r2
        0x0000263c:    d20e        ..      BCS      0x265c ; UART_TEST_HANDLE + 84
        0x0000263e:    4913        .I      LDR      r1,[pc,#76] ; [0x268c] = 0x20000460
        0x00002640:    689a        .h      LDR      r2,[r3,#8]
        0x00002642:    5488        .T      STRB     r0,[r1,r2]
        0x00002644:    6898        .h      LDR      r0,[r3,#8]
        0x00002646:    4912        .I      LDR      r1,[pc,#72] ; [0x2690] = 0x3ff
        0x00002648:    4288        .B      CMP      r0,r1
        0x0000264a:    d101        ..      BNE      0x2650 ; UART_TEST_HANDLE + 72
        0x0000264c:    2000        .       MOVS     r0,#0
        0x0000264e:    e001        ..      B        0x2654 ; UART_TEST_HANDLE + 76
        0x00002650:    6898        .h      LDR      r0,[r3,#8]
        0x00002652:    1c40        @.      ADDS     r0,r0,#1
        0x00002654:    6098        .`      STR      r0,[r3,#8]
        0x00002656:    6858        Xh      LDR      r0,[r3,#4]
        0x00002658:    1c40        @.      ADDS     r0,r0,#1
        0x0000265a:    6058        X`      STR      r0,[r3,#4]
        0x0000265c:    69e0        .i      LDR      r0,[r4,#0x1c]
        0x0000265e:    05c0        ..      LSLS     r0,r0,#23
        0x00002660:    d50d        ..      BPL      0x267e ; UART_TEST_HANDLE + 118
        0x00002662:    4a0c        .J      LDR      r2,[pc,#48] ; [0x2694] = 0x20000860
        0x00002664:    69e0        .i      LDR      r0,[r4,#0x1c]
        0x00002666:    07c0        ..      LSLS     r0,r0,#31
        0x00002668:    d009        ..      BEQ      0x267e ; UART_TEST_HANDLE + 118
        0x0000266a:    6820         h      LDR      r0,[r4,#0]
        0x0000266c:    7899        .x      LDRB     r1,[r3,#2]
        0x0000266e:    5450        PT      STRB     r0,[r2,r1]
        0x00002670:    1c49        I.      ADDS     r1,r1,#1
        0x00002672:    b2c8        ..      UXTB     r0,r1
        0x00002674:    7098        .p      STRB     r0,[r3,#2]
        0x00002676:    288c        .(      CMP      r0,#0x8c
        0x00002678:    d9f4        ..      BLS      0x2664 ; UART_TEST_HANDLE + 92
        0x0000267a:    709d        .p      STRB     r5,[r3,#2]
        0x0000267c:    e7f2        ..      B        0x2664 ; UART_TEST_HANDLE + 92
        0x0000267e:    bd70        p.      POP      {r4-r6,pc}
    $d
        0x00002680:    40050000    ...@    DCD    1074069504
        0x00002684:    40154000    .@.@    DCD    1075134464
        0x00002688:    2000003c    <..     DCD    536870972
        0x0000268c:    20000460    `..     DCD    536872032
        0x00002690:    000003ff    ....    DCD    1023
        0x00002694:    20000860    `..     DCD    536873056
    $t
    i.USCI0_Init
    USCI0_Init
        0x00002698:    b510        ..      PUSH     {r4,lr}
        0x0000269a:    2005        .       MOVS     r0,#5
        0x0000269c:    0700        ..      LSLS     r0,r0,#28
        0x0000269e:    6902        .i      LDR      r2,[r0,#0x10]
        0x000026a0:    21ff        .!      MOVS     r1,#0xff
        0x000026a2:    3101        .1      ADDS     r1,#1
        0x000026a4:    430a        .C      ORRS     r2,r2,r1
        0x000026a6:    6102        .a      STR      r2,[r0,#0x10]
        0x000026a8:    6902        .i      LDR      r2,[r0,#0x10]
        0x000026aa:    438a        .C      BICS     r2,r2,r1
        0x000026ac:    6102        .a      STR      r2,[r0,#0x10]
        0x000026ae:    4c0b        .L      LDR      r4,[pc,#44] ; [0x26dc] = 0x40070000
        0x000026b0:    2002        .       MOVS     r0,#2
        0x000026b2:    6020         `      STR      r0,[r4,#0]
        0x000026b4:    480a        .H      LDR      r0,[pc,#40] ; [0x26e0] = 0x801
        0x000026b6:    62e0        .b      STR      r0,[r4,#0x2c]
        0x000026b8:    2010        .       MOVS     r0,#0x10
        0x000026ba:    6120         a      STR      r0,[r4,#0x10]
        0x000026bc:    4807        .H      LDR      r0,[pc,#28] ; [0x26dc] = 0x40070000
        0x000026be:    3040        @0      ADDS     r0,r0,#0x40
        0x000026c0:    69c1        .i      LDR      r1,[r0,#0x1c]
        0x000026c2:    0642        B.      LSLS     r2,r0,#25
        0x000026c4:    4311        .C      ORRS     r1,r1,r2
        0x000026c6:    61c1        .a      STR      r1,[r0,#0x1c]
        0x000026c8:    4806        .H      LDR      r0,[pc,#24] ; [0x26e4] = 0x8000008
        0x000026ca:    f7fffb95    ....    BL       SYS_ResetModule ; 0x1df8
        0x000026ce:    214b        K!      MOVS     r1,#0x4b
        0x000026d0:    0209        ..      LSLS     r1,r1,#8
        0x000026d2:    4620         F      MOV      r0,r4
        0x000026d4:    f000f940    ..@.    BL       UUART_Open ; 0x2958
        0x000026d8:    bd10        ..      POP      {r4,pc}
    $d
        0x000026da:    0000        ..      DCW    0
        0x000026dc:    40070000    ...@    DCD    1074200576
        0x000026e0:    00000801    ....    DCD    2049
        0x000026e4:    08000008    ....    DCD    134217736
    $t
    i.USCI_IRQHandler
    USCI_IRQHandler
        0x000026e8:    b510        ..      PUSH     {r4,lr}
        0x000026ea:    f000f8c5    ....    BL       USCI_UART_TEST_HANDLE ; 0x2878
        0x000026ee:    bd10        ..      POP      {r4,pc}
    i.USCI_UART_FunctionTest
    USCI_UART_FunctionTest
        0x000026f0:    b510        ..      PUSH     {r4,lr}
        0x000026f2:    a00f        ..      ADR      r0,{pc}+0x3e ; 0x2730
        0x000026f4:    f7fdfd86    ....    BL       __2printf ; 0x204
        0x000026f8:    a01d        ..      ADR      r0,{pc}+0x78 ; 0x2770
        0x000026fa:    f7fdfd83    ....    BL       __2printf ; 0x204
        0x000026fe:    a00c        ..      ADR      r0,{pc}+0x32 ; 0x2730
        0x00002700:    f7fdfd80    ....    BL       __2printf ; 0x204
        0x00002704:    a02a        *.      ADR      r0,{pc}+0xac ; 0x27b0
        0x00002706:    f7fdfd7d    ..}.    BL       __2printf ; 0x204
        0x0000270a:    a039        9.      ADR      r0,{pc}+0xe6 ; 0x27f0
        0x0000270c:    f7fdfd7a    ..z.    BL       __2printf ; 0x204
        0x00002710:    a047        G.      ADR      r0,{pc}+0x120 ; 0x2830
        0x00002712:    f7fdfd77    ..w.    BL       __2printf ; 0x204
        0x00002716:    a006        ..      ADR      r0,{pc}+0x1a ; 0x2730
        0x00002718:    f7fdfd74    ..t.    BL       __2printf ; 0x204
        0x0000271c:    4854        TH      LDR      r0,[pc,#336] ; [0x2870] = 0x40070000
        0x0000271e:    6841        Ah      LDR      r1,[r0,#4]
        0x00002720:    2210        ."      MOVS     r2,#0x10
        0x00002722:    4311        .C      ORRS     r1,r1,r2
        0x00002724:    6041        A`      STR      r1,[r0,#4]
        0x00002726:    4953        SI      LDR      r1,[pc,#332] ; [0x2874] = 0xe000e100
        0x00002728:    0490        ..      LSLS     r0,r2,#18
        0x0000272a:    6008        .`      STR      r0,[r1,#0]
        0x0000272c:    bd10        ..      POP      {r4,pc}
    $d
        0x0000272e:    0000        ..      DCW    0
        0x00002730:    2d2d2d2b    +---    DCD    757935403
        0x00002734:    2d2d2d2d    ----    DCD    757935405
        0x00002738:    2d2d2d2d    ----    DCD    757935405
        0x0000273c:    2d2d2d2d    ----    DCD    757935405
        0x00002740:    2d2d2d2d    ----    DCD    757935405
        0x00002744:    2d2d2d2d    ----    DCD    757935405
        0x00002748:    2d2d2d2d    ----    DCD    757935405
        0x0000274c:    2d2d2d2d    ----    DCD    757935405
        0x00002750:    2d2d2d2d    ----    DCD    757935405
        0x00002754:    2d2d2d2d    ----    DCD    757935405
        0x00002758:    2d2d2d2d    ----    DCD    757935405
        0x0000275c:    2d2d2d2d    ----    DCD    757935405
        0x00002760:    2d2d2d2d    ----    DCD    757935405
        0x00002764:    2d2d2d2d    ----    DCD    757935405
        0x00002768:    2d2d2d2d    ----    DCD    757935405
        0x0000276c:    00000a2b    +...    DCD    2603
        0x00002770:    5520207c    |  U    DCD    1428168828
        0x00002774:    20494353    SCI     DCD    541672275
        0x00002778:    54524155    UART    DCD    1414676821
        0x0000277c:    6e754620     Fun    DCD    1853179424
        0x00002780:    6f697463    ctio    DCD    1869182051
        0x00002784:    6554206e    n Te    DCD    1700012142
        0x00002788:    20207473    st      DCD    538997875
        0x0000278c:    20202020            DCD    538976288
        0x00002790:    20202020            DCD    538976288
        0x00002794:    20202020            DCD    538976288
        0x00002798:    20202020            DCD    538976288
        0x0000279c:    20202020            DCD    538976288
        0x000027a0:    20202020            DCD    538976288
        0x000027a4:    20202020            DCD    538976288
        0x000027a8:    20202020            DCD    538976288
        0x000027ac:    00000a7c    |...    DCD    2684
        0x000027b0:    4420207c    |  D    DCD    1142956156
        0x000027b4:    72637365    escr    DCD    1919120229
        0x000027b8:    69747069    ipti    DCD    1769238633
        0x000027bc:    3a206e6f    on :    DCD    975203951
        0x000027c0:    20202020            DCD    538976288
        0x000027c4:    20202020            DCD    538976288
        0x000027c8:    20202020            DCD    538976288
        0x000027cc:    20202020            DCD    538976288
        0x000027d0:    20202020            DCD    538976288
        0x000027d4:    20202020            DCD    538976288
        0x000027d8:    20202020            DCD    538976288
        0x000027dc:    20202020            DCD    538976288
        0x000027e0:    20202020            DCD    538976288
        0x000027e4:    20202020            DCD    538976288
        0x000027e8:    20202020            DCD    538976288
        0x000027ec:    00000a7c    |...    DCD    2684
        0x000027f0:    2020207c    |       DCD    538976380
        0x000027f4:    65685420     The    DCD    1701336096
        0x000027f8:    6d617320     sam    DCD    1835103008
        0x000027fc:    20656c70    ple     DCD    543517808
        0x00002800:    65646f63    code    DCD    1701080931
        0x00002804:    6c697720     wil    DCD    1818851104
        0x00002808:    7270206c    l pr    DCD    1919950956
        0x0000280c:    20746e69    int     DCD    544501353
        0x00002810:    75706e69    inpu    DCD    1970302569
        0x00002814:    68632074    t ch    DCD    1751326836
        0x00002818:    6f207261    ar o    DCD    1864397409
        0x0000281c:    6574206e    n te    DCD    1702109294
        0x00002820:    6e696d72    rmin    DCD    1852403058
        0x00002824:    20206c61    al      DCD    538995809
        0x00002828:    20202020            DCD    538976288
        0x0000282c:    00000a7c    |...    DCD    2684
        0x00002830:    2020207c    |       DCD    538976380
        0x00002834:    656c5020     Ple    DCD    1701597216
        0x00002838:    20657361    ase     DCD    543519585
        0x0000283c:    65746e65    ente    DCD    1702129253
        0x00002840:    6e612072    r an    DCD    1851859058
        0x00002844:    6f742079    y to    DCD    1869881465
        0x00002848:    61747320     sta    DCD    1635021600
        0x0000284c:    20207472    rt      DCD    538997874
        0x00002850:    28202020       (    DCD    673194016
        0x00002854:    73657250    Pres    DCD    1936028240
        0x00002858:    30272073    s '0    DCD    807870579
        0x0000285c:    6f742027    ' to    DCD    1869881383
        0x00002860:    69786520     exi    DCD    1769497888
        0x00002864:    20202974    t)      DCD    538978676
        0x00002868:    20202020            DCD    538976288
        0x0000286c:    00000a7c    |...    DCD    2684
        0x00002870:    40070000    ...@    DCD    1074200576
        0x00002874:    e000e100    ....    DCD    3758153984
    $t
    i.USCI_UART_TEST_HANDLE
    USCI_UART_TEST_HANDLE
        0x00002878:    b570        p.      PUSH     {r4-r6,lr}
        0x0000287a:    4821        !H      LDR      r0,[pc,#132] ; [0x2900] = 0x40070000
        0x0000287c:    6bc1        .k      LDR      r1,[r0,#0x3c]
        0x0000287e:    07c9        ..      LSLS     r1,r1,#31
        0x00002880:    d139        9.      BNE      0x28f6 ; USCI_UART_TEST_HANDLE + 126
        0x00002882:    6b40        @k      LDR      r0,[r0,#0x34]
        0x00002884:    4c1f        .L      LDR      r4,[pc,#124] ; [0x2904] = 0x2000004c
        0x00002886:    b2c0        ..      UXTB     r0,r0
        0x00002888:    78e2        .x      LDRB     r2,[r4,#3]
        0x0000288a:    2500        .%      MOVS     r5,#0
        0x0000288c:    2101        .!      MOVS     r1,#1
        0x0000288e:    0013        ..      MOVS     r3,r2
        0x00002890:    f000f8fa    ....    BL       __ARM_common_switch8 ; 0x2a88
    $d
        0x00002894:    10090508    ....    DCD    269026568
        0x00002898:    201d1a13    ...     DCD    538778131
        0x0000289c:    3024        $0      DCW    12324
    $t
        0x0000289e:    28ff        .(      CMP      r0,#0xff
        0x000028a0:    d129        ).      BNE      0x28f6 ; USCI_UART_TEST_HANDLE + 126
        0x000028a2:    70e1        .p      STRB     r1,[r4,#3]
        0x000028a4:    e027        '.      B        0x28f6 ; USCI_UART_TEST_HANDLE + 126
        0x000028a6:    2855        U(      CMP      r0,#0x55
        0x000028a8:    d002        ..      BEQ      0x28b0 ; USCI_UART_TEST_HANDLE + 56
        0x000028aa:    28ff        .(      CMP      r0,#0xff
        0x000028ac:    d023        #.      BEQ      0x28f6 ; USCI_UART_TEST_HANDLE + 126
        0x000028ae:    e021        !.      B        0x28f4 ; USCI_UART_TEST_HANDLE + 124
        0x000028b0:    2002        .       MOVS     r0,#2
        0x000028b2:    e011        ..      B        0x28d8 ; USCI_UART_TEST_HANDLE + 96
        0x000028b4:    2803        .(      CMP      r0,#3
        0x000028b6:    d00f        ..      BEQ      0x28d8 ; USCI_UART_TEST_HANDLE + 96
        0x000028b8:    e001        ..      B        0x28be ; USCI_UART_TEST_HANDLE + 70
        0x000028ba:    2880        .(      CMP      r0,#0x80
        0x000028bc:    d002        ..      BEQ      0x28c4 ; USCI_UART_TEST_HANDLE + 76
        0x000028be:    28ff        .(      CMP      r0,#0xff
        0x000028c0:    d0ef        ..      BEQ      0x28a2 ; USCI_UART_TEST_HANDLE + 42
        0x000028c2:    e017        ..      B        0x28f4 ; USCI_UART_TEST_HANDLE + 124
        0x000028c4:    2004        .       MOVS     r0,#4
        0x000028c6:    e007        ..      B        0x28d8 ; USCI_UART_TEST_HANDLE + 96
        0x000028c8:    7020         p      STRB     r0,[r4,#0]
        0x000028ca:    2005        .       MOVS     r0,#5
        0x000028cc:    e004        ..      B        0x28d8 ; USCI_UART_TEST_HANDLE + 96
        0x000028ce:    7060        `p      STRB     r0,[r4,#1]
        0x000028d0:    2006        .       MOVS     r0,#6
        0x000028d2:    e001        ..      B        0x28d8 ; USCI_UART_TEST_HANDLE + 96
        0x000028d4:    70a0        .p      STRB     r0,[r4,#2]
        0x000028d6:    2007        .       MOVS     r0,#7
        0x000028d8:    70e0        .p      STRB     r0,[r4,#3]
        0x000028da:    e00c        ..      B        0x28f6 ; USCI_UART_TEST_HANDLE + 126
        0x000028dc:    28ff        .(      CMP      r0,#0xff
        0x000028de:    d0e0        ..      BEQ      0x28a2 ; USCI_UART_TEST_HANDLE + 42
        0x000028e0:    78a3        .x      LDRB     r3,[r4,#2]
        0x000028e2:    7862        bx      LDRB     r2,[r4,#1]
        0x000028e4:    7821        !x      LDRB     r1,[r4,#0]
        0x000028e6:    2002        .       MOVS     r0,#2
        0x000028e8:    f7fefa38    ..8.    BL       Core_Msg_Send ; 0xd5c
        0x000028ec:    20ff        .       MOVS     r0,#0xff
        0x000028ee:    7020         p      STRB     r0,[r4,#0]
        0x000028f0:    7060        `p      STRB     r0,[r4,#1]
        0x000028f2:    70a0        .p      STRB     r0,[r4,#2]
        0x000028f4:    70e5        .p      STRB     r5,[r4,#3]
        0x000028f6:    4902        .I      LDR      r1,[pc,#8] ; [0x2900] = 0x40070000
        0x000028f8:    2010        .       MOVS     r0,#0x10
        0x000028fa:    3140        @1      ADDS     r1,r1,#0x40
        0x000028fc:    6248        Hb      STR      r0,[r1,#0x24]
        0x000028fe:    bd70        p.      POP      {r4-r6,pc}
    $d
        0x00002900:    40070000    ...@    DCD    1074200576
        0x00002904:    2000004c    L..     DCD    536870988
    $t
    i.USCI_Uart_Init
    USCI_Uart_Init
        0x00002908:    b510        ..      PUSH     {r4,lr}
        0x0000290a:    f7fffec5    ....    BL       USCI0_Init ; 0x2698
        0x0000290e:    4806        .H      LDR      r0,[pc,#24] ; [0x2928] = 0x20000000
        0x00002910:    6801        .h      LDR      r1,[r0,#0]
        0x00002912:    a006        ..      ADR      r0,{pc}+0x1a ; 0x292c
        0x00002914:    f7fdfc76    ..v.    BL       __2printf ; 0x204
        0x00002918:    a008        ..      ADR      r0,{pc}+0x24 ; 0x293c
        0x0000291a:    f7fdfc73    ..s.    BL       __2printf ; 0x204
        0x0000291e:    f7fffee7    ....    BL       USCI_UART_FunctionTest ; 0x26f0
        0x00002922:    2000        .       MOVS     r0,#0
        0x00002924:    bd10        ..      POP      {r4,pc}
    $d
        0x00002926:    0000        ..      DCW    0
        0x00002928:    20000000    ...     DCD    536870912
        0x0000292c:    50430a0a    ..CP    DCD    1346570762
        0x00002930:    20402055    U @     DCD    541073493
        0x00002934:    48206425    %d H    DCD    1210082341
        0x00002938:    00000a7a    z...    DCD    2682
        0x0000293c:    4353550a    .USC    DCD    1129534730
        0x00002940:    41552049    I UA    DCD    1096097865
        0x00002944:    53205452    RT S    DCD    1394627666
        0x00002948:    6c706d61    ampl    DCD    1819307361
        0x0000294c:    72502065    e Pr    DCD    1917853797
        0x00002950:    6172676f    ogra    DCD    1634887535
        0x00002954:    00000a6d    m...    DCD    2669
    $t
    i.UUART_Open
    UUART_Open
        0x00002958:    b5f0        ..      PUSH     {r4-r7,lr}
        0x0000295a:    4606        .F      MOV      r6,r0
        0x0000295c:    4847        GH      LDR      r0,[pc,#284] ; [0x2a7c] = 0x40070000
        0x0000295e:    b085        ..      SUB      sp,sp,#0x14
        0x00002960:    460d        .F      MOV      r5,r1
        0x00002962:    4286        .B      CMP      r6,r0
        0x00002964:    d002        ..      BEQ      0x296c ; UUART_Open + 20
        0x00002966:    4846        FH      LDR      r0,[pc,#280] ; [0x2a80] = 0x40074000
        0x00002968:    4286        .B      CMP      r6,r0
        0x0000296a:    d102        ..      BNE      0x2972 ; UUART_Open + 26
        0x0000296c:    f7fef86c    ..l.    BL       CLK_GetPCLK0Freq ; 0xa48
        0x00002970:    e001        ..      B        0x2976 ; UUART_Open + 30
        0x00002972:    f7fef879    ..y.    BL       CLK_GetPCLK1Freq ; 0xa68
        0x00002976:    4629        )F      MOV      r1,r5
        0x00002978:    9002        ..      STR      r0,[sp,#8]
        0x0000297a:    f7fdfd77    ..w.    BL       __aeabi_uidiv ; 0x46c
        0x0000297e:    4604        .F      MOV      r4,r0
        0x00002980:    4601        .F      MOV      r1,r0
        0x00002982:    9802        ..      LDR      r0,[sp,#8]
        0x00002984:    f7fdfd72    ..r.    BL       __aeabi_uidiv ; 0x46c
        0x00002988:    1b47        G.      SUBS     r7,r0,r5
        0x0000298a:    1c61        a.      ADDS     r1,r4,#1
        0x0000298c:    9802        ..      LDR      r0,[sp,#8]
        0x0000298e:    f7fdfd6d    ..m.    BL       __aeabi_uidiv ; 0x46c
        0x00002992:    1a28        (.      SUBS     r0,r5,r0
        0x00002994:    4287        .B      CMP      r7,r0
        0x00002996:    d300        ..      BCC      0x299a ; UUART_Open + 66
        0x00002998:    1c64        d.      ADDS     r4,r4,#1
        0x0000299a:    2001        .       MOVS     r0,#1
        0x0000299c:    0400        ..      LSLS     r0,r0,#16
        0x0000299e:    4284        .B      CMP      r4,r0
        0x000029a0:    d305        ..      BCC      0x29ae ; UUART_Open + 86
        0x000029a2:    2010        .       MOVS     r0,#0x10
        0x000029a4:    2504        .%      MOVS     r5,#4
        0x000029a6:    9000        ..      STR      r0,[sp,#0]
        0x000029a8:    0180        ..      LSLS     r0,r0,#6
        0x000029aa:    9001        ..      STR      r0,[sp,#4]
        0x000029ac:    e03c        <.      B        0x2a28 ; UUART_Open + 208
        0x000029ae:    2101        .!      MOVS     r1,#1
        0x000029b0:    0389        ..      LSLS     r1,r1,#14
        0x000029b2:    2501        .%      MOVS     r5,#1
        0x000029b4:    4608        .F      MOV      r0,r1
        0x000029b6:    4368        hC      MULS     r0,r5,r0
        0x000029b8:    42a0        .B      CMP      r0,r4
        0x000029ba:    d203        ..      BCS      0x29c4 ; UUART_Open + 108
        0x000029bc:    1c6d        m.      ADDS     r5,r5,#1
        0x000029be:    2d04        .-      CMP      r5,#4
        0x000029c0:    d9f8        ..      BLS      0x29b4 ; UUART_Open + 92
        0x000029c2:    e001        ..      B        0x29c8 ; UUART_Open + 112
        0x000029c4:    2d04        .-      CMP      r5,#4
        0x000029c6:    d900        ..      BLS      0x29ca ; UUART_Open + 114
        0x000029c8:    2504        .%      MOVS     r5,#4
        0x000029ca:    4629        )F      MOV      r1,r5
        0x000029cc:    4620         F      MOV      r0,r4
        0x000029ce:    f7fdfd4d    ..M.    BL       __aeabi_uidiv ; 0x46c
        0x000029d2:    9003        ..      STR      r0,[sp,#0xc]
        0x000029d4:    2000        .       MOVS     r0,#0
        0x000029d6:    2700        .'      MOVS     r7,#0
        0x000029d8:    43ff        .C      MVNS     r7,r7
        0x000029da:    9000        ..      STR      r0,[sp,#0]
        0x000029dc:    2406        .$      MOVS     r4,#6
        0x000029de:    9001        ..      STR      r0,[sp,#4]
        0x000029e0:    4621        !F      MOV      r1,r4
        0x000029e2:    9803        ..      LDR      r0,[sp,#0xc]
        0x000029e4:    f7fdfd42    ..B.    BL       __aeabi_uidiv ; 0x46c
        0x000029e8:    2101        .!      MOVS     r1,#1
        0x000029ea:    0289        ..      LSLS     r1,r1,#10
        0x000029ec:    4288        .B      CMP      r0,r1
        0x000029ee:    d905        ..      BLS      0x29fc ; UUART_Open + 164
        0x000029f0:    4608        .F      MOV      r0,r1
        0x000029f2:    9903        ..      LDR      r1,[sp,#0xc]
        0x000029f4:    02a2        ..      LSLS     r2,r4,#10
        0x000029f6:    1a8a        ..      SUBS     r2,r1,r2
        0x000029f8:    1c51        Q.      ADDS     r1,r2,#1
        0x000029fa:    e007        ..      B        0x2a0c ; UUART_Open + 180
        0x000029fc:    4601        .F      MOV      r1,r0
        0x000029fe:    9a03        ..      LDR      r2,[sp,#0xc]
        0x00002a00:    4361        aC      MULS     r1,r4,r1
        0x00002a02:    1a52        R.      SUBS     r2,r2,r1
        0x00002a04:    1c41        A.      ADDS     r1,r0,#1
        0x00002a06:    9b03        ..      LDR      r3,[sp,#0xc]
        0x00002a08:    4361        aC      MULS     r1,r4,r1
        0x00002a0a:    1ac9        ..      SUBS     r1,r1,r3
        0x00002a0c:    428a        .B      CMP      r2,r1
        0x00002a0e:    d301        ..      BCC      0x2a14 ; UUART_Open + 188
        0x00002a10:    1c40        @.      ADDS     r0,r0,#1
        0x00002a12:    e000        ..      B        0x2a16 ; UUART_Open + 190
        0x00002a14:    4611        .F      MOV      r1,r2
        0x00002a16:    42b9        .B      CMP      r1,r7
        0x00002a18:    d203        ..      BCS      0x2a22 ; UUART_Open + 202
        0x00002a1a:    000f        ..      MOVS     r7,r1
        0x00002a1c:    9400        ..      STR      r4,[sp,#0]
        0x00002a1e:    9001        ..      STR      r0,[sp,#4]
        0x00002a20:    d002        ..      BEQ      0x2a28 ; UUART_Open + 208
        0x00002a22:    1c64        d.      ADDS     r4,r4,#1
        0x00002a24:    2c10        .,      CMP      r4,#0x10
        0x00002a26:    d9db        ..      BLS      0x29e0 ; UUART_Open + 136
        0x00002a28:    6830        0h      LDR      r0,[r6,#0]
        0x00002a2a:    08c0        ..      LSRS     r0,r0,#3
        0x00002a2c:    00c0        ..      LSLS     r0,r0,#3
        0x00002a2e:    6030        0`      STR      r0,[r6,#0]
        0x00002a30:    2002        .       MOVS     r0,#2
        0x00002a32:    6030        0`      STR      r0,[r6,#0]
        0x00002a34:    4813        .H      LDR      r0,[pc,#76] ; [0x2a84] = 0x801
        0x00002a36:    62f0        .b      STR      r0,[r6,#0x2c]
        0x00002a38:    2010        .       MOVS     r0,#0x10
        0x00002a3a:    6130        0a      STR      r0,[r6,#0x10]
        0x00002a3c:    9900        ..      LDR      r1,[sp,#0]
        0x00002a3e:    9801        ..      LDR      r0,[sp,#4]
        0x00002a40:    028a        ..      LSLS     r2,r1,#10
        0x00002a42:    2101        .!      MOVS     r1,#1
        0x00002a44:    1e40        @.      SUBS     r0,r0,#1
        0x00002a46:    0289        ..      LSLS     r1,r1,#10
        0x00002a48:    0400        ..      LSLS     r0,r0,#16
        0x00002a4a:    1a51        Q.      SUBS     r1,r2,r1
        0x00002a4c:    4308        .C      ORRS     r0,r0,r1
        0x00002a4e:    0229        ).      LSLS     r1,r5,#8
        0x00002a50:    39ff        .9      SUBS     r1,r1,#0xff
        0x00002a52:    3901        .9      SUBS     r1,#1
        0x00002a54:    4308        .C      ORRS     r0,r0,r1
        0x00002a56:    60b0        .`      STR      r0,[r6,#8]
        0x00002a58:    6df0        .m      LDR      r0,[r6,#0x5c]
        0x00002a5a:    2101        .!      MOVS     r1,#1
        0x00002a5c:    07c9        ..      LSLS     r1,r1,#31
        0x00002a5e:    4308        .C      ORRS     r0,r0,r1
        0x00002a60:    65f0        .e      STR      r0,[r6,#0x5c]
        0x00002a62:    4629        )F      MOV      r1,r5
        0x00002a64:    9802        ..      LDR      r0,[sp,#8]
        0x00002a66:    f7fdfd01    ....    BL       __aeabi_uidiv ; 0x46c
        0x00002a6a:    9900        ..      LDR      r1,[sp,#0]
        0x00002a6c:    f7fdfcfe    ....    BL       __aeabi_uidiv ; 0x46c
        0x00002a70:    9901        ..      LDR      r1,[sp,#4]
        0x00002a72:    f7fdfcfb    ....    BL       __aeabi_uidiv ; 0x46c
        0x00002a76:    b005        ..      ADD      sp,sp,#0x14
        0x00002a78:    bdf0        ..      POP      {r4-r7,pc}
    $d
        0x00002a7a:    0000        ..      DCW    0
        0x00002a7c:    40070000    ...@    DCD    1074200576
        0x00002a80:    40074000    .@.@    DCD    1074216960
        0x00002a84:    00000801    ....    DCD    2049
    $t
    i.__ARM_common_switch8
    __ARM_common_switch8
        0x00002a88:    b430        0.      PUSH     {r4,r5}
        0x00002a8a:    4674        tF      MOV      r4,lr
        0x00002a8c:    1e64        d.      SUBS     r4,r4,#1
        0x00002a8e:    7825        %x      LDRB     r5,[r4,#0]
        0x00002a90:    1c64        d.      ADDS     r4,r4,#1
        0x00002a92:    42ab        .B      CMP      r3,r5
        0x00002a94:    d200        ..      BCS      0x2a98 ; __ARM_common_switch8 + 16
        0x00002a96:    461d        .F      MOV      r5,r3
        0x00002a98:    5d63        c]      LDRB     r3,[r4,r5]
        0x00002a9a:    005b        [.      LSLS     r3,r3,#1
        0x00002a9c:    18e3        ..      ADDS     r3,r4,r3
        0x00002a9e:    bc30        0.      POP      {r4,r5}
        0x00002aa0:    4718        .G      BX       r3
    i._is_digit
    _is_digit
        0x00002aa2:    3830        08      SUBS     r0,r0,#0x30
        0x00002aa4:    280a        .(      CMP      r0,#0xa
        0x00002aa6:    d201        ..      BCS      0x2aac ; _is_digit + 10
        0x00002aa8:    2001        .       MOVS     r0,#1
        0x00002aaa:    4770        pG      BX       lr
        0x00002aac:    2000        .       MOVS     r0,#0
        0x00002aae:    4770        pG      BX       lr
    i.drv_4G_led_on
    drv_4G_led_on
        0x00002ab0:    4a07        .J      LDR      r2,[pc,#28] ; [0x2ad0] = 0x50004200
        0x00002ab2:    2101        .!      MOVS     r1,#1
        0x00002ab4:    6351        Qc      STR      r1,[r2,#0x34]
        0x00002ab6:    6311        .c      STR      r1,[r2,#0x30]
        0x00002ab8:    6051        Q`      STR      r1,[r2,#4]
        0x00002aba:    4a06        .J      LDR      r2,[pc,#24] ; [0x2ad4] = 0x50004340
        0x00002abc:    2800        .(      CMP      r0,#0
        0x00002abe:    d002        ..      BEQ      0x2ac6 ; drv_4G_led_on + 22
        0x00002ac0:    2000        .       MOVS     r0,#0
        0x00002ac2:    6190        .a      STR      r0,[r2,#0x18]
        0x00002ac4:    e000        ..      B        0x2ac8 ; drv_4G_led_on + 24
        0x00002ac6:    6191        .a      STR      r1,[r2,#0x18]
        0x00002ac8:    4801        .H      LDR      r0,[pc,#4] ; [0x2ad0] = 0x50004200
        0x00002aca:    3080        .0      ADDS     r0,r0,#0x80
        0x00002acc:    63c1        .c      STR      r1,[r0,#0x3c]
        0x00002ace:    4770        pG      BX       lr
    $d
        0x00002ad0:    50004200    .B.P    DCD    1342194176
        0x00002ad4:    50004340    @C.P    DCD    1342194496
    $t
    i.drv_5825_00_i2c_write
    drv_5825_00_i2c_write
        0x00002ad8:    b5f3        ..      PUSH     {r0,r1,r4-r7,lr}
        0x00002ada:    2400        .$      MOVS     r4,#0
        0x00002adc:    b081        ..      SUB      sp,sp,#4
        0x00002ade:    4605        .F      MOV      r5,r0
        0x00002ae0:    4626        &F      MOV      r6,r4
        0x00002ae2:    e00f        ..      B        0x2b04 ; drv_5825_00_i2c_write + 44
        0x00002ae4:    0060        `.      LSLS     r0,r4,#1
        0x00002ae6:    5c29        )\      LDRB     r1,[r5,r0]
        0x00002ae8:    29fd        .)      CMP      r1,#0xfd
        0x00002aea:    d014        ..      BEQ      0x2b16 ; drv_5825_00_i2c_write + 62
        0x00002aec:    29fe        .)      CMP      r1,#0xfe
        0x00002aee:    d00d        ..      BEQ      0x2b0c ; drv_5825_00_i2c_write + 52
        0x00002af0:    29ff        .)      CMP      r1,#0xff
        0x00002af2:    d006        ..      BEQ      0x2b02 ; drv_5825_00_i2c_write + 42
        0x00002af4:    1941        A.      ADDS     r1,r0,r5
        0x00002af6:    2300        .#      MOVS     r3,#0
        0x00002af8:    2202        ."      MOVS     r2,#2
        0x00002afa:    2098        .       MOVS     r0,#0x98
        0x00002afc:    9600        ..      STR      r6,[sp,#0]
        0x00002afe:    f7fefbab    ....    BL       Hal_I2c_Transfer ; 0x1258
        0x00002b02:    1c64        d.      ADDS     r4,r4,#1
        0x00002b04:    9802        ..      LDR      r0,[sp,#8]
        0x00002b06:    4284        .B      CMP      r4,r0
        0x00002b08:    dbec        ..      BLT      0x2ae4 ; drv_5825_00_i2c_write + 12
        0x00002b0a:    bdfe        ..      POP      {r1-r7,pc}
        0x00002b0c:    4908        .I      LDR      r1,[pc,#32] ; [0x2b30] = 0x1388
        0x00002b0e:    4809        .H      LDR      r0,[pc,#36] ; [0x2b34] = 0x40010000
        0x00002b10:    f7fffa12    ....    BL       TIMER_Delay ; 0x1f38
        0x00002b14:    e7f5        ..      B        0x2b02 ; drv_5825_00_i2c_write + 42
        0x00002b16:    1947        G.      ADDS     r7,r0,r5
        0x00002b18:    9600        ..      STR      r6,[sp,#0]
        0x00002b1a:    787a        zx      LDRB     r2,[r7,#1]
        0x00002b1c:    1cb9        ..      ADDS     r1,r7,#2
        0x00002b1e:    2300        .#      MOVS     r3,#0
        0x00002b20:    2098        .       MOVS     r0,#0x98
        0x00002b22:    f7fefb99    ....    BL       Hal_I2c_Transfer ; 0x1258
        0x00002b26:    7878        xx      LDRB     r0,[r7,#1]
        0x00002b28:    1c40        @.      ADDS     r0,r0,#1
        0x00002b2a:    0840        @.      LSRS     r0,r0,#1
        0x00002b2c:    1904        ..      ADDS     r4,r0,r4
        0x00002b2e:    e7e8        ..      B        0x2b02 ; drv_5825_00_i2c_write + 42
    $d
        0x00002b30:    00001388    ....    DCD    5000
        0x00002b34:    40010000    ...@    DCD    1073807360
    $t
    i.drv_5825_01_i2c_write
    drv_5825_01_i2c_write
        0x00002b38:    b5f3        ..      PUSH     {r0,r1,r4-r7,lr}
        0x00002b3a:    2400        .$      MOVS     r4,#0
        0x00002b3c:    b081        ..      SUB      sp,sp,#4
        0x00002b3e:    4605        .F      MOV      r5,r0
        0x00002b40:    4626        &F      MOV      r6,r4
        0x00002b42:    e00f        ..      B        0x2b64 ; drv_5825_01_i2c_write + 44
        0x00002b44:    0060        `.      LSLS     r0,r4,#1
        0x00002b46:    5c29        )\      LDRB     r1,[r5,r0]
        0x00002b48:    29fd        .)      CMP      r1,#0xfd
        0x00002b4a:    d014        ..      BEQ      0x2b76 ; drv_5825_01_i2c_write + 62
        0x00002b4c:    29fe        .)      CMP      r1,#0xfe
        0x00002b4e:    d00d        ..      BEQ      0x2b6c ; drv_5825_01_i2c_write + 52
        0x00002b50:    29ff        .)      CMP      r1,#0xff
        0x00002b52:    d006        ..      BEQ      0x2b62 ; drv_5825_01_i2c_write + 42
        0x00002b54:    1941        A.      ADDS     r1,r0,r5
        0x00002b56:    2300        .#      MOVS     r3,#0
        0x00002b58:    2202        ."      MOVS     r2,#2
        0x00002b5a:    209a        .       MOVS     r0,#0x9a
        0x00002b5c:    9600        ..      STR      r6,[sp,#0]
        0x00002b5e:    f7fefb7b    ..{.    BL       Hal_I2c_Transfer ; 0x1258
        0x00002b62:    1c64        d.      ADDS     r4,r4,#1
        0x00002b64:    9802        ..      LDR      r0,[sp,#8]
        0x00002b66:    4284        .B      CMP      r4,r0
        0x00002b68:    dbec        ..      BLT      0x2b44 ; drv_5825_01_i2c_write + 12
        0x00002b6a:    bdfe        ..      POP      {r1-r7,pc}
        0x00002b6c:    4908        .I      LDR      r1,[pc,#32] ; [0x2b90] = 0x1388
        0x00002b6e:    4809        .H      LDR      r0,[pc,#36] ; [0x2b94] = 0x40010000
        0x00002b70:    f7fff9e2    ....    BL       TIMER_Delay ; 0x1f38
        0x00002b74:    e7f5        ..      B        0x2b62 ; drv_5825_01_i2c_write + 42
        0x00002b76:    1947        G.      ADDS     r7,r0,r5
        0x00002b78:    9600        ..      STR      r6,[sp,#0]
        0x00002b7a:    787a        zx      LDRB     r2,[r7,#1]
        0x00002b7c:    1cb9        ..      ADDS     r1,r7,#2
        0x00002b7e:    2300        .#      MOVS     r3,#0
        0x00002b80:    209a        .       MOVS     r0,#0x9a
        0x00002b82:    f7fefb69    ..i.    BL       Hal_I2c_Transfer ; 0x1258
        0x00002b86:    7878        xx      LDRB     r0,[r7,#1]
        0x00002b88:    1c40        @.      ADDS     r0,r0,#1
        0x00002b8a:    0840        @.      LSRS     r0,r0,#1
        0x00002b8c:    1904        ..      ADDS     r4,r0,r4
        0x00002b8e:    e7e8        ..      B        0x2b62 ; drv_5825_01_i2c_write + 42
    $d
        0x00002b90:    00001388    ....    DCD    5000
        0x00002b94:    40010000    ...@    DCD    1073807360
    $t
    i.drv_5825_Init
    drv_5825_Init
        0x00002b98:    b510        ..      PUSH     {r4,lr}
        0x00002b9a:    f000f847    ..G.    BL       drv_5825_amp_fault_det_init ; 0x2c2c
        0x00002b9e:    f000f84f    ..O.    BL       drv_5825_amp_warn_det_init ; 0x2c40
        0x00002ba2:    a008        ..      ADR      r0,{pc}+0x22 ; 0x2bc4
        0x00002ba4:    f7fdfb2e    ....    BL       __2printf ; 0x204
        0x00002ba8:    217d        }!      MOVS     r1,#0x7d
        0x00002baa:    00c9        ..      LSLS     r1,r1,#3
        0x00002bac:    480c        .H      LDR      r0,[pc,#48] ; [0x2be0] = 0x40010000
        0x00002bae:    f7fff9c3    ....    BL       TIMER_Delay ; 0x1f38
        0x00002bb2:    f000f817    ....    BL       drv_5825_Load_in_Param ; 0x2be4
        0x00002bb6:    2005        .       MOVS     r0,#5
        0x00002bb8:    f000f898    ....    BL       drv_5825_vol_set ; 0x2cec
        0x00002bbc:    f000f84a    ..J.    BL       drv_5825_gpio012_config ; 0x2c54
        0x00002bc0:    bd10        ..      POP      {r4,pc}
    $d
        0x00002bc2:    0000        ..      DCW    0
        0x00002bc4:    5f767264    drv_    DCD    1601598052
        0x00002bc8:    35323835    5825    DCD    892483637
        0x00002bcc:    696e495f    _Ini    DCD    1768835423
        0x00002bd0:    2a2a2a74    t***    DCD    707406452
        0x00002bd4:    2a2a2a2a    ****    DCD    707406378
        0x00002bd8:    2a2a2a2a    ****    DCD    707406378
        0x00002bdc:    0000000a    ....    DCD    10
        0x00002be0:    40010000    ...@    DCD    1073807360
    $t
    i.drv_5825_Load_in_Param
    drv_5825_Load_in_Param
        0x00002be4:    b510        ..      PUSH     {r4,lr}
        0x00002be6:    4c08        .L      LDR      r4,[pc,#32] ; [0x2c08] = 0xf61
        0x00002be8:    a008        ..      ADR      r0,{pc}+0x24 ; 0x2c0c
        0x00002bea:    4621        !F      MOV      r1,r4
        0x00002bec:    f7fdfb0a    ....    BL       __2printf ; 0x204
        0x00002bf0:    4621        !F      MOV      r1,r4
        0x00002bf2:    480c        .H      LDR      r0,[pc,#48] ; [0x2c24] = 0x4906
        0x00002bf4:    f7ffff70    ..p.    BL       drv_5825_00_i2c_write ; 0x2ad8
        0x00002bf8:    f000f82c    ..,.    BL       drv_5825_gpio012_config ; 0x2c54
        0x00002bfc:    4621        !F      MOV      r1,r4
        0x00002bfe:    480a        .H      LDR      r0,[pc,#40] ; [0x2c28] = 0x67c8
        0x00002c00:    f7ffff9a    ....    BL       drv_5825_01_i2c_write ; 0x2b38
        0x00002c04:    bd10        ..      POP      {r4,pc}
    $d
        0x00002c06:    0000        ..      DCW    0
        0x00002c08:    00000f61    a...    DCD    3937
        0x00002c0c:    657a6973    size    DCD    1702521203
        0x00002c10:    7228666f    of(r    DCD    1915250287
        0x00002c14:    73696765    egis    DCD    1936287589
        0x00002c18:    73726574    ters    DCD    1936876916
        0x00002c1c:    203d2029    ) =     DCD    540876841
        0x00002c20:    000a6425    %d..    DCD    680997
        0x00002c24:    00004906    .I..    DCD    18694
        0x00002c28:    000067c8    .g..    DCD    26568
    $t
    i.drv_5825_amp_fault_det_init
    drv_5825_amp_fault_det_init
        0x00002c2c:    b510        ..      PUSH     {r4,lr}
        0x00002c2e:    2200        ."      MOVS     r2,#0
        0x00002c30:    2104        .!      MOVS     r1,#4
        0x00002c32:    4802        .H      LDR      r0,[pc,#8] ; [0x2c3c] = 0x50004140
        0x00002c34:    f7fef995    ....    BL       GPIO_SetMode ; 0xf62
        0x00002c38:    bd10        ..      POP      {r4,pc}
    $d
        0x00002c3a:    0000        ..      DCW    0
        0x00002c3c:    50004140    @A.P    DCD    1342193984
    $t
    i.drv_5825_amp_warn_det_init
    drv_5825_amp_warn_det_init
        0x00002c40:    b510        ..      PUSH     {r4,lr}
        0x00002c42:    2101        .!      MOVS     r1,#1
        0x00002c44:    2200        ."      MOVS     r2,#0
        0x00002c46:    02c9        ..      LSLS     r1,r1,#11
        0x00002c48:    4801        .H      LDR      r0,[pc,#4] ; [0x2c50] = 0x500040c0
        0x00002c4a:    f7fef98a    ....    BL       GPIO_SetMode ; 0xf62
        0x00002c4e:    bd10        ..      POP      {r4,pc}
    $d
        0x00002c50:    500040c0    .@.P    DCD    1342193856
    $t
    i.drv_5825_gpio012_config
    drv_5825_gpio012_config
        0x00002c54:    b538        8.      PUSH     {r3-r5,lr}
        0x00002c56:    2103        .!      MOVS     r1,#3
        0x00002c58:    480c        .H      LDR      r0,[pc,#48] ; [0x2c8c] = 0x48f8
        0x00002c5a:    f7ffff3d    ..=.    BL       drv_5825_00_i2c_write ; 0x2ad8
        0x00002c5e:    2400        .$      MOVS     r4,#0
        0x00002c60:    490a        .I      LDR      r1,[pc,#40] ; [0x2c8c] = 0x48f8
        0x00002c62:    4623        #F      MOV      r3,r4
        0x00002c64:    2204        ."      MOVS     r2,#4
        0x00002c66:    1d89        ..      ADDS     r1,r1,#6
        0x00002c68:    2098        .       MOVS     r0,#0x98
        0x00002c6a:    9400        ..      STR      r4,[sp,#0]
        0x00002c6c:    f7fefaf4    ....    BL       Hal_I2c_Transfer ; 0x1258
        0x00002c70:    2103        .!      MOVS     r1,#3
        0x00002c72:    4806        .H      LDR      r0,[pc,#24] ; [0x2c8c] = 0x48f8
        0x00002c74:    f7ffff60    ..`.    BL       drv_5825_01_i2c_write ; 0x2b38
        0x00002c78:    4904        .I      LDR      r1,[pc,#16] ; [0x2c8c] = 0x48f8
        0x00002c7a:    2300        .#      MOVS     r3,#0
        0x00002c7c:    2204        ."      MOVS     r2,#4
        0x00002c7e:    1d89        ..      ADDS     r1,r1,#6
        0x00002c80:    209a        .       MOVS     r0,#0x9a
        0x00002c82:    9400        ..      STR      r4,[sp,#0]
        0x00002c84:    f7fefae8    ....    BL       Hal_I2c_Transfer ; 0x1258
        0x00002c88:    bd38        8.      POP      {r3-r5,pc}
    $d
        0x00002c8a:    0000        ..      DCW    0
        0x00002c8c:    000048f8    .H..    DCD    18680
    $t
    i.drv_5825_mute_pin_init
    drv_5825_mute_pin_init
        0x00002c90:    b510        ..      PUSH     {r4,lr}
        0x00002c92:    2201        ."      MOVS     r2,#1
        0x00002c94:    0291        ..      LSLS     r1,r2,#10
        0x00002c96:    4803        .H      LDR      r0,[pc,#12] ; [0x2ca4] = 0x500040c0
        0x00002c98:    f7fef963    ..c.    BL       GPIO_SetMode ; 0xf62
        0x00002c9c:    2000        .       MOVS     r0,#0
        0x00002c9e:    f000f803    ....    BL       drv_5825_mute_pin_set ; 0x2ca8
        0x00002ca2:    bd10        ..      POP      {r4,pc}
    $d
        0x00002ca4:    500040c0    .@.P    DCD    1342193856
    $t
    i.drv_5825_mute_pin_set
    drv_5825_mute_pin_set
        0x00002ca8:    4902        .I      LDR      r1,[pc,#8] ; [0x2cb4] = 0x500042c0
        0x00002caa:    2800        .(      CMP      r0,#0
        0x00002cac:    d000        ..      BEQ      0x2cb0 ; drv_5825_mute_pin_set + 8
        0x00002cae:    2001        .       MOVS     r0,#1
        0x00002cb0:    6288        .b      STR      r0,[r1,#0x28]
        0x00002cb2:    4770        pG      BX       lr
    $d
        0x00002cb4:    500042c0    .B.P    DCD    1342194368
    $t
    i.drv_5825_powerdown_pin_init
    drv_5825_powerdown_pin_init
        0x00002cb8:    b510        ..      PUSH     {r4,lr}
        0x00002cba:    2001        .       MOVS     r0,#1
        0x00002cbc:    f000f802    ....    BL       drv_5825_powerdown_pin_set ; 0x2cc4
        0x00002cc0:    bd10        ..      POP      {r4,pc}
        0x00002cc2:    0000        ..      MOVS     r0,r0
    i.drv_5825_powerdown_pin_set
    drv_5825_powerdown_pin_set
        0x00002cc4:    b510        ..      PUSH     {r4,lr}
        0x00002cc6:    4604        .F      MOV      r4,r0
        0x00002cc8:    2201        ."      MOVS     r2,#1
        0x00002cca:    0311        ..      LSLS     r1,r2,#12
        0x00002ccc:    4805        .H      LDR      r0,[pc,#20] ; [0x2ce4] = 0x500040c0
        0x00002cce:    f7fef948    ..H.    BL       GPIO_SetMode ; 0xf62
        0x00002cd2:    4805        .H      LDR      r0,[pc,#20] ; [0x2ce8] = 0x500042c0
        0x00002cd4:    2c00        .,      CMP      r4,#0
        0x00002cd6:    d001        ..      BEQ      0x2cdc ; drv_5825_powerdown_pin_set + 24
        0x00002cd8:    2101        .!      MOVS     r1,#1
        0x00002cda:    e000        ..      B        0x2cde ; drv_5825_powerdown_pin_set + 26
        0x00002cdc:    2100        .!      MOVS     r1,#0
        0x00002cde:    6301        .c      STR      r1,[r0,#0x30]
        0x00002ce0:    bd10        ..      POP      {r4,pc}
    $d
        0x00002ce2:    0000        ..      DCW    0
        0x00002ce4:    500040c0    .@.P    DCD    1342193856
        0x00002ce8:    500042c0    .B.P    DCD    1342194368
    $t
    i.drv_5825_vol_set
    drv_5825_vol_set
        0x00002cec:    b5f8        ..      PUSH     {r3-r7,lr}
        0x00002cee:    4604        .F      MOV      r4,r0
        0x00002cf0:    2810        .(      CMP      r0,#0x10
        0x00002cf2:    d82b        +.      BHI      0x2d4c ; drv_5825_vol_set + 96
        0x00002cf4:    2103        .!      MOVS     r1,#3
        0x00002cf6:    4816        .H      LDR      r0,[pc,#88] ; [0x2d50] = 0x48f2
        0x00002cf8:    f7fffeee    ....    BL       drv_5825_00_i2c_write ; 0x2ad8
        0x00002cfc:    00a0        ..      LSLS     r0,r4,#2
        0x00002cfe:    1824        $.      ADDS     r4,r4,r0
        0x00002d00:    4814        .H      LDR      r0,[pc,#80] ; [0x2d54] = 0x20000102
        0x00002d02:    2500        .%      MOVS     r5,#0
        0x00002d04:    1821        !.      ADDS     r1,r4,r0
        0x00002d06:    460e        .F      MOV      r6,r1
        0x00002d08:    462b        +F      MOV      r3,r5
        0x00002d0a:    2205        ."      MOVS     r2,#5
        0x00002d0c:    2098        .       MOVS     r0,#0x98
        0x00002d0e:    9500        ..      STR      r5,[sp,#0]
        0x00002d10:    f7fefaa2    ....    BL       Hal_I2c_Transfer ; 0x1258
        0x00002d14:    480f        .H      LDR      r0,[pc,#60] ; [0x2d54] = 0x20000102
        0x00002d16:    2300        .#      MOVS     r3,#0
        0x00002d18:    3055        U0      ADDS     r0,r0,#0x55
        0x00002d1a:    1821        !.      ADDS     r1,r4,r0
        0x00002d1c:    460c        .F      MOV      r4,r1
        0x00002d1e:    2205        ."      MOVS     r2,#5
        0x00002d20:    2098        .       MOVS     r0,#0x98
        0x00002d22:    9500        ..      STR      r5,[sp,#0]
        0x00002d24:    f7fefa98    ....    BL       Hal_I2c_Transfer ; 0x1258
        0x00002d28:    2103        .!      MOVS     r1,#3
        0x00002d2a:    4809        .H      LDR      r0,[pc,#36] ; [0x2d50] = 0x48f2
        0x00002d2c:    f7ffff04    ....    BL       drv_5825_01_i2c_write ; 0x2b38
        0x00002d30:    4631        1F      MOV      r1,r6
        0x00002d32:    2300        .#      MOVS     r3,#0
        0x00002d34:    2205        ."      MOVS     r2,#5
        0x00002d36:    209a        .       MOVS     r0,#0x9a
        0x00002d38:    9500        ..      STR      r5,[sp,#0]
        0x00002d3a:    f7fefa8d    ....    BL       Hal_I2c_Transfer ; 0x1258
        0x00002d3e:    4621        !F      MOV      r1,r4
        0x00002d40:    2300        .#      MOVS     r3,#0
        0x00002d42:    2205        ."      MOVS     r2,#5
        0x00002d44:    209a        .       MOVS     r0,#0x9a
        0x00002d46:    9500        ..      STR      r5,[sp,#0]
        0x00002d48:    f7fefa86    ....    BL       Hal_I2c_Transfer ; 0x1258
        0x00002d4c:    bdf8        ..      POP      {r3-r7,pc}
    $d
        0x00002d4e:    0000        ..      DCW    0
        0x00002d50:    000048f2    .H..    DCD    18674
        0x00002d54:    20000102    ...     DCD    536871170
    $t
    i.drv_Adc_pcm1862_Init
    drv_Adc_pcm1862_Init
        0x00002d58:    b5f8        ..      PUSH     {r3-r7,lr}
        0x00002d5a:    a00b        ..      ADR      r0,{pc}+0x2e ; 0x2d88
        0x00002d5c:    f7fdfa52    ..R.    BL       __2printf ; 0x204
        0x00002d60:    2400        .$      MOVS     r4,#0
        0x00002d62:    4d0e        .M      LDR      r5,[pc,#56] ; [0x2d9c] = 0x3fd8
        0x00002d64:    4626        &F      MOV      r6,r4
        0x00002d66:    00e0        ..      LSLS     r0,r4,#3
        0x00002d68:    1941        A.      ADDS     r1,r0,r5
        0x00002d6a:    9600        ..      STR      r6,[sp,#0]
        0x00002d6c:    684a        Jh      LDR      r2,[r1,#4]
        0x00002d6e:    5829        )X      LDR      r1,[r5,r0]
        0x00002d70:    2300        .#      MOVS     r3,#0
        0x00002d72:    2094        .       MOVS     r0,#0x94
        0x00002d74:    f7fef9f0    ....    BL       Hal_I2c1_Transfer ; 0x1158
        0x00002d78:    1c64        d.      ADDS     r4,r4,#1
        0x00002d7a:    b2e4        ..      UXTB     r4,r4
        0x00002d7c:    2c06        .,      CMP      r4,#6
        0x00002d7e:    d3f2        ..      BCC      0x2d66 ; drv_Adc_pcm1862_Init + 14
        0x00002d80:    2004        .       MOVS     r0,#4
        0x00002d82:    f000f9f1    ....    BL       drv_pcm1862_input_channel ; 0x3168
        0x00002d86:    bdf8        ..      POP      {r3-r7,pc}
    $d
        0x00002d88:    5f636441    Adc_    DCD    1600349249
        0x00002d8c:    316d6370    pcm1    DCD    829252464
        0x00002d90:    5f323638    862_    DCD    1597126200
        0x00002d94:    74696e49    Init    DCD    1953066569
        0x00002d98:    0000000a    ....    DCD    10
        0x00002d9c:    00003fd8    .?..    DCD    16344
    $t
    i.drv_Cmd_Send2NCU031
    drv_Cmd_Send2NCU031
        0x00002da0:    b5f8        ..      PUSH     {r3-r7,lr}
        0x00002da2:    4607        .F      MOV      r7,r0
        0x00002da4:    4c1b        .L      LDR      r4,[pc,#108] ; [0x2e14] = 0x40070000
        0x00002da6:    20ff        .       MOVS     r0,#0xff
        0x00002da8:    4615        .F      MOV      r5,r2
        0x00002daa:    460e        .F      MOV      r6,r1
        0x00002dac:    6320         c      STR      r0,[r4,#0x30]
        0x00002dae:    217d        }!      MOVS     r1,#0x7d
        0x00002db0:    00c9        ..      LSLS     r1,r1,#3
        0x00002db2:    4819        .H      LDR      r0,[pc,#100] ; [0x2e18] = 0x40010000
        0x00002db4:    f7fff8c0    ....    BL       TIMER_Delay ; 0x1f38
        0x00002db8:    2055        U       MOVS     r0,#0x55
        0x00002dba:    6320         c      STR      r0,[r4,#0x30]
        0x00002dbc:    217d        }!      MOVS     r1,#0x7d
        0x00002dbe:    00c9        ..      LSLS     r1,r1,#3
        0x00002dc0:    4815        .H      LDR      r0,[pc,#84] ; [0x2e18] = 0x40010000
        0x00002dc2:    f7fff8b9    ....    BL       TIMER_Delay ; 0x1f38
        0x00002dc6:    2003        .       MOVS     r0,#3
        0x00002dc8:    6320         c      STR      r0,[r4,#0x30]
        0x00002dca:    217d        }!      MOVS     r1,#0x7d
        0x00002dcc:    00c9        ..      LSLS     r1,r1,#3
        0x00002dce:    4812        .H      LDR      r0,[pc,#72] ; [0x2e18] = 0x40010000
        0x00002dd0:    f7fff8b2    ....    BL       TIMER_Delay ; 0x1f38
        0x00002dd4:    2080        .       MOVS     r0,#0x80
        0x00002dd6:    6320         c      STR      r0,[r4,#0x30]
        0x00002dd8:    217d        }!      MOVS     r1,#0x7d
        0x00002dda:    00c9        ..      LSLS     r1,r1,#3
        0x00002ddc:    480e        .H      LDR      r0,[pc,#56] ; [0x2e18] = 0x40010000
        0x00002dde:    f7fff8ab    ....    BL       TIMER_Delay ; 0x1f38
        0x00002de2:    6327        'c      STR      r7,[r4,#0x30]
        0x00002de4:    217d        }!      MOVS     r1,#0x7d
        0x00002de6:    00c9        ..      LSLS     r1,r1,#3
        0x00002de8:    480b        .H      LDR      r0,[pc,#44] ; [0x2e18] = 0x40010000
        0x00002dea:    f7fff8a5    ....    BL       TIMER_Delay ; 0x1f38
        0x00002dee:    6326        &c      STR      r6,[r4,#0x30]
        0x00002df0:    217d        }!      MOVS     r1,#0x7d
        0x00002df2:    00c9        ..      LSLS     r1,r1,#3
        0x00002df4:    4808        .H      LDR      r0,[pc,#32] ; [0x2e18] = 0x40010000
        0x00002df6:    f7fff89f    ....    BL       TIMER_Delay ; 0x1f38
        0x00002dfa:    6325        %c      STR      r5,[r4,#0x30]
        0x00002dfc:    217d        }!      MOVS     r1,#0x7d
        0x00002dfe:    00c9        ..      LSLS     r1,r1,#3
        0x00002e00:    4805        .H      LDR      r0,[pc,#20] ; [0x2e18] = 0x40010000
        0x00002e02:    f7fff899    ....    BL       TIMER_Delay ; 0x1f38
        0x00002e06:    19b8        ..      ADDS     r0,r7,r6
        0x00002e08:    1940        @.      ADDS     r0,r0,r5
        0x00002e0a:    3083        .0      ADDS     r0,r0,#0x83
        0x00002e0c:    4240        @B      RSBS     r0,r0,#0
        0x00002e0e:    b2c0        ..      UXTB     r0,r0
        0x00002e10:    6320         c      STR      r0,[r4,#0x30]
        0x00002e12:    bdf8        ..      POP      {r3-r7,pc}
    $d
        0x00002e14:    40070000    ...@    DCD    1074200576
        0x00002e18:    40010000    ...@    DCD    1073807360
    $t
    i.drv_FM_on_NCU031_reset
    drv_FM_on_NCU031_reset
        0x00002e1c:    b510        ..      PUSH     {r4,lr}
        0x00002e1e:    2201        ."      MOVS     r2,#1
        0x00002e20:    02d1        ..      LSLS     r1,r2,#11
        0x00002e22:    480a        .H      LDR      r0,[pc,#40] ; [0x2e4c] = 0x50004100
        0x00002e24:    f7fef89d    ....    BL       GPIO_SetMode ; 0xf62
        0x00002e28:    4a09        .J      LDR      r2,[pc,#36] ; [0x2e50] = 0x50004300
        0x00002e2a:    2301        .#      MOVS     r3,#1
        0x00002e2c:    62d3        .b      STR      r3,[r2,#0x2c]
        0x00002e2e:    4909        .I      LDR      r1,[pc,#36] ; [0x2e54] = 0x4e20
        0x00002e30:    2000        .       MOVS     r0,#0
        0x00002e32:    bf00        ..      NOP      
        0x00002e34:    1c40        @.      ADDS     r0,r0,#1
        0x00002e36:    4288        .B      CMP      r0,r1
        0x00002e38:    dbfb        ..      BLT      0x2e32 ; drv_FM_on_NCU031_reset + 22
        0x00002e3a:    2000        .       MOVS     r0,#0
        0x00002e3c:    62d0        .b      STR      r0,[r2,#0x2c]
        0x00002e3e:    bf00        ..      NOP      
        0x00002e40:    1c40        @.      ADDS     r0,r0,#1
        0x00002e42:    4288        .B      CMP      r0,r1
        0x00002e44:    dbfb        ..      BLT      0x2e3e ; drv_FM_on_NCU031_reset + 34
        0x00002e46:    62d3        .b      STR      r3,[r2,#0x2c]
        0x00002e48:    bd10        ..      POP      {r4,pc}
    $d
        0x00002e4a:    0000        ..      DCW    0
        0x00002e4c:    50004100    .A.P    DCD    1342193920
        0x00002e50:    50004300    .C.P    DCD    1342194432
        0x00002e54:    00004e20     N..    DCD    20000
    $t
    i.drv_FourGmodel_power_key_SetHi
    drv_FourGmodel_power_key_SetHi
        0x00002e58:    4901        .I      LDR      r1,[pc,#4] ; [0x2e60] = 0x50004200
        0x00002e5a:    2001        .       MOVS     r0,#1
        0x00002e5c:    6148        Ha      STR      r0,[r1,#0x14]
        0x00002e5e:    4770        pG      BX       lr
    $d
        0x00002e60:    50004200    .B.P    DCD    1342194176
    $t
    i.drv_FourGmodel_power_key_SetLow
    drv_FourGmodel_power_key_SetLow
        0x00002e64:    4901        .I      LDR      r1,[pc,#4] ; [0x2e6c] = 0x50004200
        0x00002e66:    2000        .       MOVS     r0,#0
        0x00002e68:    6148        Ha      STR      r0,[r1,#0x14]
        0x00002e6a:    4770        pG      BX       lr
    $d
        0x00002e6c:    50004200    .B.P    DCD    1342194176
    $t
    i.drv_all_led_on
    drv_all_led_on
        0x00002e70:    4a08        .J      LDR      r2,[pc,#32] ; [0x2e94] = 0x50004200
        0x00002e72:    4908        .I      LDR      r1,[pc,#32] ; [0x2e94] = 0x50004200
        0x00002e74:    3280        .2      ADDS     r2,r2,#0x80
        0x00002e76:    4b08        .K      LDR      r3,[pc,#32] ; [0x2e98] = 0x50004340
        0x00002e78:    2800        .(      CMP      r0,#0
        0x00002e7a:    d001        ..      BEQ      0x2e80 ; drv_all_led_on + 16
        0x00002e7c:    2000        .       MOVS     r0,#0
        0x00002e7e:    e000        ..      B        0x2e82 ; drv_all_led_on + 18
        0x00002e80:    2001        .       MOVS     r0,#1
        0x00002e82:    6348        Hc      STR      r0,[r1,#0x34]
        0x00002e84:    6308        .c      STR      r0,[r1,#0x30]
        0x00002e86:    6048        H`      STR      r0,[r1,#4]
        0x00002e88:    63d0        .c      STR      r0,[r2,#0x3c]
        0x00002e8a:    6198        .a      STR      r0,[r3,#0x18]
        0x00002e8c:    6088        .`      STR      r0,[r1,#8]
        0x00002e8e:    60c8        .`      STR      r0,[r1,#0xc]
        0x00002e90:    4770        pG      BX       lr
    $d
        0x00002e92:    0000        ..      DCW    0
        0x00002e94:    50004200    .B.P    DCD    1342194176
        0x00002e98:    50004340    @C.P    DCD    1342194496
    $t
    i.drv_audio_4G_Channel
    drv_audio_4G_Channel
        0x00002e9c:    b510        ..      PUSH     {r4,lr}
        0x00002e9e:    2004        .       MOVS     r0,#4
        0x00002ea0:    f000f962    ..b.    BL       drv_pcm1862_input_channel ; 0x3168
        0x00002ea4:    bd10        ..      POP      {r4,pc}
    i.drv_audio_AuxIn_Channel
    drv_audio_AuxIn_Channel
        0x00002ea6:    b510        ..      PUSH     {r4,lr}
        0x00002ea8:    2001        .       MOVS     r0,#1
        0x00002eaa:    f000f95d    ..].    BL       drv_pcm1862_input_channel ; 0x3168
        0x00002eae:    bd10        ..      POP      {r4,pc}
    i.drv_audio_FM_Channel
    drv_audio_FM_Channel
        0x00002eb0:    b510        ..      PUSH     {r4,lr}
        0x00002eb2:    2002        .       MOVS     r0,#2
        0x00002eb4:    f000f958    ..X.    BL       drv_pcm1862_input_channel ; 0x3168
        0x00002eb8:    bd10        ..      POP      {r4,pc}
        0x00002eba:    0000        ..      MOVS     r0,r0
    i.drv_aux_led_on
    drv_aux_led_on
        0x00002ebc:    4905        .I      LDR      r1,[pc,#20] ; [0x2ed4] = 0x50004200
        0x00002ebe:    2001        .       MOVS     r0,#1
        0x00002ec0:    6348        Hc      STR      r0,[r1,#0x34]
        0x00002ec2:    2200        ."      MOVS     r2,#0
        0x00002ec4:    630a        .c      STR      r2,[r1,#0x30]
        0x00002ec6:    6048        H`      STR      r0,[r1,#4]
        0x00002ec8:    4902        .I      LDR      r1,[pc,#8] ; [0x2ed4] = 0x50004200
        0x00002eca:    3180        .1      ADDS     r1,r1,#0x80
        0x00002ecc:    63c8        .c      STR      r0,[r1,#0x3c]
        0x00002ece:    4902        .I      LDR      r1,[pc,#8] ; [0x2ed8] = 0x50004340
        0x00002ed0:    6188        .a      STR      r0,[r1,#0x18]
        0x00002ed2:    4770        pG      BX       lr
    $d
        0x00002ed4:    50004200    .B.P    DCD    1342194176
        0x00002ed8:    50004340    @C.P    DCD    1342194496
    $t
    i.drv_bt_led_on
    drv_bt_led_on
        0x00002edc:    4a07        .J      LDR      r2,[pc,#28] ; [0x2efc] = 0x50004200
        0x00002ede:    2101        .!      MOVS     r1,#1
        0x00002ee0:    6351        Qc      STR      r1,[r2,#0x34]
        0x00002ee2:    6311        .c      STR      r1,[r2,#0x30]
        0x00002ee4:    2800        .(      CMP      r0,#0
        0x00002ee6:    d002        ..      BEQ      0x2eee ; drv_bt_led_on + 18
        0x00002ee8:    2000        .       MOVS     r0,#0
        0x00002eea:    6050        P`      STR      r0,[r2,#4]
        0x00002eec:    e000        ..      B        0x2ef0 ; drv_bt_led_on + 20
        0x00002eee:    6051        Q`      STR      r1,[r2,#4]
        0x00002ef0:    4802        .H      LDR      r0,[pc,#8] ; [0x2efc] = 0x50004200
        0x00002ef2:    3080        .0      ADDS     r0,r0,#0x80
        0x00002ef4:    63c1        .c      STR      r1,[r0,#0x3c]
        0x00002ef6:    4802        .H      LDR      r0,[pc,#8] ; [0x2f00] = 0x50004340
        0x00002ef8:    6181        .a      STR      r1,[r0,#0x18]
        0x00002efa:    4770        pG      BX       lr
    $d
        0x00002efc:    50004200    .B.P    DCD    1342194176
        0x00002f00:    50004340    @C.P    DCD    1342194496
    $t
    i.drv_dap_3251_Init
    drv_dap_3251_Init
        0x00002f04:    b510        ..      PUSH     {r4,lr}
        0x00002f06:    a00e        ..      ADR      r0,{pc}+0x3a ; 0x2f40
        0x00002f08:    f7fdf97c    ..|.    BL       __2printf ; 0x204
        0x00002f0c:    2201        ."      MOVS     r2,#1
        0x00002f0e:    0351        Q.      LSLS     r1,r2,#13
        0x00002f10:    4812        .H      LDR      r0,[pc,#72] ; [0x2f5c] = 0x500040c0
        0x00002f12:    f7fef826    ..&.    BL       GPIO_SetMode ; 0xf62
        0x00002f16:    4912        .I      LDR      r1,[pc,#72] ; [0x2f60] = 0x500042c0
        0x00002f18:    2001        .       MOVS     r0,#1
        0x00002f1a:    6348        Hc      STR      r0,[r1,#0x34]
        0x00002f1c:    4911        .I      LDR      r1,[pc,#68] ; [0x2f64] = 0x1388
        0x00002f1e:    4812        .H      LDR      r0,[pc,#72] ; [0x2f68] = 0x40010000
        0x00002f20:    f7fff80a    ....    BL       TIMER_Delay ; 0x1f38
        0x00002f24:    4c11        .L      LDR      r4,[pc,#68] ; [0x2f6c] = 0x46b
        0x00002f26:    a012        ..      ADR      r0,{pc}+0x4a ; 0x2f70
        0x00002f28:    4621        !F      MOV      r1,r4
        0x00002f2a:    f7fdf96b    ..k.    BL       __2printf ; 0x204
        0x00002f2e:    4621        !F      MOV      r1,r4
        0x00002f30:    4817        .H      LDR      r0,[pc,#92] ; [0x2f90] = 0x400e
        0x00002f32:    f000f82f    ../.    BL       drv_dap_3251_i2c_write ; 0x2f94
        0x00002f36:    2005        .       MOVS     r0,#5
        0x00002f38:    f000f874    ..t.    BL       drv_dap_3251_vol_set ; 0x3024
        0x00002f3c:    bd10        ..      POP      {r4,pc}
    $d
        0x00002f3e:    0000        ..      DCW    0
        0x00002f40:    5f767264    drv_    DCD    1601598052
        0x00002f44:    31353233    3251    DCD    825569843
        0x00002f48:    696e495f    _Ini    DCD    1768835423
        0x00002f4c:    2a2a2a74    t***    DCD    707406452
        0x00002f50:    2a2a2a2a    ****    DCD    707406378
        0x00002f54:    2a2a2a2a    ****    DCD    707406378
        0x00002f58:    0000000a    ....    DCD    10
        0x00002f5c:    500040c0    .@.P    DCD    1342193856
        0x00002f60:    500042c0    .B.P    DCD    1342194368
        0x00002f64:    00001388    ....    DCD    5000
        0x00002f68:    40010000    ...@    DCD    1073807360
        0x00002f6c:    0000046b    k...    DCD    1131
        0x00002f70:    31353233    3251    DCD    825569843
        0x00002f74:    7a69735f    _siz    DCD    2053731167
        0x00002f78:    28666f65    eof(    DCD    677801829
        0x00002f7c:    725f6677    wf_r    DCD    1918854775
        0x00002f80:    73696765    egis    DCD    1936287589
        0x00002f84:    73726574    ters    DCD    1936876916
        0x00002f88:    203d2029    ) =     DCD    540876841
        0x00002f8c:    000a6425    %d..    DCD    680997
        0x00002f90:    0000400e    .@..    DCD    16398
    $t
    i.drv_dap_3251_i2c_write
    drv_dap_3251_i2c_write
        0x00002f94:    b5f3        ..      PUSH     {r0,r1,r4-r7,lr}
        0x00002f96:    2400        .$      MOVS     r4,#0
        0x00002f98:    b081        ..      SUB      sp,sp,#4
        0x00002f9a:    4605        .F      MOV      r5,r0
        0x00002f9c:    4626        &F      MOV      r6,r4
        0x00002f9e:    e00f        ..      B        0x2fc0 ; drv_dap_3251_i2c_write + 44
        0x00002fa0:    0060        `.      LSLS     r0,r4,#1
        0x00002fa2:    5c29        )\      LDRB     r1,[r5,r0]
        0x00002fa4:    29fd        .)      CMP      r1,#0xfd
        0x00002fa6:    d015        ..      BEQ      0x2fd4 ; drv_dap_3251_i2c_write + 64
        0x00002fa8:    29fe        .)      CMP      r1,#0xfe
        0x00002faa:    d00d        ..      BEQ      0x2fc8 ; drv_dap_3251_i2c_write + 52
        0x00002fac:    29ff        .)      CMP      r1,#0xff
        0x00002fae:    d006        ..      BEQ      0x2fbe ; drv_dap_3251_i2c_write + 42
        0x00002fb0:    1941        A.      ADDS     r1,r0,r5
        0x00002fb2:    2300        .#      MOVS     r3,#0
        0x00002fb4:    2202        ."      MOVS     r2,#2
        0x00002fb6:    2094        .       MOVS     r0,#0x94
        0x00002fb8:    9600        ..      STR      r6,[sp,#0]
        0x00002fba:    f7fef94d    ..M.    BL       Hal_I2c_Transfer ; 0x1258
        0x00002fbe:    1c64        d.      ADDS     r4,r4,#1
        0x00002fc0:    9802        ..      LDR      r0,[sp,#8]
        0x00002fc2:    4284        .B      CMP      r4,r0
        0x00002fc4:    dbec        ..      BLT      0x2fa0 ; drv_dap_3251_i2c_write + 12
        0x00002fc6:    bdfe        ..      POP      {r1-r7,pc}
        0x00002fc8:    217d        }!      MOVS     r1,#0x7d
        0x00002fca:    00c9        ..      LSLS     r1,r1,#3
        0x00002fcc:    4808        .H      LDR      r0,[pc,#32] ; [0x2ff0] = 0x40010000
        0x00002fce:    f7feffb3    ....    BL       TIMER_Delay ; 0x1f38
        0x00002fd2:    e7f4        ..      B        0x2fbe ; drv_dap_3251_i2c_write + 42
        0x00002fd4:    1947        G.      ADDS     r7,r0,r5
        0x00002fd6:    9600        ..      STR      r6,[sp,#0]
        0x00002fd8:    787a        zx      LDRB     r2,[r7,#1]
        0x00002fda:    1cb9        ..      ADDS     r1,r7,#2
        0x00002fdc:    2300        .#      MOVS     r3,#0
        0x00002fde:    2094        .       MOVS     r0,#0x94
        0x00002fe0:    f7fef93a    ..:.    BL       Hal_I2c_Transfer ; 0x1258
        0x00002fe4:    7878        xx      LDRB     r0,[r7,#1]
        0x00002fe6:    1c40        @.      ADDS     r0,r0,#1
        0x00002fe8:    0840        @.      LSRS     r0,r0,#1
        0x00002fea:    1904        ..      ADDS     r4,r0,r4
        0x00002fec:    e7e7        ..      B        0x2fbe ; drv_dap_3251_i2c_write + 42
    $d
        0x00002fee:    0000        ..      DCW    0
        0x00002ff0:    40010000    ...@    DCD    1073807360
    $t
    i.drv_dap_3251_rest
    drv_dap_3251_rest
        0x00002ff4:    b510        ..      PUSH     {r4,lr}
        0x00002ff6:    2201        ."      MOVS     r2,#1
        0x00002ff8:    0351        Q.      LSLS     r1,r2,#13
        0x00002ffa:    4806        .H      LDR      r0,[pc,#24] ; [0x3014] = 0x500040c0
        0x00002ffc:    f7fdffb1    ....    BL       GPIO_SetMode ; 0xf62
        0x00003000:    4c05        .L      LDR      r4,[pc,#20] ; [0x3018] = 0x500042c0
        0x00003002:    2000        .       MOVS     r0,#0
        0x00003004:    6360        `c      STR      r0,[r4,#0x34]
        0x00003006:    4905        .I      LDR      r1,[pc,#20] ; [0x301c] = 0x1388
        0x00003008:    4805        .H      LDR      r0,[pc,#20] ; [0x3020] = 0x40010000
        0x0000300a:    f7feff95    ....    BL       TIMER_Delay ; 0x1f38
        0x0000300e:    2001        .       MOVS     r0,#1
        0x00003010:    6360        `c      STR      r0,[r4,#0x34]
        0x00003012:    bd10        ..      POP      {r4,pc}
    $d
        0x00003014:    500040c0    .@.P    DCD    1342193856
        0x00003018:    500042c0    .B.P    DCD    1342194368
        0x0000301c:    00001388    ....    DCD    5000
        0x00003020:    40010000    ...@    DCD    1073807360
    $t
    i.drv_dap_3251_vol_set
    drv_dap_3251_vol_set
        0x00003024:    b538        8.      PUSH     {r3-r5,lr}
        0x00003026:    4604        .F      MOV      r4,r0
        0x00003028:    2103        .!      MOVS     r1,#3
        0x0000302a:    4810        .H      LDR      r0,[pc,#64] ; [0x306c] = 0x4008
        0x0000302c:    f7ffffb2    ....    BL       drv_dap_3251_i2c_write ; 0x2f94
        0x00003030:    00a0        ..      LSLS     r0,r4,#2
        0x00003032:    1824        $.      ADDS     r4,r4,r0
        0x00003034:    480e        .H      LDR      r0,[pc,#56] ; [0x3070] = 0x20000058
        0x00003036:    2500        .%      MOVS     r5,#0
        0x00003038:    1821        !.      ADDS     r1,r4,r0
        0x0000303a:    462b        +F      MOV      r3,r5
        0x0000303c:    2205        ."      MOVS     r2,#5
        0x0000303e:    2094        .       MOVS     r0,#0x94
        0x00003040:    9500        ..      STR      r5,[sp,#0]
        0x00003042:    f7fef909    ....    BL       Hal_I2c_Transfer ; 0x1258
        0x00003046:    2103        .!      MOVS     r1,#3
        0x00003048:    4808        .H      LDR      r0,[pc,#32] ; [0x306c] = 0x4008
        0x0000304a:    f7ffffa3    ....    BL       drv_dap_3251_i2c_write ; 0x2f94
        0x0000304e:    4808        .H      LDR      r0,[pc,#32] ; [0x3070] = 0x20000058
        0x00003050:    2300        .#      MOVS     r3,#0
        0x00003052:    3055        U0      ADDS     r0,r0,#0x55
        0x00003054:    1821        !.      ADDS     r1,r4,r0
        0x00003056:    2205        ."      MOVS     r2,#5
        0x00003058:    2094        .       MOVS     r0,#0x94
        0x0000305a:    9500        ..      STR      r5,[sp,#0]
        0x0000305c:    f7fef8fc    ....    BL       Hal_I2c_Transfer ; 0x1258
        0x00003060:    2107        .!      MOVS     r1,#7
        0x00003062:    4804        .H      LDR      r0,[pc,#16] ; [0x3074] = 0x48e4
        0x00003064:    f7ffff96    ....    BL       drv_dap_3251_i2c_write ; 0x2f94
        0x00003068:    bd38        8.      POP      {r3-r5,pc}
    $d
        0x0000306a:    0000        ..      DCW    0
        0x0000306c:    00004008    .@..    DCD    16392
        0x00003070:    20000058    X..     DCD    536871000
        0x00003074:    000048e4    .H..    DCD    18660
    $t
    i.drv_err_led_on
    drv_err_led_on
        0x00003078:    4903        .I      LDR      r1,[pc,#12] ; [0x3088] = 0x50004200
        0x0000307a:    2800        .(      CMP      r0,#0
        0x0000307c:    d001        ..      BEQ      0x3082 ; drv_err_led_on + 10
        0x0000307e:    2000        .       MOVS     r0,#0
        0x00003080:    e000        ..      B        0x3084 ; drv_err_led_on + 12
        0x00003082:    2001        .       MOVS     r0,#1
        0x00003084:    6088        .`      STR      r0,[r1,#8]
        0x00003086:    4770        pG      BX       lr
    $d
        0x00003088:    50004200    .B.P    DCD    1342194176
    $t
    i.drv_fm_led_on
    drv_fm_led_on
        0x0000308c:    4905        .I      LDR      r1,[pc,#20] ; [0x30a4] = 0x50004200
        0x0000308e:    2001        .       MOVS     r0,#1
        0x00003090:    6348        Hc      STR      r0,[r1,#0x34]
        0x00003092:    6308        .c      STR      r0,[r1,#0x30]
        0x00003094:    6048        H`      STR      r0,[r1,#4]
        0x00003096:    4a03        .J      LDR      r2,[pc,#12] ; [0x30a4] = 0x50004200
        0x00003098:    2100        .!      MOVS     r1,#0
        0x0000309a:    3280        .2      ADDS     r2,r2,#0x80
        0x0000309c:    63d1        .c      STR      r1,[r2,#0x3c]
        0x0000309e:    4902        .I      LDR      r1,[pc,#8] ; [0x30a8] = 0x50004340
        0x000030a0:    6188        .a      STR      r0,[r1,#0x18]
        0x000030a2:    4770        pG      BX       lr
    $d
        0x000030a4:    50004200    .B.P    DCD    1342194176
        0x000030a8:    50004340    @C.P    DCD    1342194496
    $t
    i.drv_gipo_key_init
    drv_gipo_key_init
        0x000030ac:    b510        ..      PUSH     {r4,lr}
        0x000030ae:    4c07        .L      LDR      r4,[pc,#28] ; [0x30cc] = 0x50004080
        0x000030b0:    2200        ."      MOVS     r2,#0
        0x000030b2:    2108        .!      MOVS     r1,#8
        0x000030b4:    4620         F      MOV      r0,r4
        0x000030b6:    f7fdff54    ..T.    BL       GPIO_SetMode ; 0xf62
        0x000030ba:    2200        ."      MOVS     r2,#0
        0x000030bc:    2140        @!      MOVS     r1,#0x40
        0x000030be:    4620         F      MOV      r0,r4
        0x000030c0:    f7fdff4f    ..O.    BL       GPIO_SetMode ; 0xf62
        0x000030c4:    f7fef956    ..V.    BL       HwKeyScanInit ; 0x1374
        0x000030c8:    bd10        ..      POP      {r4,pc}
    $d
        0x000030ca:    0000        ..      DCW    0
        0x000030cc:    50004080    .@.P    DCD    1342193792
    $t
    i.drv_led_init
    drv_led_init
        0x000030d0:    b570        p.      PUSH     {r4-r6,lr}
        0x000030d2:    4c1e        .L      LDR      r4,[pc,#120] ; [0x314c] = 0x50004000
        0x000030d4:    2201        ."      MOVS     r2,#1
        0x000030d6:    0391        ..      LSLS     r1,r2,#14
        0x000030d8:    4620         F      MOV      r0,r4
        0x000030da:    f7fdff42    ..B.    BL       GPIO_SetMode ; 0xf62
        0x000030de:    2201        ."      MOVS     r2,#1
        0x000030e0:    03d5        ..      LSLS     r5,r2,#15
        0x000030e2:    4629        )F      MOV      r1,r5
        0x000030e4:    4620         F      MOV      r0,r4
        0x000030e6:    f7fdff3c    ..<.    BL       GPIO_SetMode ; 0xf62
        0x000030ea:    2201        ."      MOVS     r2,#1
        0x000030ec:    0351        Q.      LSLS     r1,r2,#13
        0x000030ee:    4620         F      MOV      r0,r4
        0x000030f0:    f7fdff37    ..7.    BL       GPIO_SetMode ; 0xf62
        0x000030f4:    2201        ."      MOVS     r2,#1
        0x000030f6:    0311        ..      LSLS     r1,r2,#12
        0x000030f8:    4620         F      MOV      r0,r4
        0x000030fa:    f7fdff32    ..2.    BL       GPIO_SetMode ; 0xf62
        0x000030fe:    2201        ."      MOVS     r2,#1
        0x00003100:    2102        .!      MOVS     r1,#2
        0x00003102:    4620         F      MOV      r0,r4
        0x00003104:    f7fdff2d    ..-.    BL       GPIO_SetMode ; 0xf62
        0x00003108:    2201        ."      MOVS     r2,#1
        0x0000310a:    2104        .!      MOVS     r1,#4
        0x0000310c:    4620         F      MOV      r0,r4
        0x0000310e:    f7fdff28    ..(.    BL       GPIO_SetMode ; 0xf62
        0x00003112:    480e        .H      LDR      r0,[pc,#56] ; [0x314c] = 0x50004000
        0x00003114:    2201        ."      MOVS     r2,#1
        0x00003116:    4629        )F      MOV      r1,r5
        0x00003118:    3080        .0      ADDS     r0,r0,#0x80
        0x0000311a:    f7fdff22    ..".    BL       GPIO_SetMode ; 0xf62
        0x0000311e:    2201        ."      MOVS     r2,#1
        0x00003120:    2140        @!      MOVS     r1,#0x40
        0x00003122:    480b        .H      LDR      r0,[pc,#44] ; [0x3150] = 0x50004140
        0x00003124:    f7fdff1d    ....    BL       GPIO_SetMode ; 0xf62
        0x00003128:    4909        .I      LDR      r1,[pc,#36] ; [0x3150] = 0x50004140
        0x0000312a:    2001        .       MOVS     r0,#1
        0x0000312c:    31c0        .1      ADDS     r1,r1,#0xc0
        0x0000312e:    6088        .`      STR      r0,[r1,#8]
        0x00003130:    6348        Hc      STR      r0,[r1,#0x34]
        0x00003132:    6308        .c      STR      r0,[r1,#0x30]
        0x00003134:    6048        H`      STR      r0,[r1,#4]
        0x00003136:    4a07        .J      LDR      r2,[pc,#28] ; [0x3154] = 0x50004280
        0x00003138:    63d0        .c      STR      r0,[r2,#0x3c]
        0x0000313a:    4a06        .J      LDR      r2,[pc,#24] ; [0x3154] = 0x50004280
        0x0000313c:    32c0        .2      ADDS     r2,r2,#0xc0
        0x0000313e:    6190        .a      STR      r0,[r2,#0x18]
        0x00003140:    6088        .`      STR      r0,[r1,#8]
        0x00003142:    60c8        .`      STR      r0,[r1,#0xc]
        0x00003144:    6388        .c      STR      r0,[r1,#0x38]
        0x00003146:    2000        .       MOVS     r0,#0
        0x00003148:    63c8        .c      STR      r0,[r1,#0x3c]
        0x0000314a:    bd70        p.      POP      {r4-r6,pc}
    $d
        0x0000314c:    50004000    .@.P    DCD    1342193664
        0x00003150:    50004140    @A.P    DCD    1342193984
        0x00003154:    50004280    .B.P    DCD    1342194304
    $t
    i.drv_pairing_cmd_send
    drv_pairing_cmd_send
        0x00003158:    b510        ..      PUSH     {r4,lr}
        0x0000315a:    2200        ."      MOVS     r2,#0
        0x0000315c:    2121        !!      MOVS     r1,#0x21
        0x0000315e:    2003        .       MOVS     r0,#3
        0x00003160:    f7fdfd52    ..R.    BL       Cmd_Send2FourG ; 0xc08
        0x00003164:    bd10        ..      POP      {r4,pc}
        0x00003166:    0000        ..      MOVS     r0,r0
    i.drv_pcm1862_input_channel
    drv_pcm1862_input_channel
        0x00003168:    b538        8.      PUSH     {r3-r5,lr}
        0x0000316a:    4604        .F      MOV      r4,r0
        0x0000316c:    4601        .F      MOV      r1,r0
        0x0000316e:    a010        ..      ADR      r0,{pc}+0x42 ; 0x31b0
        0x00003170:    f7fdf848    ..H.    BL       __2printf ; 0x204
        0x00003174:    2040        @       MOVS     r0,#0x40
        0x00003176:    4304        .C      ORRS     r4,r4,r0
        0x00003178:    4812        .H      LDR      r0,[pc,#72] ; [0x31c4] = 0x20000050
        0x0000317a:    4621        !F      MOV      r1,r4
        0x0000317c:    7044        Dp      STRB     r4,[r0,#1]
        0x0000317e:    1c85        ..      ADDS     r5,r0,#2
        0x00003180:    706c        lp      STRB     r4,[r5,#1]
        0x00003182:    a011        ..      ADR      r0,{pc}+0x46 ; 0x31c8
        0x00003184:    f7fdf83e    ..>.    BL       __2printf ; 0x204
        0x00003188:    7869        ix      LDRB     r1,[r5,#1]
        0x0000318a:    a016        ..      ADR      r0,{pc}+0x5a ; 0x31e4
        0x0000318c:    f7fdf83a    ..:.    BL       __2printf ; 0x204
        0x00003190:    2400        .$      MOVS     r4,#0
        0x00003192:    4623        #F      MOV      r3,r4
        0x00003194:    2202        ."      MOVS     r2,#2
        0x00003196:    1ea9        ..      SUBS     r1,r5,#2
        0x00003198:    2094        .       MOVS     r0,#0x94
        0x0000319a:    9400        ..      STR      r4,[sp,#0]
        0x0000319c:    f7fdffdc    ....    BL       Hal_I2c1_Transfer ; 0x1158
        0x000031a0:    2300        .#      MOVS     r3,#0
        0x000031a2:    2202        ."      MOVS     r2,#2
        0x000031a4:    4629        )F      MOV      r1,r5
        0x000031a6:    2094        .       MOVS     r0,#0x94
        0x000031a8:    9400        ..      STR      r4,[sp,#0]
        0x000031aa:    f7fdffd5    ....    BL       Hal_I2c1_Transfer ; 0x1158
        0x000031ae:    bd38        8.      POP      {r3-r5,pc}
    $d
        0x000031b0:    5f6d6370    pcm_    DCD    1601004400
        0x000031b4:    6e616863    chan    DCD    1851877475
        0x000031b8:    206c656e    nel     DCD    543974766
        0x000031bc:    7825203d    = %x    DCD    2015699005
        0x000031c0:    0000000a    ....    DCD    10
        0x000031c4:    20000050    P..     DCD    536870992
        0x000031c8:    316d6370    pcm1    DCD    829252464
        0x000031cc:    5f323638    862_    DCD    1597126200
        0x000031d0:    6e616863    chan    DCD    1851877475
        0x000031d4:    5f6c656e    nel_    DCD    1600939374
        0x000031d8:    5d315b4c    L[1]    DCD    1563515724
        0x000031dc:    25203d20     = %    DCD    622869792
        0x000031e0:    00000a78    x...    DCD    2680
        0x000031e4:    316d6370    pcm1    DCD    829252464
        0x000031e8:    5f323638    862_    DCD    1597126200
        0x000031ec:    6e616863    chan    DCD    1851877475
        0x000031f0:    5f6c656e    nel_    DCD    1600939374
        0x000031f4:    5d315b52    R[1]    DCD    1563515730
        0x000031f8:    25203d20     = %    DCD    622869792
        0x000031fc:    00000a78    x...    DCD    2680
    $t
    i.drv_power_status_updata
    drv_power_status_updata
        0x00003200:    b510        ..      PUSH     {r4,lr}
        0x00003202:    2009        .       MOVS     r0,#9
        0x00003204:    0300        ..      LSLS     r0,r0,#12
        0x00003206:    f7fff827    ..'.    BL       TYM_gpio_adc_get ; 0x2258
        0x0000320a:    f7feff8f    ....    BL       TYM_drv_In_bat_status_updata ; 0x212c
        0x0000320e:    f7feffef    ....    BL       TYM_drv_ex_bat_status_updata ; 0x21f0
        0x00003212:    f7feffd5    ....    BL       TYM_drv_ac_status_updata ; 0x21c0
        0x00003216:    bd10        ..      POP      {r4,pc}
    i.drv_wifi_4g_switch_cmd_send
    drv_wifi_4g_switch_cmd_send
        0x00003218:    b510        ..      PUSH     {r4,lr}
        0x0000321a:    2200        ."      MOVS     r2,#0
        0x0000321c:    2150        P!      MOVS     r1,#0x50
        0x0000321e:    2003        .       MOVS     r0,#3
        0x00003220:    f7fdfcf2    ....    BL       Cmd_Send2FourG ; 0xc08
        0x00003224:    bd10        ..      POP      {r4,pc}
        0x00003226:    0000        ..      MOVS     r0,r0
    i.drv_wifi_led_on
    drv_wifi_led_on
        0x00003228:    4a07        .J      LDR      r2,[pc,#28] ; [0x3248] = 0x50004200
        0x0000322a:    2101        .!      MOVS     r1,#1
        0x0000322c:    2800        .(      CMP      r0,#0
        0x0000322e:    d002        ..      BEQ      0x3236 ; drv_wifi_led_on + 14
        0x00003230:    2000        .       MOVS     r0,#0
        0x00003232:    6350        Pc      STR      r0,[r2,#0x34]
        0x00003234:    e000        ..      B        0x3238 ; drv_wifi_led_on + 16
        0x00003236:    6351        Qc      STR      r1,[r2,#0x34]
        0x00003238:    6311        .c      STR      r1,[r2,#0x30]
        0x0000323a:    6051        Q`      STR      r1,[r2,#4]
        0x0000323c:    4802        .H      LDR      r0,[pc,#8] ; [0x3248] = 0x50004200
        0x0000323e:    3080        .0      ADDS     r0,r0,#0x80
        0x00003240:    63c1        .c      STR      r1,[r0,#0x3c]
        0x00003242:    4802        .H      LDR      r0,[pc,#8] ; [0x324c] = 0x50004340
        0x00003244:    6181        .a      STR      r1,[r0,#0x18]
        0x00003246:    4770        pG      BX       lr
    $d
        0x00003248:    50004200    .B.P    DCD    1342194176
        0x0000324c:    50004340    @C.P    DCD    1342194496
    $t
    i.ferror
    ferror
        0x00003250:    2000        .       MOVS     r0,#0
        0x00003252:    43c0        .C      MVNS     r0,r0
        0x00003254:    4770        pG      BX       lr
    i.fputc
    fputc
        0x00003256:    b500        ..      PUSH     {lr}
        0x00003258:    4603        .F      MOV      r3,r0
        0x0000325a:    f7fefdfb    ....    BL       SendChar_ToUART ; 0x1e54
        0x0000325e:    4618        .F      MOV      r0,r3
        0x00003260:    bd00        ..      POP      {pc}
        0x00003262:    0000        ..      MOVS     r0,r0
    i.main
    main
        0x00003264:    b086        ..      SUB      sp,sp,#0x18
        0x00003266:    2701        .'      MOVS     r7,#1
        0x00003268:    463e        >F      MOV      r6,r7
        0x0000326a:    463d        =F      MOV      r5,r7
        0x0000326c:    f7fefda2    ....    BL       SYS_Init ; 0x1db4
        0x00003270:    f7fefe00    ....    BL       SysIdle ; 0x1e74
        0x00003274:    a0fd        ..      ADR      r0,{pc}+0x3f8 ; 0x366c
        0x00003276:    f7fcffc5    ....    BL       __2printf ; 0x204
        0x0000327a:    4cfe        .L      LDR      r4,[pc,#1016] ; [0x3674] = 0x20000a14
        0x0000327c:    48fe        .H      LDR      r0,[pc,#1016] ; [0x3678] = 0x20000020
        0x0000327e:    f7fefb0b    ....    BL       IsTimeOut ; 0x1898
        0x00003282:    2800        .(      CMP      r0,#0
        0x00003284:    d012        ..      BEQ      0x32ac ; main + 72
        0x00003286:    217d        }!      MOVS     r1,#0x7d
        0x00003288:    00c9        ..      LSLS     r1,r1,#3
        0x0000328a:    48fb        .H      LDR      r0,[pc,#1004] ; [0x3678] = 0x20000020
        0x0000328c:    f7fff8a2    ....    BL       TimeOutSet ; 0x23d4
        0x00003290:    79a0        .y      LDRB     r0,[r4,#6]
        0x00003292:    2800        .(      CMP      r0,#0
        0x00003294:    d003        ..      BEQ      0x329e ; main + 58
        0x00003296:    2001        .       MOVS     r0,#1
        0x00003298:    7160        `q      STRB     r0,[r4,#5]
        0x0000329a:    f000fc5f    .._.    BL       srv_led_sys_initing ; 0x3b5c
        0x0000329e:    48f7        .H      LDR      r0,[pc,#988] ; [0x367c] = 0x20000028
        0x000032a0:    f7fefafa    ....    BL       IsTimeOut ; 0x1898
        0x000032a4:    2800        .(      CMP      r0,#0
        0x000032a6:    d001        ..      BEQ      0x32ac ; main + 72
        0x000032a8:    f7fffddc    ....    BL       drv_FourGmodel_power_key_SetLow ; 0x2e64
        0x000032ac:    7b20         {      LDRB     r0,[r4,#0xc]
        0x000032ae:    2800        .(      CMP      r0,#0
        0x000032b0:    d008        ..      BEQ      0x32c4 ; main + 96
        0x000032b2:    2000        .       MOVS     r0,#0
        0x000032b4:    7320         s      STRB     r0,[r4,#0xc]
        0x000032b6:    2001        .       MOVS     r0,#1
        0x000032b8:    f7fffede    ....    BL       drv_err_led_on ; 0x3078
        0x000032bc:    2164        d!      MOVS     r1,#0x64
        0x000032be:    48f0        .H      LDR      r0,[pc,#960] ; [0x3680] = 0x20000030
        0x000032c0:    f7fff888    ....    BL       TimeOutSet ; 0x23d4
        0x000032c4:    48ee        .H      LDR      r0,[pc,#952] ; [0x3680] = 0x20000030
        0x000032c6:    f7fefae7    ....    BL       IsTimeOut ; 0x1898
        0x000032ca:    2800        .(      CMP      r0,#0
        0x000032cc:    d002        ..      BEQ      0x32d4 ; main + 112
        0x000032ce:    2000        .       MOVS     r0,#0
        0x000032d0:    f7fffed2    ....    BL       drv_err_led_on ; 0x3078
        0x000032d4:    a801        ..      ADD      r0,sp,#4
        0x000032d6:    f7fdfcf5    ....    BL       Core_Msg_Get ; 0xcc4
        0x000032da:    2800        .(      CMP      r0,#0
        0x000032dc:    d07e        ~.      BEQ      0x33dc ; main + 376
        0x000032de:    9801        ..      LDR      r0,[sp,#4]
        0x000032e0:    2801        .(      CMP      r0,#1
        0x000032e2:    d002        ..      BEQ      0x32ea ; main + 134
        0x000032e4:    2802        .(      CMP      r0,#2
        0x000032e6:    d179        y.      BNE      0x33dc ; main + 376
        0x000032e8:    e120         .      B        0x352c ; main + 712
        0x000032ea:    9804        ..      LDR      r0,[sp,#0x10]
        0x000032ec:    b2c2        ..      UXTB     r2,r0
        0x000032ee:    9803        ..      LDR      r0,[sp,#0xc]
        0x000032f0:    b2c1        ..      UXTB     r1,r0
        0x000032f2:    9802        ..      LDR      r0,[sp,#8]
        0x000032f4:    b2c0        ..      UXTB     r0,r0
        0x000032f6:    f7fffd53    ..S.    BL       drv_Cmd_Send2NCU031 ; 0x2da0
        0x000032fa:    a0e2        ..      ADR      r0,{pc}+0x38a ; 0x3684
        0x000032fc:    9a03        ..      LDR      r2,[sp,#0xc]
        0x000032fe:    9902        ..      LDR      r1,[sp,#8]
        0x00003300:    f7fcff80    ....    BL       __2printf ; 0x204
        0x00003304:    9802        ..      LDR      r0,[sp,#8]
        0x00003306:    2808        .(      CMP      r0,#8
        0x00003308:    d10f        ..      BNE      0x332a ; main + 198
        0x0000330a:    9803        ..      LDR      r0,[sp,#0xc]
        0x0000330c:    2800        .(      CMP      r0,#0
        0x0000330e:    d1ea        ..      BNE      0x32e6 ; main + 130
        0x00003310:    4601        .F      MOV      r1,r0
        0x00003312:    a0ea        ..      ADR      r0,{pc}+0x3aa ; 0x36bc
        0x00003314:    f7fcff76    ..v.    BL       __2printf ; 0x204
        0x00003318:    9803        ..      LDR      r0,[sp,#0xc]
        0x0000331a:    2200        ."      MOVS     r2,#0
        0x0000331c:    b2c1        ..      UXTB     r1,r0
        0x0000331e:    9802        ..      LDR      r0,[sp,#8]
        0x00003320:    b2c0        ..      UXTB     r0,r0
        0x00003322:    f7fffd3d    ..=.    BL       drv_Cmd_Send2NCU031 ; 0x2da0
        0x00003326:    2000        .       MOVS     r0,#0
        0x00003328:    71a0        .q      STRB     r0,[r4,#6]
        0x0000332a:    9802        ..      LDR      r0,[sp,#8]
        0x0000332c:    2809        .(      CMP      r0,#9
        0x0000332e:    d12a        *.      BNE      0x3386 ; main + 290
        0x00003330:    9803        ..      LDR      r0,[sp,#0xc]
        0x00003332:    2801        .(      CMP      r0,#1
        0x00003334:    d1d7        ..      BNE      0x32e6 ; main + 130
        0x00003336:    48cf        .H      LDR      r0,[pc,#828] ; [0x3674] = 0x20000a14
        0x00003338:    466b        kF      MOV      r3,sp
        0x0000333a:    3820         8      SUBS     r0,r0,#0x20
        0x0000333c:    8bc0        ..      LDRH     r0,[r0,#0x1e]
        0x0000333e:    0401        ..      LSLS     r1,r0,#16
        0x00003340:    0e09        ..      LSRS     r1,r1,#24
        0x00003342:    7059        Yp      STRB     r1,[r3,#1]
        0x00003344:    b2c2        ..      UXTB     r2,r0
        0x00003346:    701a        .p      STRB     r2,[r3,#0]
        0x00003348:    7820         x      LDRB     r0,[r4,#0]
        0x0000334a:    2801        .(      CMP      r0,#1
        0x0000334c:    d002        ..      BEQ      0x3354 ; main + 240
        0x0000334e:    09c8        ..      LSRS     r0,r1,#7
        0x00003350:    01c0        ..      LSLS     r0,r0,#7
        0x00003352:    7058        Xp      STRB     r0,[r3,#1]
        0x00003354:    7859        Yx      LDRB     r1,[r3,#1]
        0x00003356:    2009        .       MOVS     r0,#9
        0x00003358:    f7fdfc56    ..V.    BL       Cmd_Send2FourG ; 0xc08
        0x0000335c:    48c5        .H      LDR      r0,[pc,#788] ; [0x3674] = 0x20000a14
        0x0000335e:    3820         8      SUBS     r0,r0,#0x20
        0x00003360:    8b02        ..      LDRH     r2,[r0,#0x18]
        0x00003362:    0410        ..      LSLS     r0,r2,#16
        0x00003364:    0e01        ..      LSRS     r1,r0,#24
        0x00003366:    4668        hF      MOV      r0,sp
        0x00003368:    7041        Ap      STRB     r1,[r0,#1]
        0x0000336a:    b2d2        ..      UXTB     r2,r2
        0x0000336c:    7002        .p      STRB     r2,[r0,#0]
        0x0000336e:    7860        `x      LDRB     r0,[r4,#1]
        0x00003370:    2803        .(      CMP      r0,#3
        0x00003372:    d003        ..      BEQ      0x337c ; main + 280
        0x00003374:    2060        `       MOVS     r0,#0x60
        0x00003376:    4001        .@      ANDS     r1,r1,r0
        0x00003378:    4668        hF      MOV      r0,sp
        0x0000337a:    7041        Ap      STRB     r1,[r0,#1]
        0x0000337c:    4668        hF      MOV      r0,sp
        0x0000337e:    7841        Ax      LDRB     r1,[r0,#1]
        0x00003380:    2009        .       MOVS     r0,#9
        0x00003382:    f7fdfc41    ..A.    BL       Cmd_Send2FourG ; 0xc08
        0x00003386:    9802        ..      LDR      r0,[sp,#8]
        0x00003388:    2807        .(      CMP      r0,#7
        0x0000338a:    d103        ..      BNE      0x3394 ; main + 304
        0x0000338c:    a0d1        ..      ADR      r0,{pc}+0x348 ; 0x36d4
        0x0000338e:    9903        ..      LDR      r1,[sp,#0xc]
        0x00003390:    f7fcff38    ..8.    BL       __2printf ; 0x204
        0x00003394:    9802        ..      LDR      r0,[sp,#8]
        0x00003396:    2804        .(      CMP      r0,#4
        0x00003398:    d103        ..      BNE      0x33a2 ; main + 318
        0x0000339a:    a0d4        ..      ADR      r0,{pc}+0x352 ; 0x36ec
        0x0000339c:    9903        ..      LDR      r1,[sp,#0xc]
        0x0000339e:    f7fcff31    ..1.    BL       __2printf ; 0x204
        0x000033a2:    9802        ..      LDR      r0,[sp,#8]
        0x000033a4:    280f        .(      CMP      r0,#0xf
        0x000033a6:    d111        ..      BNE      0x33cc ; main + 360
        0x000033a8:    9803        ..      LDR      r0,[sp,#0xc]
        0x000033aa:    2819        .(      CMP      r0,#0x19
        0x000033ac:    d105        ..      BNE      0x33ba ; main + 342
        0x000033ae:    2009        .       MOVS     r0,#9
        0x000033b0:    7160        `q      STRB     r0,[r4,#5]
        0x000033b2:    a0d4        ..      ADR      r0,{pc}+0x352 ; 0x3704
        0x000033b4:    9903        ..      LDR      r1,[sp,#0xc]
        0x000033b6:    f7fcff25    ..%.    BL       __2printf ; 0x204
        0x000033ba:    9803        ..      LDR      r0,[sp,#0xc]
        0x000033bc:    2817        .(      CMP      r0,#0x17
        0x000033be:    d105        ..      BNE      0x33cc ; main + 360
        0x000033c0:    2008        .       MOVS     r0,#8
        0x000033c2:    7160        `q      STRB     r0,[r4,#5]
        0x000033c4:    a0cf        ..      ADR      r0,{pc}+0x340 ; 0x3704
        0x000033c6:    9903        ..      LDR      r1,[sp,#0xc]
        0x000033c8:    f7fcff1c    ....    BL       __2printf ; 0x204
        0x000033cc:    9802        ..      LDR      r0,[sp,#8]
        0x000033ce:    2806        .(      CMP      r0,#6
        0x000033d0:    d152        R.      BNE      0x3478 ; main + 532
        0x000033d2:    9803        ..      LDR      r0,[sp,#0xc]
        0x000033d4:    2806        .(      CMP      r0,#6
        0x000033d6:    d106        ..      BNE      0x33e6 ; main + 386
        0x000033d8:    2106        .!      MOVS     r1,#6
        0x000033da:    e000        ..      B        0x33de ; main + 378
        0x000033dc:    e0a5        ..      B        0x352a ; main + 710
        0x000033de:    7161        aq      STRB     r1,[r4,#5]
        0x000033e0:    a0ce        ..      ADR      r0,{pc}+0x33c ; 0x371c
        0x000033e2:    f7fcff0f    ....    BL       __2printf ; 0x204
        0x000033e6:    9803        ..      LDR      r0,[sp,#0xc]
        0x000033e8:    2807        .(      CMP      r0,#7
        0x000033ea:    d104        ..      BNE      0x33f6 ; main + 402
        0x000033ec:    2107        .!      MOVS     r1,#7
        0x000033ee:    7161        aq      STRB     r1,[r4,#5]
        0x000033f0:    a0ca        ..      ADR      r0,{pc}+0x32c ; 0x371c
        0x000033f2:    f7fcff07    ....    BL       __2printf ; 0x204
        0x000033f6:    9803        ..      LDR      r0,[sp,#0xc]
        0x000033f8:    2802        .(      CMP      r0,#2
        0x000033fa:    d104        ..      BNE      0x3406 ; main + 418
        0x000033fc:    2102        .!      MOVS     r1,#2
        0x000033fe:    7161        aq      STRB     r1,[r4,#5]
        0x00003400:    a0c6        ..      ADR      r0,{pc}+0x31c ; 0x371c
        0x00003402:    f7fcfeff    ....    BL       __2printf ; 0x204
        0x00003406:    9803        ..      LDR      r0,[sp,#0xc]
        0x00003408:    2804        .(      CMP      r0,#4
        0x0000340a:    d105        ..      BNE      0x3418 ; main + 436
        0x0000340c:    2001        .       MOVS     r0,#1
        0x0000340e:    7160        `q      STRB     r0,[r4,#5]
        0x00003410:    a0c2        ..      ADR      r0,{pc}+0x30c ; 0x371c
        0x00003412:    9903        ..      LDR      r1,[sp,#0xc]
        0x00003414:    f7fcfef6    ....    BL       __2printf ; 0x204
        0x00003418:    9803        ..      LDR      r0,[sp,#0xc]
        0x0000341a:    2805        .(      CMP      r0,#5
        0x0000341c:    d105        ..      BNE      0x342a ; main + 454
        0x0000341e:    2003        .       MOVS     r0,#3
        0x00003420:    7160        `q      STRB     r0,[r4,#5]
        0x00003422:    a0be        ..      ADR      r0,{pc}+0x2fa ; 0x371c
        0x00003424:    9903        ..      LDR      r1,[sp,#0xc]
        0x00003426:    f7fcfeed    ....    BL       __2printf ; 0x204
        0x0000342a:    9803        ..      LDR      r0,[sp,#0xc]
        0x0000342c:    2811        .(      CMP      r0,#0x11
        0x0000342e:    d105        ..      BNE      0x343c ; main + 472
        0x00003430:    2005        .       MOVS     r0,#5
        0x00003432:    7160        `q      STRB     r0,[r4,#5]
        0x00003434:    a0b9        ..      ADR      r0,{pc}+0x2e8 ; 0x371c
        0x00003436:    9903        ..      LDR      r1,[sp,#0xc]
        0x00003438:    f7fcfee4    ....    BL       __2printf ; 0x204
        0x0000343c:    9803        ..      LDR      r0,[sp,#0xc]
        0x0000343e:    2812        .(      CMP      r0,#0x12
        0x00003440:    d105        ..      BNE      0x344e ; main + 490
        0x00003442:    2004        .       MOVS     r0,#4
        0x00003444:    7160        `q      STRB     r0,[r4,#5]
        0x00003446:    a0b5        ..      ADR      r0,{pc}+0x2d6 ; 0x371c
        0x00003448:    9903        ..      LDR      r1,[sp,#0xc]
        0x0000344a:    f7fcfedb    ....    BL       __2printf ; 0x204
        0x0000344e:    9803        ..      LDR      r0,[sp,#0xc]
        0x00003450:    280b        .(      CMP      r0,#0xb
        0x00003452:    d104        ..      BNE      0x345e ; main + 506
        0x00003454:    210b        .!      MOVS     r1,#0xb
        0x00003456:    7161        aq      STRB     r1,[r4,#5]
        0x00003458:    a0b0        ..      ADR      r0,{pc}+0x2c4 ; 0x371c
        0x0000345a:    f7fcfed3    ....    BL       __2printf ; 0x204
        0x0000345e:    9803        ..      LDR      r0,[sp,#0xc]
        0x00003460:    2809        .(      CMP      r0,#9
        0x00003462:    d003        ..      BEQ      0x346c ; main + 520
        0x00003464:    2808        .(      CMP      r0,#8
        0x00003466:    d001        ..      BEQ      0x346c ; main + 520
        0x00003468:    2816        .(      CMP      r0,#0x16
        0x0000346a:    d105        ..      BNE      0x3478 ; main + 532
        0x0000346c:    200c        .       MOVS     r0,#0xc
        0x0000346e:    7160        `q      STRB     r0,[r4,#5]
        0x00003470:    a0aa        ..      ADR      r0,{pc}+0x2ac ; 0x371c
        0x00003472:    9903        ..      LDR      r1,[sp,#0xc]
        0x00003474:    f7fcfec6    ....    BL       __2printf ; 0x204
        0x00003478:    9802        ..      LDR      r0,[sp,#8]
        0x0000347a:    2811        .(      CMP      r0,#0x11
        0x0000347c:    d105        ..      BNE      0x348a ; main + 550
        0x0000347e:    9804        ..      LDR      r0,[sp,#0x10]
        0x00003480:    b2c1        ..      UXTB     r1,r0
        0x00003482:    9803        ..      LDR      r0,[sp,#0xc]
        0x00003484:    b2c0        ..      UXTB     r0,r0
        0x00003486:    f000fd0f    ....    BL       srv_rtc_set_ym ; 0x3ea8
        0x0000348a:    9802        ..      LDR      r0,[sp,#8]
        0x0000348c:    2812        .(      CMP      r0,#0x12
        0x0000348e:    d105        ..      BNE      0x349c ; main + 568
        0x00003490:    9804        ..      LDR      r0,[sp,#0x10]
        0x00003492:    b2c1        ..      UXTB     r1,r0
        0x00003494:    9803        ..      LDR      r0,[sp,#0xc]
        0x00003496:    b2c0        ..      UXTB     r0,r0
        0x00003498:    f000fc82    ....    BL       srv_rtc_set_dw ; 0x3da0
        0x0000349c:    9802        ..      LDR      r0,[sp,#8]
        0x0000349e:    2813        .(      CMP      r0,#0x13
        0x000034a0:    d105        ..      BNE      0x34ae ; main + 586
        0x000034a2:    9804        ..      LDR      r0,[sp,#0x10]
        0x000034a4:    b2c1        ..      UXTB     r1,r0
        0x000034a6:    9803        ..      LDR      r0,[sp,#0xc]
        0x000034a8:    b2c0        ..      UXTB     r0,r0
        0x000034aa:    f000fca3    ....    BL       srv_rtc_set_hm ; 0x3df4
        0x000034ae:    9802        ..      LDR      r0,[sp,#8]
        0x000034b0:    2814        .(      CMP      r0,#0x14
        0x000034b2:    d105        ..      BNE      0x34c0 ; main + 604
        0x000034b4:    9804        ..      LDR      r0,[sp,#0x10]
        0x000034b6:    b2c1        ..      UXTB     r1,r0
        0x000034b8:    9803        ..      LDR      r0,[sp,#0xc]
        0x000034ba:    b2c0        ..      UXTB     r0,r0
        0x000034bc:    f000fcc6    ....    BL       srv_rtc_set_st ; 0x3e4c
        0x000034c0:    9802        ..      LDR      r0,[sp,#8]
        0x000034c2:    2815        .(      CMP      r0,#0x15
        0x000034c4:    d105        ..      BNE      0x34d2 ; main + 622
        0x000034c6:    9804        ..      LDR      r0,[sp,#0x10]
        0x000034c8:    b2c1        ..      UXTB     r1,r0
        0x000034ca:    9803        ..      LDR      r0,[sp,#0xc]
        0x000034cc:    b2c0        ..      UXTB     r0,r0
        0x000034ce:    f000fc15    ....    BL       srv_rtc_alarm_set_ym ; 0x3cfc
        0x000034d2:    9802        ..      LDR      r0,[sp,#8]
        0x000034d4:    2816        .(      CMP      r0,#0x16
        0x000034d6:    d105        ..      BNE      0x34e4 ; main + 640
        0x000034d8:    9804        ..      LDR      r0,[sp,#0x10]
        0x000034da:    b2c1        ..      UXTB     r1,r0
        0x000034dc:    9803        ..      LDR      r0,[sp,#0xc]
        0x000034de:    b2c0        ..      UXTB     r0,r0
        0x000034e0:    f000fb8a    ....    BL       srv_rtc_alarm_set_dw ; 0x3bf8
        0x000034e4:    9802        ..      LDR      r0,[sp,#8]
        0x000034e6:    2817        .(      CMP      r0,#0x17
        0x000034e8:    d105        ..      BNE      0x34f6 ; main + 658
        0x000034ea:    9804        ..      LDR      r0,[sp,#0x10]
        0x000034ec:    b2c1        ..      UXTB     r1,r0
        0x000034ee:    9803        ..      LDR      r0,[sp,#0xc]
        0x000034f0:    b2c0        ..      UXTB     r0,r0
        0x000034f2:    f000fba9    ....    BL       srv_rtc_alarm_set_hm ; 0x3c48
        0x000034f6:    9802        ..      LDR      r0,[sp,#8]
        0x000034f8:    2818        .(      CMP      r0,#0x18
        0x000034fa:    d105        ..      BNE      0x3508 ; main + 676
        0x000034fc:    9804        ..      LDR      r0,[sp,#0x10]
        0x000034fe:    b2c1        ..      UXTB     r1,r0
        0x00003500:    9803        ..      LDR      r0,[sp,#0xc]
        0x00003502:    b2c0        ..      UXTB     r0,r0
        0x00003504:    f000fbcc    ....    BL       srv_rtc_alarm_set_st ; 0x3ca0
        0x00003508:    9802        ..      LDR      r0,[sp,#8]
        0x0000350a:    2819        .(      CMP      r0,#0x19
        0x0000350c:    d101        ..      BNE      0x3512 ; main + 686
        0x0000350e:    f000fc21    ..!.    BL       srv_rtc_get ; 0x3d54
        0x00003512:    9802        ..      LDR      r0,[sp,#8]
        0x00003514:    281a        .(      CMP      r0,#0x1a
        0x00003516:    d101        ..      BNE      0x351c ; main + 696
        0x00003518:    f000fb48    ..H.    BL       srv_rtc_alarm_get ; 0x3bac
        0x0000351c:    9802        ..      LDR      r0,[sp,#8]
        0x0000351e:    2820         (      CMP      r0,#0x20
        0x00003520:    d103        ..      BNE      0x352a ; main + 710
        0x00003522:    2201        ."      MOVS     r2,#1
        0x00003524:    2100        .!      MOVS     r1,#0
        0x00003526:    f7fdfb6f    ..o.    BL       Cmd_Send2FourG ; 0xc08
        0x0000352a:    e08e        ..      B        0x364a ; main + 998
        0x0000352c:    9804        ..      LDR      r0,[sp,#0x10]
        0x0000352e:    b2c2        ..      UXTB     r2,r0
        0x00003530:    9803        ..      LDR      r0,[sp,#0xc]
        0x00003532:    b2c1        ..      UXTB     r1,r0
        0x00003534:    9802        ..      LDR      r0,[sp,#8]
        0x00003536:    b2c0        ..      UXTB     r0,r0
        0x00003538:    f7fdfb66    ..f.    BL       Cmd_Send2FourG ; 0xc08
        0x0000353c:    9802        ..      LDR      r0,[sp,#8]
        0x0000353e:    2801        .(      CMP      r0,#1
        0x00003540:    d107        ..      BNE      0x3552 ; main + 750
        0x00003542:    9803        ..      LDR      r0,[sp,#0xc]
        0x00003544:    2800        .(      CMP      r0,#0
        0x00003546:    d1f0        ..      BNE      0x352a ; main + 710
        0x00003548:    7922        "y      LDRB     r2,[r4,#4]
        0x0000354a:    78e1        .x      LDRB     r1,[r4,#3]
        0x0000354c:    2001        .       MOVS     r0,#1
        0x0000354e:    f7fffc27    ..'.    BL       drv_Cmd_Send2NCU031 ; 0x2da0
        0x00003552:    9802        ..      LDR      r0,[sp,#8]
        0x00003554:    2803        .(      CMP      r0,#3
        0x00003556:    d178        x.      BNE      0x364a ; main + 998
        0x00003558:    9803        ..      LDR      r0,[sp,#0xc]
        0x0000355a:    2803        .(      CMP      r0,#3
        0x0000355c:    d10e        ..      BNE      0x357c ; main + 792
        0x0000355e:    4975        uI      LDR      r1,[pc,#468] ; [0x3734] = 0x20000039
        0x00003560:    7808        .x      LDRB     r0,[r1,#0]
        0x00003562:    2800        .(      CMP      r0,#0
        0x00003564:    d071        q.      BEQ      0x364a ; main + 998
        0x00003566:    1e40        @.      SUBS     r0,r0,#1
        0x00003568:    b2c0        ..      UXTB     r0,r0
        0x0000356a:    7008        .p      STRB     r0,[r1,#0]
        0x0000356c:    f7fdfc54    ..T.    BL       Drv_Dap_vol_set ; 0xe18
        0x00003570:    a071        q.      ADR      r0,{pc}+0x1c8 ; 0x3738
        0x00003572:    f7fcfe47    ..G.    BL       __2printf ; 0x204
        0x00003576:    9802        ..      LDR      r0,[sp,#8]
        0x00003578:    2803        .(      CMP      r0,#3
        0x0000357a:    d166        f.      BNE      0x364a ; main + 998
        0x0000357c:    9803        ..      LDR      r0,[sp,#0xc]
        0x0000357e:    2802        .(      CMP      r0,#2
        0x00003580:    d10e        ..      BNE      0x35a0 ; main + 828
        0x00003582:    496c        lI      LDR      r1,[pc,#432] ; [0x3734] = 0x20000039
        0x00003584:    7808        .x      LDRB     r0,[r1,#0]
        0x00003586:    280f        .(      CMP      r0,#0xf
        0x00003588:    d25f        _.      BCS      0x364a ; main + 998
        0x0000358a:    1c40        @.      ADDS     r0,r0,#1
        0x0000358c:    b2c0        ..      UXTB     r0,r0
        0x0000358e:    7008        .p      STRB     r0,[r1,#0]
        0x00003590:    f7fdfc42    ..B.    BL       Drv_Dap_vol_set ; 0xe18
        0x00003594:    a06e        n.      ADR      r0,{pc}+0x1bc ; 0x3750
        0x00003596:    f7fcfe35    ..5.    BL       __2printf ; 0x204
        0x0000359a:    9802        ..      LDR      r0,[sp,#8]
        0x0000359c:    2803        .(      CMP      r0,#3
        0x0000359e:    d154        T.      BNE      0x364a ; main + 998
        0x000035a0:    9803        ..      LDR      r0,[sp,#0xc]
        0x000035a2:    2855        U(      CMP      r0,#0x55
        0x000035a4:    d002        ..      BEQ      0x35ac ; main + 840
        0x000035a6:    2815        .(      CMP      r0,#0x15
        0x000035a8:    d003        ..      BEQ      0x35b2 ; main + 846
        0x000035aa:    e00a        ..      B        0x35c2 ; main + 862
        0x000035ac:    200d        .       MOVS     r0,#0xd
        0x000035ae:    7160        `q      STRB     r0,[r4,#5]
        0x000035b0:    e04b        K.      B        0x364a ; main + 998
        0x000035b2:    2001        .       MOVS     r0,#1
        0x000035b4:    7160        `q      STRB     r0,[r4,#5]
        0x000035b6:    a06d        m.      ADR      r0,{pc}+0x1b6 ; 0x376c
        0x000035b8:    f7fcfe24    ..$.    BL       __2printf ; 0x204
        0x000035bc:    9802        ..      LDR      r0,[sp,#8]
        0x000035be:    2803        .(      CMP      r0,#3
        0x000035c0:    d143        C.      BNE      0x364a ; main + 998
        0x000035c2:    9803        ..      LDR      r0,[sp,#0xc]
        0x000035c4:    2816        .(      CMP      r0,#0x16
        0x000035c6:    d107        ..      BNE      0x35d8 ; main + 884
        0x000035c8:    2006        .       MOVS     r0,#6
        0x000035ca:    7160        `q      STRB     r0,[r4,#5]
        0x000035cc:    a06c        l.      ADR      r0,{pc}+0x1b4 ; 0x3780
        0x000035ce:    f7fcfe19    ....    BL       __2printf ; 0x204
        0x000035d2:    9802        ..      LDR      r0,[sp,#8]
        0x000035d4:    2803        .(      CMP      r0,#3
        0x000035d6:    d138        8.      BNE      0x364a ; main + 998
        0x000035d8:    9803        ..      LDR      r0,[sp,#0xc]
        0x000035da:    2817        .(      CMP      r0,#0x17
        0x000035dc:    d107        ..      BNE      0x35ee ; main + 906
        0x000035de:    2008        .       MOVS     r0,#8
        0x000035e0:    7160        `q      STRB     r0,[r4,#5]
        0x000035e2:    a06c        l.      ADR      r0,{pc}+0x1b2 ; 0x3794
        0x000035e4:    f7fcfe0e    ....    BL       __2printf ; 0x204
        0x000035e8:    9802        ..      LDR      r0,[sp,#8]
        0x000035ea:    2803        .(      CMP      r0,#3
        0x000035ec:    d12d        -.      BNE      0x364a ; main + 998
        0x000035ee:    9803        ..      LDR      r0,[sp,#0xc]
        0x000035f0:    2818        .(      CMP      r0,#0x18
        0x000035f2:    d107        ..      BNE      0x3604 ; main + 928
        0x000035f4:    200a        .       MOVS     r0,#0xa
        0x000035f6:    7160        `q      STRB     r0,[r4,#5]
        0x000035f8:    a066        f.      ADR      r0,{pc}+0x19c ; 0x3794
        0x000035fa:    f7fcfe03    ....    BL       __2printf ; 0x204
        0x000035fe:    9802        ..      LDR      r0,[sp,#8]
        0x00003600:    2803        .(      CMP      r0,#3
        0x00003602:    d122        ".      BNE      0x364a ; main + 998
        0x00003604:    9803        ..      LDR      r0,[sp,#0xc]
        0x00003606:    28c0        .(      CMP      r0,#0xc0
        0x00003608:    d107        ..      BNE      0x361a ; main + 950
        0x0000360a:    f7fffc07    ....    BL       drv_FM_on_NCU031_reset ; 0x2e1c
        0x0000360e:    a065        e.      ADR      r0,{pc}+0x196 ; 0x37a4
        0x00003610:    f7fcfdf8    ....    BL       __2printf ; 0x204
        0x00003614:    9802        ..      LDR      r0,[sp,#8]
        0x00003616:    2803        .(      CMP      r0,#3
        0x00003618:    d117        ..      BNE      0x364a ; main + 998
        0x0000361a:    9803        ..      LDR      r0,[sp,#0xc]
        0x0000361c:    28c1        .(      CMP      r0,#0xc1
        0x0000361e:    d105        ..      BNE      0x362c ; main + 968
        0x00003620:    a063        c.      ADR      r0,{pc}+0x190 ; 0x37b0
        0x00003622:    f7fcfdef    ....    BL       __2printf ; 0x204
        0x00003626:    9802        ..      LDR      r0,[sp,#8]
        0x00003628:    2803        .(      CMP      r0,#3
        0x0000362a:    d10e        ..      BNE      0x364a ; main + 998
        0x0000362c:    9803        ..      LDR      r0,[sp,#0xc]
        0x0000362e:    28c2        .(      CMP      r0,#0xc2
        0x00003630:    d105        ..      BNE      0x363e ; main + 986
        0x00003632:    a061        a.      ADR      r0,{pc}+0x186 ; 0x37b8
        0x00003634:    f7fcfde6    ....    BL       __2printf ; 0x204
        0x00003638:    9802        ..      LDR      r0,[sp,#8]
        0x0000363a:    2803        .(      CMP      r0,#3
        0x0000363c:    d105        ..      BNE      0x364a ; main + 998
        0x0000363e:    9803        ..      LDR      r0,[sp,#0xc]
        0x00003640:    28c3        .(      CMP      r0,#0xc3
        0x00003642:    d102        ..      BNE      0x364a ; main + 998
        0x00003644:    a05f        _.      ADR      r0,{pc}+0x180 ; 0x37c4
        0x00003646:    f7fcfddd    ....    BL       __2printf ; 0x204
        0x0000364a:    f000f96f    ..o.    BL       srv_key_handler ; 0x392c
        0x0000364e:    f7fdfcc5    ....    BL       GetKeyEvent ; 0xfdc
        0x00003652:    f7fef86f    ..o.    BL       IoKeyProcess ; 0x1734
        0x00003656:    9805        ..      LDR      r0,[sp,#0x14]
        0x00003658:    0300        ..      LSLS     r0,r0,#12
        0x0000365a:    0f00        ..      LSRS     r0,r0,#28
        0x0000365c:    42b8        .B      CMP      r0,r7
        0x0000365e:    d103        ..      BNE      0x3668 ; main + 1028
        0x00003660:    2f0f        ./      CMP      r7,#0xf
        0x00003662:    d202        ..      BCS      0x366a ; main + 1030
        0x00003664:    1c7f        ..      ADDS     r7,r7,#1
        0x00003666:    e0b3        ..      B        0x37d0 ; main + 1388
        0x00003668:    e0b7        ..      B        0x37da ; main + 1398
        0x0000366a:    e0b3        ..      B        0x37d4 ; main + 1392
    $d
        0x0000366c:    69616d0a    .mai    DCD    1767992586
        0x00003670:    00000a6e    n...    DCD    2670
        0x00003674:    20000a14    ...     DCD    536873492
        0x00003678:    20000020     ..     DCD    536870944
        0x0000367c:    20000028    (..     DCD    536870952
        0x00003680:    20000030    0..     DCD    536870960
        0x00003684:    5f47534d    MSG_    DCD    1598509901
        0x00003688:    535f4734    4G_S    DCD    1398753076
        0x0000368c:    535f5359    YS_S    DCD    1398756185
        0x00003690:    45544154    TATE    DCD    1163149652
        0x00003694:    444e495f    _IND    DCD    1145981279
        0x00003698:    67736d3a    :msg    DCD    1735617850
        0x0000369c:    7261702e    .par    DCD    1918988334
        0x000036a0:    20306d61    am0     DCD    540044641
        0x000036a4:    7825203d    = %x    DCD    2015699005
        0x000036a8:    736d202c    , ms    DCD    1936531500
        0x000036ac:    61702e67    g.pa    DCD    1634741863
        0x000036b0:    316d6172    ram1    DCD    829251954
        0x000036b4:    25203d20     = %    DCD    622869792
        0x000036b8:    000a2078    x ..    DCD    663672
        0x000036bc:    38307830    0x08    DCD    942700592
        0x000036c0:    736d202c    , ms    DCD    1936531500
        0x000036c4:    61702e67    g.pa    DCD    1634741863
        0x000036c8:    316d6172    ram1    DCD    829251954
        0x000036cc:    25203d20     = %    DCD    622869792
        0x000036d0:    000a2078    x ..    DCD    663672
        0x000036d4:    37307830    0x07    DCD    925923376
        0x000036d8:    736d202c    , ms    DCD    1936531500
        0x000036dc:    61702e67    g.pa    DCD    1634741863
        0x000036e0:    316d6172    ram1    DCD    829251954
        0x000036e4:    25203d20     = %    DCD    622869792
        0x000036e8:    000a2078    x ..    DCD    663672
        0x000036ec:    34307830    0x04    DCD    875591728
        0x000036f0:    736d202c    , ms    DCD    1936531500
        0x000036f4:    61702e67    g.pa    DCD    1634741863
        0x000036f8:    316d6172    ram1    DCD    829251954
        0x000036fc:    25203d20     = %    DCD    622869792
        0x00003700:    000a2078    x ..    DCD    663672
        0x00003704:    46307830    0x0F    DCD    1177581616
        0x00003708:    736d202c    , ms    DCD    1936531500
        0x0000370c:    61702e67    g.pa    DCD    1634741863
        0x00003710:    316d6172    ram1    DCD    829251954
        0x00003714:    25203d20     = %    DCD    622869792
        0x00003718:    000a2078    x ..    DCD    663672
        0x0000371c:    36307830    0x06    DCD    909146160
        0x00003720:    736d202c    , ms    DCD    1936531500
        0x00003724:    61702e67    g.pa    DCD    1634741863
        0x00003728:    316d6172    ram1    DCD    829251954
        0x0000372c:    25203d20     = %    DCD    622869792
        0x00003730:    000a2078    x ..    DCD    663672
        0x00003734:    20000039    9..     DCD    536870969
        0x00003738:    5f6c6148    Hal_    DCD    1600938312
        0x0000373c:    5f706144    Dap_    DCD    1601200452
        0x00003740:    64616f4c    Load    DCD    1684107084
        0x00003744:    6c6f765f    _vol    DCD    1819244127
        0x00003748:    6464615f    _add    DCD    1684300127
        0x0000374c:    0000000a    ....    DCD    10
        0x00003750:    5f6c6148    Hal_    DCD    1600938312
        0x00003754:    5f706144    Dap_    DCD    1601200452
        0x00003758:    64616f4c    Load    DCD    1684107084
        0x0000375c:    6c6f765f    _vol    DCD    1819244127
        0x00003760:    6465725f    _red    DCD    1684370015
        0x00003764:    0a656375    uce.    DCD    174416757
        0x00003768:    00000000    ....    DCD    0
        0x0000376c:    72756f46    Four    DCD    1920298822
        0x00003770:    49575f47    G_WI    DCD    1230462791
        0x00003774:    435f4946    FI_C    DCD    1130318150
        0x00003778:    4e4e4148    HANN    DCD    1313751368
        0x0000377c:    000a4c45    EL..    DCD    674885
        0x00003780:    72756f46    Four    DCD    1920298822
        0x00003784:    54425f47    G_BT    DCD    1413635911
        0x00003788:    4148435f    _CHA    DCD    1095254879
        0x0000378c:    4c454e4e    NNEL    DCD    1279610446
        0x00003790:    0000000a    ....    DCD    10
        0x00003794:    49585541    AUXI    DCD    1230525761
        0x00003798:    48435f4e    N_CH    DCD    1212374862
        0x0000379c:    454e4e41    ANNE    DCD    1162759745
        0x000037a0:    00000a4c    L...    DCD    2636
        0x000037a4:    72206d66    fm r    DCD    1914727782
        0x000037a8:    74657365    eset    DCD    1952805733
        0x000037ac:    0000000a    ....    DCD    10
        0x000037b0:    69736e69    insi    DCD    1769172585
        0x000037b4:    000a6564    de..    DCD    681316
        0x000037b8:    7374756f    outs    DCD    1937012079
        0x000037bc:    0a656469    ide.    DCD    174417001
        0x000037c0:    00000000    ....    DCD    0
        0x000037c4:    6f747561    auto    DCD    1869903201
        0x000037c8:    65646973    side    DCD    1701079411
        0x000037cc:    0000000a    ....    DCD    10
    $t
        0x000037d0:    b2ff        ..      UXTB     r7,r7
        0x000037d2:    e000        ..      B        0x37d6 ; main + 1394
        0x000037d4:    2700        .'      MOVS     r7,#0
        0x000037d6:    f000f85b    ..[.    BL       srv_bat_charge_handler ; 0x3890
        0x000037da:    9805        ..      LDR      r0,[sp,#0x14]
        0x000037dc:    0340        @.      LSLS     r0,r0,#13
        0x000037de:    0f00        ..      LSRS     r0,r0,#28
        0x000037e0:    42b0        .B      CMP      r0,r6
        0x000037e2:    d10b        ..      BNE      0x37fc ; main + 1432
        0x000037e4:    2e0f        ..      CMP      r6,#0xf
        0x000037e6:    d202        ..      BCS      0x37ee ; main + 1418
        0x000037e8:    1c76        v.      ADDS     r6,r6,#1
        0x000037ea:    b2f6        ..      UXTB     r6,r6
        0x000037ec:    e000        ..      B        0x37f0 ; main + 1420
        0x000037ee:    2600        .&      MOVS     r6,#0
        0x000037f0:    f7fffd06    ....    BL       drv_power_status_updata ; 0x3200
        0x000037f4:    f000f95c    ..\.    BL       srv_led_change_handler ; 0x3ab0
        0x000037f8:    f000f846    ..F.    BL       srv_audio_handler ; 0x3888
        0x000037fc:    9805        ..      LDR      r0,[sp,#0x14]
        0x000037fe:    0200        ..      LSLS     r0,r0,#8
        0x00003800:    0f00        ..      LSRS     r0,r0,#28
        0x00003802:    42a8        .B      CMP      r0,r5
        0x00003804:    d105        ..      BNE      0x3812 ; main + 1454
        0x00003806:    2d0f        .-      CMP      r5,#0xf
        0x00003808:    d202        ..      BCS      0x3810 ; main + 1452
        0x0000380a:    1c6d        m.      ADDS     r5,r5,#1
        0x0000380c:    b2ed        ..      UXTB     r5,r5
        0x0000380e:    e000        ..      B        0x3812 ; main + 1454
        0x00003810:    2500        .%      MOVS     r5,#0
        0x00003812:    9805        ..      LDR      r0,[sp,#0x14]
        0x00003814:    1c40        @.      ADDS     r0,r0,#1
        0x00003816:    9005        ..      STR      r0,[sp,#0x14]
        0x00003818:    e530        0.      B        0x327c ; main + 24
        0x0000381a:    0000        ..      MOVS     r0,r0
    i.srv_audio_channel_check
    srv_audio_channel_check
        0x0000381c:    b500        ..      PUSH     {lr}
        0x0000381e:    480a        .H      LDR      r0,[pc,#40] ; [0x3848] = 0x20000a14
        0x00003820:    7941        Ay      LDRB     r1,[r0,#5]
        0x00003822:    480a        .H      LDR      r0,[pc,#40] ; [0x384c] = 0x20000240
        0x00003824:    000b        ..      MOVS     r3,r1
        0x00003826:    f7fff92f    ../.    BL       __ARM_common_switch8 ; 0x2a88
    $d
        0x0000382a:    0d0b        ..      DCW    3339
        0x0000382c:    09090909    ....    DCD    151587081
        0x00003830:    07090909    ....    DCD    118032649
        0x00003834:    000d0b07    ....    DCD    854791
    $t
        0x00003838:    2101        .!      MOVS     r1,#1
        0x0000383a:    e002        ..      B        0x3842 ; srv_audio_channel_check + 38
        0x0000383c:    2104        .!      MOVS     r1,#4
        0x0000383e:    e000        ..      B        0x3842 ; srv_audio_channel_check + 38
        0x00003840:    2105        .!      MOVS     r1,#5
        0x00003842:    6001        .`      STR      r1,[r0,#0]
        0x00003844:    bd00        ..      POP      {pc}
    $d
        0x00003846:    0000        ..      DCW    0
        0x00003848:    20000a14    ...     DCD    536873492
        0x0000384c:    20000240    @..     DCD    536871488
    $t
    i.srv_audio_channel_switch
    srv_audio_channel_switch
        0x00003850:    b510        ..      PUSH     {r4,lr}
        0x00003852:    f7ffffe3    ....    BL       srv_audio_channel_check ; 0x381c
        0x00003856:    4c0b        .L      LDR      r4,[pc,#44] ; [0x3884] = 0x20000240
        0x00003858:    cc03        ..      LDM      r4!,{r0,r1}
        0x0000385a:    3c08        .<      SUBS     r4,r4,#8
        0x0000385c:    4281        .B      CMP      r1,r0
        0x0000385e:    d010        ..      BEQ      0x3882 ; srv_audio_channel_switch + 50
        0x00003860:    0003        ..      MOVS     r3,r0
        0x00003862:    f7fff911    ....    BL       __ARM_common_switch8 ; 0x2a88
    $d
        0x00003866:    0c06        ..      DCW    3078
        0x00003868:    07070704    ....    DCD    117901060
        0x0000386c:    0c0a        ..      DCW    3082
    $t
        0x0000386e:    f7fffb1a    ....    BL       drv_audio_AuxIn_Channel ; 0x2ea6
        0x00003872:    e004        ..      B        0x387e ; srv_audio_channel_switch + 46
        0x00003874:    f7fffb12    ....    BL       drv_audio_4G_Channel ; 0x2e9c
        0x00003878:    e001        ..      B        0x387e ; srv_audio_channel_switch + 46
        0x0000387a:    f7fffb19    ....    BL       drv_audio_FM_Channel ; 0x2eb0
        0x0000387e:    6820         h      LDR      r0,[r4,#0]
        0x00003880:    6060        ``      STR      r0,[r4,#4]
        0x00003882:    bd10        ..      POP      {r4,pc}
    $d
        0x00003884:    20000240    @..     DCD    536871488
    $t
    i.srv_audio_handler
    srv_audio_handler
        0x00003888:    b510        ..      PUSH     {r4,lr}
        0x0000388a:    f7ffffe1    ....    BL       srv_audio_channel_switch ; 0x3850
        0x0000388e:    bd10        ..      POP      {r4,pc}
    i.srv_bat_charge_handler
    srv_bat_charge_handler
        0x00003890:    b5f8        ..      PUSH     {r3-r7,lr}
        0x00003892:    481f        .H      LDR      r0,[pc,#124] ; [0x3910] = 0x20000a14
        0x00003894:    22e7        ."      MOVS     r2,#0xe7
        0x00003896:    78c1        .x      LDRB     r1,[r0,#3]
        0x00003898:    7883        .x      LDRB     r3,[r0,#2]
        0x0000389a:    2500        .%      MOVS     r5,#0
        0x0000389c:    4c1d        .L      LDR      r4,[pc,#116] ; [0x3914] = 0x500042c0
        0x0000389e:    400a        .@      ANDS     r2,r2,r1
        0x000038a0:    2b04        .+      CMP      r3,#4
        0x000038a2:    d001        ..      BEQ      0x38a8 ; srv_bat_charge_handler + 24
        0x000038a4:    63a5        .c      STR      r5,[r4,#0x38]
        0x000038a6:    e021        !.      B        0x38ec ; srv_bat_charge_handler + 92
        0x000038a8:    4e1a        .N      LDR      r6,[pc,#104] ; [0x3914] = 0x500042c0
        0x000038aa:    7803        .x      LDRB     r3,[r0,#0]
        0x000038ac:    2701        .'      MOVS     r7,#1
        0x000038ae:    3ec0        .>      SUBS     r6,r6,#0xc0
        0x000038b0:    2b07        .+      CMP      r3,#7
        0x000038b2:    d002        ..      BEQ      0x38ba ; srv_bat_charge_handler + 42
        0x000038b4:    2b06        .+      CMP      r3,#6
        0x000038b6:    d007        ..      BEQ      0x38c8 ; srv_bat_charge_handler + 56
        0x000038b8:    e019        ..      B        0x38ee ; srv_bat_charge_handler + 94
        0x000038ba:    63a7        .c      STR      r7,[r4,#0x38]
        0x000038bc:    6237        7b      STR      r7,[r6,#0x20]
        0x000038be:    62f7        .b      STR      r7,[r6,#0x2c]
        0x000038c0:    22ef        ."      MOVS     r2,#0xef
        0x000038c2:    4011        .@      ANDS     r1,r1,r2
        0x000038c4:    2208        ."      MOVS     r2,#8
        0x000038c6:    e00b        ..      B        0x38e0 ; srv_bat_charge_handler + 80
        0x000038c8:    7843        Cx      LDRB     r3,[r0,#1]
        0x000038ca:    2b0a        .+      CMP      r3,#0xa
        0x000038cc:    d002        ..      BEQ      0x38d4 ; srv_bat_charge_handler + 68
        0x000038ce:    2b09        .+      CMP      r3,#9
        0x000038d0:    d009        ..      BEQ      0x38e6 ; srv_bat_charge_handler + 86
        0x000038d2:    e00c        ..      B        0x38ee ; srv_bat_charge_handler + 94
        0x000038d4:    63a7        .c      STR      r7,[r4,#0x38]
        0x000038d6:    6235        5b      STR      r5,[r6,#0x20]
        0x000038d8:    62f5        .b      STR      r5,[r6,#0x2c]
        0x000038da:    22f7        ."      MOVS     r2,#0xf7
        0x000038dc:    4011        .@      ANDS     r1,r1,r2
        0x000038de:    2210        ."      MOVS     r2,#0x10
        0x000038e0:    4311        .C      ORRS     r1,r1,r2
        0x000038e2:    70c1        .p      STRB     r1,[r0,#3]
        0x000038e4:    e003        ..      B        0x38ee ; srv_bat_charge_handler + 94
        0x000038e6:    63a5        .c      STR      r5,[r4,#0x38]
        0x000038e8:    6235        5b      STR      r5,[r6,#0x20]
        0x000038ea:    62f7        .b      STR      r7,[r6,#0x2c]
        0x000038ec:    70c2        .p      STRB     r2,[r0,#3]
        0x000038ee:    78c1        .x      LDRB     r1,[r0,#3]
        0x000038f0:    4809        .H      LDR      r0,[pc,#36] ; [0x3918] = 0x20000238
        0x000038f2:    4a07        .J      LDR      r2,[pc,#28] ; [0x3910] = 0x20000a14
        0x000038f4:    7803        .x      LDRB     r3,[r0,#0]
        0x000038f6:    7912        .y      LDRB     r2,[r2,#4]
        0x000038f8:    4299        .B      CMP      r1,r3
        0x000038fa:    d102        ..      BNE      0x3902 ; srv_bat_charge_handler + 114
        0x000038fc:    7843        Cx      LDRB     r3,[r0,#1]
        0x000038fe:    429a        .B      CMP      r2,r3
        0x00003900:    d004        ..      BEQ      0x390c ; srv_bat_charge_handler + 124
        0x00003902:    7001        .p      STRB     r1,[r0,#0]
        0x00003904:    7042        Bp      STRB     r2,[r0,#1]
        0x00003906:    2001        .       MOVS     r0,#1
        0x00003908:    f7fffa4a    ..J.    BL       drv_Cmd_Send2NCU031 ; 0x2da0
        0x0000390c:    bdf8        ..      POP      {r3-r7,pc}
    $d
        0x0000390e:    0000        ..      DCW    0
        0x00003910:    20000a14    ...     DCD    536873492
        0x00003914:    500042c0    .B.P    DCD    1342194368
        0x00003918:    20000238    8..     DCD    536871480
    $t
    i.srv_key_eq_switch_handler
    srv_key_eq_switch_handler
        0x0000391c:    b510        ..      PUSH     {r4,lr}
        0x0000391e:    2300        .#      MOVS     r3,#0
        0x00003920:    461a        .F      MOV      r2,r3
        0x00003922:    21c1        .!      MOVS     r1,#0xc1
        0x00003924:    2002        .       MOVS     r0,#2
        0x00003926:    f7fdfa19    ....    BL       Core_Msg_Send ; 0xd5c
        0x0000392a:    bd10        ..      POP      {r4,pc}
    i.srv_key_handler
    srv_key_handler
        0x0000392c:    b510        ..      PUSH     {r4,lr}
        0x0000392e:    f7fdfb2d    ..-.    BL       GetIrKey ; 0xf8c
        0x00003932:    2201        ."      MOVS     r2,#1
        0x00003934:    491f        .I      LDR      r1,[pc,#124] ; [0x39b4] = 0x20000a14
        0x00003936:    0003        ..      MOVS     r3,r0
        0x00003938:    f7fff8a6    ....    BL       __ARM_common_switch8 ; 0x2a88
    $d
        0x0000393c:    1408100e    ....    DCD    336072718
        0x00003940:    20241c18    ..$     DCD    539237400
        0x00003944:    34302c28    (,04    DCD    875572264
        0x00003948:    10381010    ..8.    DCD    272109584
    $t
        0x0000394c:    730a        .s      STRB     r2,[r1,#0xc]
        0x0000394e:    7948        Hy      LDRB     r0,[r1,#5]
        0x00003950:    280e        .(      CMP      r0,#0xe
        0x00003952:    d004        ..      BEQ      0x395e ; srv_key_handler + 50
        0x00003954:    f7fdfff0    ....    BL       PowerOff ; 0x1938
        0x00003958:    f7fefa8c    ....    BL       SysIdle ; 0x1e74
        0x0000395c:    bd10        ..      POP      {r4,pc}
        0x0000395e:    f7fefa59    ..Y.    BL       SYS_Status ; 0x1e14
        0x00003962:    bd10        ..      POP      {r4,pc}
        0x00003964:    730a        .s      STRB     r2,[r1,#0xc]
        0x00003966:    f000f827    ..'.    BL       srv_key_mode_handler ; 0x39b8
        0x0000396a:    bd10        ..      POP      {r4,pc}
        0x0000396c:    730a        .s      STRB     r2,[r1,#0xc]
        0x0000396e:    f000f897    ....    BL       srv_key_volume_up_handler ; 0x3aa0
        0x00003972:    bd10        ..      POP      {r4,pc}
        0x00003974:    730a        .s      STRB     r2,[r1,#0xc]
        0x00003976:    f000f88b    ....    BL       srv_key_volume_down_handler ; 0x3a90
        0x0000397a:    bd10        ..      POP      {r4,pc}
        0x0000397c:    730a        .s      STRB     r2,[r1,#0xc]
        0x0000397e:    f000f85f    .._.    BL       srv_key_next_song_handler ; 0x3a40
        0x00003982:    bd10        ..      POP      {r4,pc}
        0x00003984:    730a        .s      STRB     r2,[r1,#0xc]
        0x00003986:    f000f873    ..s.    BL       srv_key_prev_song_handler ; 0x3a70
        0x0000398a:    bd10        ..      POP      {r4,pc}
        0x0000398c:    730a        .s      STRB     r2,[r1,#0xc]
        0x0000398e:    f000f867    ..g.    BL       srv_key_play_pause_handler ; 0x3a60
        0x00003992:    bd10        ..      POP      {r4,pc}
        0x00003994:    730a        .s      STRB     r2,[r1,#0xc]
        0x00003996:    f000f873    ..s.    BL       srv_key_prev_station_handler ; 0x3a80
        0x0000399a:    bd10        ..      POP      {r4,pc}
        0x0000399c:    730a        .s      STRB     r2,[r1,#0xc]
        0x0000399e:    f000f857    ..W.    BL       srv_key_next_station_handler ; 0x3a50
        0x000039a2:    bd10        ..      POP      {r4,pc}
        0x000039a4:    730a        .s      STRB     r2,[r1,#0xc]
        0x000039a6:    f7ffffb9    ....    BL       srv_key_eq_switch_handler ; 0x391c
        0x000039aa:    bd10        ..      POP      {r4,pc}
        0x000039ac:    730a        .s      STRB     r2,[r1,#0xc]
        0x000039ae:    f000f83f    ..?.    BL       srv_key_net_config_handler ; 0x3a30
        0x000039b2:    bd10        ..      POP      {r4,pc}
    $d
        0x000039b4:    20000a14    ...     DCD    536873492
    $t
    i.srv_key_mode_handler
    srv_key_mode_handler
        0x000039b8:    b510        ..      PUSH     {r4,lr}
        0x000039ba:    4c1c        .L      LDR      r4,[pc,#112] ; [0x3a2c] = 0x20000a14
        0x000039bc:    7960        `y      LDRB     r0,[r4,#5]
        0x000039be:    0003        ..      MOVS     r3,r0
        0x000039c0:    f7fff862    ..b.    BL       __ARM_common_switch8 ; 0x2a88
    $d
        0x000039c4:    1010250b    .%..    DCD    269493515
        0x000039c8:    19101010    ....    DCD    420483088
        0x000039cc:    19070719    ....    DCD    419890969
        0x000039d0:    0025        %.      DCW    37
    $t
        0x000039d2:    2300        .#      MOVS     r3,#0
        0x000039d4:    2216        ."      MOVS     r2,#0x16
        0x000039d6:    2103        .!      MOVS     r1,#3
        0x000039d8:    2002        .       MOVS     r0,#2
        0x000039da:    f7fdf9bf    ....    BL       Core_Msg_Send ; 0xd5c
        0x000039de:    2200        ."      MOVS     r2,#0
        0x000039e0:    2110        .!      MOVS     r1,#0x10
        0x000039e2:    e010        ..      B        0x3a06 ; srv_key_mode_handler + 78
        0x000039e4:    2300        .#      MOVS     r3,#0
        0x000039e6:    2217        ."      MOVS     r2,#0x17
        0x000039e8:    2103        .!      MOVS     r1,#3
        0x000039ea:    2002        .       MOVS     r0,#2
        0x000039ec:    f7fdf9b6    ....    BL       Core_Msg_Send ; 0xd5c
        0x000039f0:    2200        ."      MOVS     r2,#0
        0x000039f2:    2112        .!      MOVS     r1,#0x12
        0x000039f4:    e007        ..      B        0x3a06 ; srv_key_mode_handler + 78
        0x000039f6:    2300        .#      MOVS     r3,#0
        0x000039f8:    2215        ."      MOVS     r2,#0x15
        0x000039fa:    2103        .!      MOVS     r1,#3
        0x000039fc:    2002        .       MOVS     r0,#2
        0x000039fe:    f7fdf9ad    ....    BL       Core_Msg_Send ; 0xd5c
        0x00003a02:    2200        ."      MOVS     r2,#0
        0x00003a04:    2111        .!      MOVS     r1,#0x11
        0x00003a06:    2007        .       MOVS     r0,#7
        0x00003a08:    f7fff9ca    ....    BL       drv_Cmd_Send2NCU031 ; 0x2da0
        0x00003a0c:    bd10        ..      POP      {r4,pc}
        0x00003a0e:    2300        .#      MOVS     r3,#0
        0x00003a10:    2217        ."      MOVS     r2,#0x17
        0x00003a12:    2103        .!      MOVS     r1,#3
        0x00003a14:    2002        .       MOVS     r0,#2
        0x00003a16:    f7fdf9a1    ....    BL       Core_Msg_Send ; 0xd5c
        0x00003a1a:    2200        ."      MOVS     r2,#0
        0x00003a1c:    2112        .!      MOVS     r1,#0x12
        0x00003a1e:    2007        .       MOVS     r0,#7
        0x00003a20:    f7fff9be    ....    BL       drv_Cmd_Send2NCU031 ; 0x2da0
        0x00003a24:    2008        .       MOVS     r0,#8
        0x00003a26:    7160        `q      STRB     r0,[r4,#5]
        0x00003a28:    bd10        ..      POP      {r4,pc}
    $d
        0x00003a2a:    0000        ..      DCW    0
        0x00003a2c:    20000a14    ...     DCD    536873492
    $t
    i.srv_key_net_config_handler
    srv_key_net_config_handler
        0x00003a30:    b510        ..      PUSH     {r4,lr}
        0x00003a32:    2300        .#      MOVS     r3,#0
        0x00003a34:    2221        !"      MOVS     r2,#0x21
        0x00003a36:    2103        .!      MOVS     r1,#3
        0x00003a38:    2002        .       MOVS     r0,#2
        0x00003a3a:    f7fdf98f    ....    BL       Core_Msg_Send ; 0xd5c
        0x00003a3e:    bd10        ..      POP      {r4,pc}
    i.srv_key_next_song_handler
    srv_key_next_song_handler
        0x00003a40:    b510        ..      PUSH     {r4,lr}
        0x00003a42:    2300        .#      MOVS     r3,#0
        0x00003a44:    220d        ."      MOVS     r2,#0xd
        0x00003a46:    2103        .!      MOVS     r1,#3
        0x00003a48:    2002        .       MOVS     r0,#2
        0x00003a4a:    f7fdf987    ....    BL       Core_Msg_Send ; 0xd5c
        0x00003a4e:    bd10        ..      POP      {r4,pc}
    i.srv_key_next_station_handler
    srv_key_next_station_handler
        0x00003a50:    b510        ..      PUSH     {r4,lr}
        0x00003a52:    2300        .#      MOVS     r3,#0
        0x00003a54:    2231        1"      MOVS     r2,#0x31
        0x00003a56:    2103        .!      MOVS     r1,#3
        0x00003a58:    2002        .       MOVS     r0,#2
        0x00003a5a:    f7fdf97f    ....    BL       Core_Msg_Send ; 0xd5c
        0x00003a5e:    bd10        ..      POP      {r4,pc}
    i.srv_key_play_pause_handler
    srv_key_play_pause_handler
        0x00003a60:    b510        ..      PUSH     {r4,lr}
        0x00003a62:    2300        .#      MOVS     r3,#0
        0x00003a64:    2256        V"      MOVS     r2,#0x56
        0x00003a66:    2103        .!      MOVS     r1,#3
        0x00003a68:    2002        .       MOVS     r0,#2
        0x00003a6a:    f7fdf977    ..w.    BL       Core_Msg_Send ; 0xd5c
        0x00003a6e:    bd10        ..      POP      {r4,pc}
    i.srv_key_prev_song_handler
    srv_key_prev_song_handler
        0x00003a70:    b510        ..      PUSH     {r4,lr}
        0x00003a72:    2300        .#      MOVS     r3,#0
        0x00003a74:    220e        ."      MOVS     r2,#0xe
        0x00003a76:    2103        .!      MOVS     r1,#3
        0x00003a78:    2002        .       MOVS     r0,#2
        0x00003a7a:    f7fdf96f    ..o.    BL       Core_Msg_Send ; 0xd5c
        0x00003a7e:    bd10        ..      POP      {r4,pc}
    i.srv_key_prev_station_handler
    srv_key_prev_station_handler
        0x00003a80:    b510        ..      PUSH     {r4,lr}
        0x00003a82:    2300        .#      MOVS     r3,#0
        0x00003a84:    2232        2"      MOVS     r2,#0x32
        0x00003a86:    2103        .!      MOVS     r1,#3
        0x00003a88:    2002        .       MOVS     r0,#2
        0x00003a8a:    f7fdf967    ..g.    BL       Core_Msg_Send ; 0xd5c
        0x00003a8e:    bd10        ..      POP      {r4,pc}
    i.srv_key_volume_down_handler
    srv_key_volume_down_handler
        0x00003a90:    b510        ..      PUSH     {r4,lr}
        0x00003a92:    2203        ."      MOVS     r2,#3
        0x00003a94:    2300        .#      MOVS     r3,#0
        0x00003a96:    4611        .F      MOV      r1,r2
        0x00003a98:    2002        .       MOVS     r0,#2
        0x00003a9a:    f7fdf95f    .._.    BL       Core_Msg_Send ; 0xd5c
        0x00003a9e:    bd10        ..      POP      {r4,pc}
    i.srv_key_volume_up_handler
    srv_key_volume_up_handler
        0x00003aa0:    b510        ..      PUSH     {r4,lr}
        0x00003aa2:    2202        ."      MOVS     r2,#2
        0x00003aa4:    2300        .#      MOVS     r3,#0
        0x00003aa6:    2103        .!      MOVS     r1,#3
        0x00003aa8:    4610        .F      MOV      r0,r2
        0x00003aaa:    f7fdf957    ..W.    BL       Core_Msg_Send ; 0xd5c
        0x00003aae:    bd10        ..      POP      {r4,pc}
    i.srv_led_change_handler
    srv_led_change_handler
        0x00003ab0:    b510        ..      PUSH     {r4,lr}
        0x00003ab2:    4803        .H      LDR      r0,[pc,#12] ; [0x3ac0] = 0x20000a14
        0x00003ab4:    7980        .y      LDRB     r0,[r0,#6]
        0x00003ab6:    2800        .(      CMP      r0,#0
        0x00003ab8:    d101        ..      BNE      0x3abe ; srv_led_change_handler + 14
        0x00003aba:    f000f803    ....    BL       srv_led_status_show ; 0x3ac4
        0x00003abe:    bd10        ..      POP      {r4,pc}
    $d
        0x00003ac0:    20000a14    ...     DCD    536873492
    $t
    i.srv_led_status_show
    srv_led_status_show
        0x00003ac4:    b510        ..      PUSH     {r4,lr}
        0x00003ac6:    4823        #H      LDR      r0,[pc,#140] ; [0x3b54] = 0x20000a14
        0x00003ac8:    2300        .#      MOVS     r3,#0
        0x00003aca:    7940        @y      LDRB     r0,[r0,#5]
        0x00003acc:    2201        ."      MOVS     r2,#1
        0x00003ace:    4922        "I      LDR      r1,[pc,#136] ; [0x3b58] = 0x2000023a
        0x00003ad0:    2802        .(      CMP      r0,#2
        0x00003ad2:    d00d        ..      BEQ      0x3af0 ; srv_led_status_show + 44
        0x00003ad4:    2805        .(      CMP      r0,#5
        0x00003ad6:    d00b        ..      BEQ      0x3af0 ; srv_led_status_show + 44
        0x00003ad8:    2807        .(      CMP      r0,#7
        0x00003ada:    d009        ..      BEQ      0x3af0 ; srv_led_status_show + 44
        0x00003adc:    2808        .(      CMP      r0,#8
        0x00003ade:    d007        ..      BEQ      0x3af0 ; srv_led_status_show + 44
        0x00003ae0:    280a        .(      CMP      r0,#0xa
        0x00003ae2:    d005        ..      BEQ      0x3af0 ; srv_led_status_show + 44
        0x00003ae4:    700a        .p      STRB     r2,[r1,#0]
        0x00003ae6:    784c        Lx      LDRB     r4,[r1,#1]
        0x00003ae8:    2c00        .,      CMP      r4,#0
        0x00003aea:    d006        ..      BEQ      0x3afa ; srv_led_status_show + 54
        0x00003aec:    704b        Kp      STRB     r3,[r1,#1]
        0x00003aee:    e005        ..      B        0x3afc ; srv_led_status_show + 56
        0x00003af0:    700b        .p      STRB     r3,[r1,#0]
        0x00003af2:    704a        Jp      STRB     r2,[r1,#1]
        0x00003af4:    2802        .(      CMP      r0,#2
        0x00003af6:    d019        ..      BEQ      0x3b2c ; srv_led_status_show + 104
        0x00003af8:    e000        ..      B        0x3afc ; srv_led_status_show + 56
        0x00003afa:    704a        Jp      STRB     r2,[r1,#1]
        0x00003afc:    2801        .(      CMP      r0,#1
        0x00003afe:    d015        ..      BEQ      0x3b2c ; srv_led_status_show + 104
        0x00003b00:    2803        .(      CMP      r0,#3
        0x00003b02:    d013        ..      BEQ      0x3b2c ; srv_led_status_show + 104
        0x00003b04:    2804        .(      CMP      r0,#4
        0x00003b06:    d015        ..      BEQ      0x3b34 ; srv_led_status_show + 112
        0x00003b08:    2805        .(      CMP      r0,#5
        0x00003b0a:    d013        ..      BEQ      0x3b34 ; srv_led_status_show + 112
        0x00003b0c:    2806        .(      CMP      r0,#6
        0x00003b0e:    d015        ..      BEQ      0x3b3c ; srv_led_status_show + 120
        0x00003b10:    2807        .(      CMP      r0,#7
        0x00003b12:    d013        ..      BEQ      0x3b3c ; srv_led_status_show + 120
        0x00003b14:    2808        .(      CMP      r0,#8
        0x00003b16:    d015        ..      BEQ      0x3b44 ; srv_led_status_show + 128
        0x00003b18:    2809        .(      CMP      r0,#9
        0x00003b1a:    d013        ..      BEQ      0x3b44 ; srv_led_status_show + 128
        0x00003b1c:    280a        .(      CMP      r0,#0xa
        0x00003b1e:    d015        ..      BEQ      0x3b4c ; srv_led_status_show + 136
        0x00003b20:    280d        .(      CMP      r0,#0xd
        0x00003b22:    d102        ..      BNE      0x3b2a ; srv_led_status_show + 102
        0x00003b24:    2000        .       MOVS     r0,#0
        0x00003b26:    f7fff9a3    ....    BL       drv_all_led_on ; 0x2e70
        0x00003b2a:    bd10        ..      POP      {r4,pc}
        0x00003b2c:    7848        Hx      LDRB     r0,[r1,#1]
        0x00003b2e:    f7fffb7b    ..{.    BL       drv_wifi_led_on ; 0x3228
        0x00003b32:    bd10        ..      POP      {r4,pc}
        0x00003b34:    7848        Hx      LDRB     r0,[r1,#1]
        0x00003b36:    f7feffbb    ....    BL       drv_4G_led_on ; 0x2ab0
        0x00003b3a:    bd10        ..      POP      {r4,pc}
        0x00003b3c:    7848        Hx      LDRB     r0,[r1,#1]
        0x00003b3e:    f7fff9cd    ....    BL       drv_bt_led_on ; 0x2edc
        0x00003b42:    bd10        ..      POP      {r4,pc}
        0x00003b44:    2001        .       MOVS     r0,#1
        0x00003b46:    f7fff9b9    ....    BL       drv_aux_led_on ; 0x2ebc
        0x00003b4a:    bd10        ..      POP      {r4,pc}
        0x00003b4c:    2001        .       MOVS     r0,#1
        0x00003b4e:    f7fffa9d    ....    BL       drv_fm_led_on ; 0x308c
        0x00003b52:    bd10        ..      POP      {r4,pc}
    $d
        0x00003b54:    20000a14    ...     DCD    536873492
        0x00003b58:    2000023a    :..     DCD    536871482
    $t
    i.srv_led_sys_initing
    srv_led_sys_initing
        0x00003b5c:    b510        ..      PUSH     {r4,lr}
        0x00003b5e:    4912        .I      LDR      r1,[pc,#72] ; [0x3ba8] = 0x2000023a
        0x00003b60:    7888        .x      LDRB     r0,[r1,#2]
        0x00003b62:    2805        .(      CMP      r0,#5
        0x00003b64:    d201        ..      BCS      0x3b6a ; srv_led_sys_initing + 14
        0x00003b66:    1c40        @.      ADDS     r0,r0,#1
        0x00003b68:    e000        ..      B        0x3b6c ; srv_led_sys_initing + 16
        0x00003b6a:    2001        .       MOVS     r0,#1
        0x00003b6c:    7088        .p      STRB     r0,[r1,#2]
        0x00003b6e:    b2c0        ..      UXTB     r0,r0
        0x00003b70:    0003        ..      MOVS     r3,r0
        0x00003b72:    f7feff89    ....    BL       __ARM_common_switch8 ; 0x2a88
    $d
        0x00003b76:    0706        ..      DCW    1798
        0x00003b78:    100c0804    ....    DCD    269223940
        0x00003b7c:    0714        ..      DCW    1812
    $t
        0x00003b7e:    2001        .       MOVS     r0,#1
        0x00003b80:    f7fffb52    ..R.    BL       drv_wifi_led_on ; 0x3228
        0x00003b84:    bd10        ..      POP      {r4,pc}
        0x00003b86:    2001        .       MOVS     r0,#1
        0x00003b88:    f7feff92    ....    BL       drv_4G_led_on ; 0x2ab0
        0x00003b8c:    bd10        ..      POP      {r4,pc}
        0x00003b8e:    2001        .       MOVS     r0,#1
        0x00003b90:    f7fff9a4    ....    BL       drv_bt_led_on ; 0x2edc
        0x00003b94:    bd10        ..      POP      {r4,pc}
        0x00003b96:    2001        .       MOVS     r0,#1
        0x00003b98:    f7fff990    ....    BL       drv_aux_led_on ; 0x2ebc
        0x00003b9c:    bd10        ..      POP      {r4,pc}
        0x00003b9e:    2001        .       MOVS     r0,#1
        0x00003ba0:    f7fffa74    ..t.    BL       drv_fm_led_on ; 0x308c
        0x00003ba4:    bd10        ..      POP      {r4,pc}
    $d
        0x00003ba6:    0000        ..      DCW    0
        0x00003ba8:    2000023a    :..     DCD    536871482
    $t
    i.srv_rtc_alarm_get
    srv_rtc_alarm_get
        0x00003bac:    b500        ..      PUSH     {lr}
        0x00003bae:    b089        ..      SUB      sp,sp,#0x24
        0x00003bb0:    4668        hF      MOV      r0,sp
        0x00003bb2:    f7fdfed3    ....    BL       RTC_GetAlarmDateAndTime ; 0x195c
        0x00003bb6:    9801        ..      LDR      r0,[sp,#4]
        0x00003bb8:    217d        }!      MOVS     r1,#0x7d
        0x00003bba:    b2c2        ..      UXTB     r2,r0
        0x00003bbc:    9800        ..      LDR      r0,[sp,#0]
        0x00003bbe:    0109        ..      LSLS     r1,r1,#4
        0x00003bc0:    1a40        @.      SUBS     r0,r0,r1
        0x00003bc2:    b2c1        ..      UXTB     r1,r0
        0x00003bc4:    2015        .       MOVS     r0,#0x15
        0x00003bc6:    f7fdf81f    ....    BL       Cmd_Send2FourG ; 0xc08
        0x00003bca:    9803        ..      LDR      r0,[sp,#0xc]
        0x00003bcc:    b2c2        ..      UXTB     r2,r0
        0x00003bce:    9802        ..      LDR      r0,[sp,#8]
        0x00003bd0:    b2c1        ..      UXTB     r1,r0
        0x00003bd2:    2016        .       MOVS     r0,#0x16
        0x00003bd4:    f7fdf818    ....    BL       Cmd_Send2FourG ; 0xc08
        0x00003bd8:    9805        ..      LDR      r0,[sp,#0x14]
        0x00003bda:    b2c2        ..      UXTB     r2,r0
        0x00003bdc:    9804        ..      LDR      r0,[sp,#0x10]
        0x00003bde:    b2c1        ..      UXTB     r1,r0
        0x00003be0:    2017        .       MOVS     r0,#0x17
        0x00003be2:    f7fdf811    ....    BL       Cmd_Send2FourG ; 0xc08
        0x00003be6:    9807        ..      LDR      r0,[sp,#0x1c]
        0x00003be8:    b2c2        ..      UXTB     r2,r0
        0x00003bea:    9806        ..      LDR      r0,[sp,#0x18]
        0x00003bec:    b2c1        ..      UXTB     r1,r0
        0x00003bee:    2018        .       MOVS     r0,#0x18
        0x00003bf0:    f7fdf80a    ....    BL       Cmd_Send2FourG ; 0xc08
        0x00003bf4:    b009        ..      ADD      sp,sp,#0x24
        0x00003bf6:    bd00        ..      POP      {pc}
    i.srv_rtc_alarm_set_dw
    srv_rtc_alarm_set_dw
        0x00003bf8:    b570        p.      PUSH     {r4-r6,lr}
        0x00003bfa:    b08c        ..      SUB      sp,sp,#0x30
        0x00003bfc:    4604        .F      MOV      r4,r0
        0x00003bfe:    a803        ..      ADD      r0,sp,#0xc
        0x00003c00:    f7fdfeac    ....    BL       RTC_GetAlarmDateAndTime ; 0x195c
        0x00003c04:    9e04        ..      LDR      r6,[sp,#0x10]
        0x00003c06:    9d03        ..      LDR      r5,[sp,#0xc]
        0x00003c08:    9700        ..      STR      r7,[sp,#0]
        0x00003c0a:    9701        ..      STR      r7,[sp,#4]
        0x00003c0c:    4623        #F      MOV      r3,r4
        0x00003c0e:    4632        2F      MOV      r2,r6
        0x00003c10:    4629        )F      MOV      r1,r5
        0x00003c12:    a005        ..      ADR      r0,{pc}+0x16 ; 0x3c28
        0x00003c14:    9702        ..      STR      r7,[sp,#8]
        0x00003c16:    f7fcfaf5    ....    BL       __2printf ; 0x204
        0x00003c1a:    4622        "F      MOV      r2,r4
        0x00003c1c:    4631        1F      MOV      r1,r6
        0x00003c1e:    4628        (F      MOV      r0,r5
        0x00003c20:    f7fdff9c    ....    BL       RTC_SetAlarmDate ; 0x1b5c
        0x00003c24:    b00c        ..      ADD      sp,sp,#0x30
        0x00003c26:    bd70        p.      POP      {r4-r6,pc}
    $d
        0x00003c28:    2f642509    .%d/    DCD    795092233
        0x00003c2c:    64323025    %02d    DCD    1681010725
        0x00003c30:    3230252f    /%02    DCD    842016047
        0x00003c34:    30252064    d %0    DCD    807739492
        0x00003c38:    253a6432    2d:%    DCD    624583730
        0x00003c3c:    3a643230    02d:    DCD    979644976
        0x00003c40:    64323025    %02d    DCD    1681010725
        0x00003c44:    0000000a    ....    DCD    10
    $t
    i.srv_rtc_alarm_set_hm
    srv_rtc_alarm_set_hm
        0x00003c48:    b5f0        ..      PUSH     {r4-r7,lr}
        0x00003c4a:    b091        ..      SUB      sp,sp,#0x44
        0x00003c4c:    4604        .F      MOV      r4,r0
        0x00003c4e:    460d        .F      MOV      r5,r1
        0x00003c50:    a803        ..      ADD      r0,sp,#0xc
        0x00003c52:    f7fdfe83    ....    BL       RTC_GetAlarmDateAndTime ; 0x195c
        0x00003c56:    980b        ..      LDR      r0,[sp,#0x2c]
        0x00003c58:    900c        ..      STR      r0,[sp,#0x30]
        0x00003c5a:    9f0a        ..      LDR      r7,[sp,#0x28]
        0x00003c5c:    9e09        ..      LDR      r6,[sp,#0x24]
        0x00003c5e:    4668        hF      MOV      r0,sp
        0x00003c60:    c070        p.      STM      r0!,{r4-r6}
        0x00003c62:    a90d        ..      ADD      r1,sp,#0x34
        0x00003c64:    c90e        ..      LDM      r1,{r1-r3}
        0x00003c66:    a006        ..      ADR      r0,{pc}+0x1a ; 0x3c80
        0x00003c68:    f7fcfacc    ....    BL       __2printf ; 0x204
        0x00003c6c:    980c        ..      LDR      r0,[sp,#0x30]
        0x00003c6e:    9000        ..      STR      r0,[sp,#0]
        0x00003c70:    463b        ;F      MOV      r3,r7
        0x00003c72:    4632        2F      MOV      r2,r6
        0x00003c74:    4629        )F      MOV      r1,r5
        0x00003c76:    4620         F      MOV      r0,r4
        0x00003c78:    f7fdff94    ....    BL       RTC_SetAlarmTime ; 0x1ba4
        0x00003c7c:    b011        ..      ADD      sp,sp,#0x44
        0x00003c7e:    bdf0        ..      POP      {r4-r7,pc}
    $d
        0x00003c80:    2f642509    .%d/    DCD    795092233
        0x00003c84:    64323025    %02d    DCD    1681010725
        0x00003c88:    3230252f    /%02    DCD    842016047
        0x00003c8c:    30252064    d %0    DCD    807739492
        0x00003c90:    253a6432    2d:%    DCD    624583730
        0x00003c94:    3a643230    02d:    DCD    979644976
        0x00003c98:    64323025    %02d    DCD    1681010725
        0x00003c9c:    0000000a    ....    DCD    10
    $t
    i.srv_rtc_alarm_set_st
    srv_rtc_alarm_set_st
        0x00003ca0:    b5f0        ..      PUSH     {r4-r7,lr}
        0x00003ca2:    b091        ..      SUB      sp,sp,#0x44
        0x00003ca4:    4604        .F      MOV      r4,r0
        0x00003ca6:    460f        .F      MOV      r7,r1
        0x00003ca8:    a803        ..      ADD      r0,sp,#0xc
        0x00003caa:    f7fdfe57    ..W.    BL       RTC_GetAlarmDateAndTime ; 0x195c
        0x00003cae:    07f8        ..      LSLS     r0,r7,#31
        0x00003cb0:    9d07        ..      LDR      r5,[sp,#0x1c]
        0x00003cb2:    0fc0        ..      LSRS     r0,r0,#31
        0x00003cb4:    9402        ..      STR      r4,[sp,#8]
        0x00003cb6:    9e08        ..      LDR      r6,[sp,#0x20]
        0x00003cb8:    900c        ..      STR      r0,[sp,#0x30]
        0x00003cba:    9601        ..      STR      r6,[sp,#4]
        0x00003cbc:    9500        ..      STR      r5,[sp,#0]
        0x00003cbe:    a90d        ..      ADD      r1,sp,#0x34
        0x00003cc0:    c90e        ..      LDM      r1,{r1-r3}
        0x00003cc2:    087f        ..      LSRS     r7,r7,#1
        0x00003cc4:    a005        ..      ADR      r0,{pc}+0x18 ; 0x3cdc
        0x00003cc6:    f7fcfa9d    ....    BL       __2printf ; 0x204
        0x00003cca:    4622        "F      MOV      r2,r4
        0x00003ccc:    4631        1F      MOV      r1,r6
        0x00003cce:    4628        (F      MOV      r0,r5
        0x00003cd0:    9700        ..      STR      r7,[sp,#0]
        0x00003cd2:    9b0c        ..      LDR      r3,[sp,#0x30]
        0x00003cd4:    f7fdff66    ..f.    BL       RTC_SetAlarmTime ; 0x1ba4
        0x00003cd8:    b011        ..      ADD      sp,sp,#0x44
        0x00003cda:    bdf0        ..      POP      {r4-r7,pc}
    $d
        0x00003cdc:    2f642509    .%d/    DCD    795092233
        0x00003ce0:    64323025    %02d    DCD    1681010725
        0x00003ce4:    3230252f    /%02    DCD    842016047
        0x00003ce8:    30252064    d %0    DCD    807739492
        0x00003cec:    253a6432    2d:%    DCD    624583730
        0x00003cf0:    3a643230    02d:    DCD    979644976
        0x00003cf4:    64323025    %02d    DCD    1681010725
        0x00003cf8:    0000000a    ....    DCD    10
    $t
    i.srv_rtc_alarm_set_ym
    srv_rtc_alarm_set_ym
        0x00003cfc:    b570        p.      PUSH     {r4-r6,lr}
        0x00003cfe:    b08c        ..      SUB      sp,sp,#0x30
        0x00003d00:    4605        .F      MOV      r5,r0
        0x00003d02:    460c        .F      MOV      r4,r1
        0x00003d04:    a803        ..      ADD      r0,sp,#0xc
        0x00003d06:    f7fdfe29    ..).    BL       RTC_GetAlarmDateAndTime ; 0x195c
        0x00003d0a:    207d        }       MOVS     r0,#0x7d
        0x00003d0c:    0100        ..      LSLS     r0,r0,#4
        0x00003d0e:    182d        -.      ADDS     r5,r5,r0
        0x00003d10:    9e05        ..      LDR      r6,[sp,#0x14]
        0x00003d12:    9700        ..      STR      r7,[sp,#0]
        0x00003d14:    9701        ..      STR      r7,[sp,#4]
        0x00003d16:    4633        3F      MOV      r3,r6
        0x00003d18:    4629        )F      MOV      r1,r5
        0x00003d1a:    4622        "F      MOV      r2,r4
        0x00003d1c:    a005        ..      ADR      r0,{pc}+0x18 ; 0x3d34
        0x00003d1e:    9702        ..      STR      r7,[sp,#8]
        0x00003d20:    f7fcfa70    ..p.    BL       __2printf ; 0x204
        0x00003d24:    4632        2F      MOV      r2,r6
        0x00003d26:    4628        (F      MOV      r0,r5
        0x00003d28:    4621        !F      MOV      r1,r4
        0x00003d2a:    f7fdff17    ....    BL       RTC_SetAlarmDate ; 0x1b5c
        0x00003d2e:    b00c        ..      ADD      sp,sp,#0x30
        0x00003d30:    bd70        p.      POP      {r4-r6,pc}
    $d
        0x00003d32:    0000        ..      DCW    0
        0x00003d34:    2f642509    .%d/    DCD    795092233
        0x00003d38:    64323025    %02d    DCD    1681010725
        0x00003d3c:    3230252f    /%02    DCD    842016047
        0x00003d40:    30252064    d %0    DCD    807739492
        0x00003d44:    253a6432    2d:%    DCD    624583730
        0x00003d48:    3a643230    02d:    DCD    979644976
        0x00003d4c:    64323025    %02d    DCD    1681010725
        0x00003d50:    0000000a    ....    DCD    10
    $t
    i.srv_rtc_get
    srv_rtc_get
        0x00003d54:    b500        ..      PUSH     {lr}
        0x00003d56:    b089        ..      SUB      sp,sp,#0x24
        0x00003d58:    4668        hF      MOV      r0,sp
        0x00003d5a:    f7fdfe7d    ..}.    BL       RTC_GetDateAndTime ; 0x1a58
        0x00003d5e:    9801        ..      LDR      r0,[sp,#4]
        0x00003d60:    217d        }!      MOVS     r1,#0x7d
        0x00003d62:    b2c2        ..      UXTB     r2,r0
        0x00003d64:    9800        ..      LDR      r0,[sp,#0]
        0x00003d66:    0109        ..      LSLS     r1,r1,#4
        0x00003d68:    1a40        @.      SUBS     r0,r0,r1
        0x00003d6a:    b2c1        ..      UXTB     r1,r0
        0x00003d6c:    2011        .       MOVS     r0,#0x11
        0x00003d6e:    f7fcff4b    ..K.    BL       Cmd_Send2FourG ; 0xc08
        0x00003d72:    9803        ..      LDR      r0,[sp,#0xc]
        0x00003d74:    b2c2        ..      UXTB     r2,r0
        0x00003d76:    9802        ..      LDR      r0,[sp,#8]
        0x00003d78:    b2c1        ..      UXTB     r1,r0
        0x00003d7a:    2012        .       MOVS     r0,#0x12
        0x00003d7c:    f7fcff44    ..D.    BL       Cmd_Send2FourG ; 0xc08
        0x00003d80:    9805        ..      LDR      r0,[sp,#0x14]
        0x00003d82:    b2c2        ..      UXTB     r2,r0
        0x00003d84:    9804        ..      LDR      r0,[sp,#0x10]
        0x00003d86:    b2c1        ..      UXTB     r1,r0
        0x00003d88:    2013        .       MOVS     r0,#0x13
        0x00003d8a:    f7fcff3d    ..=.    BL       Cmd_Send2FourG ; 0xc08
        0x00003d8e:    9807        ..      LDR      r0,[sp,#0x1c]
        0x00003d90:    b2c2        ..      UXTB     r2,r0
        0x00003d92:    9806        ..      LDR      r0,[sp,#0x18]
        0x00003d94:    b2c1        ..      UXTB     r1,r0
        0x00003d96:    2014        .       MOVS     r0,#0x14
        0x00003d98:    f7fcff36    ..6.    BL       Cmd_Send2FourG ; 0xc08
        0x00003d9c:    b009        ..      ADD      sp,sp,#0x24
        0x00003d9e:    bd00        ..      POP      {pc}
    i.srv_rtc_set_dw
    srv_rtc_set_dw
        0x00003da0:    b5f0        ..      PUSH     {r4-r7,lr}
        0x00003da2:    b08f        ..      SUB      sp,sp,#0x3c
        0x00003da4:    4604        .F      MOV      r4,r0
        0x00003da6:    460f        .F      MOV      r7,r1
        0x00003da8:    a805        ..      ADD      r0,sp,#0x14
        0x00003daa:    f7fdfe55    ..U.    BL       RTC_GetDateAndTime ; 0x1a58
        0x00003dae:    a803        ..      ADD      r0,sp,#0xc
        0x00003db0:    c866        f.      LDM      r0!,{r1,r2,r5,r6}
        0x00003db2:    9200        ..      STR      r2,[sp,#0]
        0x00003db4:    9101        ..      STR      r1,[sp,#4]
        0x00003db6:    4632        2F      MOV      r2,r6
        0x00003db8:    4629        )F      MOV      r1,r5
        0x00003dba:    4623        #F      MOV      r3,r4
        0x00003dbc:    a005        ..      ADR      r0,{pc}+0x18 ; 0x3dd4
        0x00003dbe:    f7fcfa21    ..!.    BL       __2printf ; 0x204
        0x00003dc2:    463b        ;F      MOV      r3,r7
        0x00003dc4:    4622        "F      MOV      r2,r4
        0x00003dc6:    4631        1F      MOV      r1,r6
        0x00003dc8:    4628        (F      MOV      r0,r5
        0x00003dca:    f7fdff1b    ....    BL       RTC_SetDate ; 0x1c04
        0x00003dce:    b00f        ..      ADD      sp,sp,#0x3c
        0x00003dd0:    bdf0        ..      POP      {r4-r7,pc}
    $d
        0x00003dd2:    0000        ..      DCW    0
        0x00003dd4:    2f642509    .%d/    DCD    795092233
        0x00003dd8:    64323025    %02d    DCD    1681010725
        0x00003ddc:    3230252f    /%02    DCD    842016047
        0x00003de0:    30252064    d %0    DCD    807739492
        0x00003de4:    253a6432    2d:%    DCD    624583730
        0x00003de8:    3a643230    02d:    DCD    979644976
        0x00003dec:    64323025    %02d    DCD    1681010725
        0x00003df0:    0000000a    ....    DCD    10
    $t
    i.srv_rtc_set_hm
    srv_rtc_set_hm
        0x00003df4:    b5f0        ..      PUSH     {r4-r7,lr}
        0x00003df6:    b091        ..      SUB      sp,sp,#0x44
        0x00003df8:    4604        .F      MOV      r4,r0
        0x00003dfa:    460d        .F      MOV      r5,r1
        0x00003dfc:    a803        ..      ADD      r0,sp,#0xc
        0x00003dfe:    f7fdfe2b    ..+.    BL       RTC_GetDateAndTime ; 0x1a58
        0x00003e02:    980b        ..      LDR      r0,[sp,#0x2c]
        0x00003e04:    900c        ..      STR      r0,[sp,#0x30]
        0x00003e06:    9f0a        ..      LDR      r7,[sp,#0x28]
        0x00003e08:    9e09        ..      LDR      r6,[sp,#0x24]
        0x00003e0a:    4668        hF      MOV      r0,sp
        0x00003e0c:    c070        p.      STM      r0!,{r4-r6}
        0x00003e0e:    a90d        ..      ADD      r1,sp,#0x34
        0x00003e10:    c90e        ..      LDM      r1,{r1-r3}
        0x00003e12:    a006        ..      ADR      r0,{pc}+0x1a ; 0x3e2c
        0x00003e14:    f7fcf9f6    ....    BL       __2printf ; 0x204
        0x00003e18:    980c        ..      LDR      r0,[sp,#0x30]
        0x00003e1a:    9000        ..      STR      r0,[sp,#0]
        0x00003e1c:    463b        ;F      MOV      r3,r7
        0x00003e1e:    4632        2F      MOV      r2,r6
        0x00003e20:    4629        )F      MOV      r1,r5
        0x00003e22:    4620         F      MOV      r0,r4
        0x00003e24:    f7fdff16    ....    BL       RTC_SetTime ; 0x1c54
        0x00003e28:    b011        ..      ADD      sp,sp,#0x44
        0x00003e2a:    bdf0        ..      POP      {r4-r7,pc}
    $d
        0x00003e2c:    2f642509    .%d/    DCD    795092233
        0x00003e30:    64323025    %02d    DCD    1681010725
        0x00003e34:    3230252f    /%02    DCD    842016047
        0x00003e38:    30252064    d %0    DCD    807739492
        0x00003e3c:    253a6432    2d:%    DCD    624583730
        0x00003e40:    3a643230    02d:    DCD    979644976
        0x00003e44:    64323025    %02d    DCD    1681010725
        0x00003e48:    0000000a    ....    DCD    10
    $t
    i.srv_rtc_set_st
    srv_rtc_set_st
        0x00003e4c:    b5f0        ..      PUSH     {r4-r7,lr}
        0x00003e4e:    b091        ..      SUB      sp,sp,#0x44
        0x00003e50:    4604        .F      MOV      r4,r0
        0x00003e52:    460f        .F      MOV      r7,r1
        0x00003e54:    a803        ..      ADD      r0,sp,#0xc
        0x00003e56:    f7fdfdff    ....    BL       RTC_GetDateAndTime ; 0x1a58
        0x00003e5a:    07f8        ..      LSLS     r0,r7,#31
        0x00003e5c:    9d07        ..      LDR      r5,[sp,#0x1c]
        0x00003e5e:    0fc0        ..      LSRS     r0,r0,#31
        0x00003e60:    9402        ..      STR      r4,[sp,#8]
        0x00003e62:    9e08        ..      LDR      r6,[sp,#0x20]
        0x00003e64:    900c        ..      STR      r0,[sp,#0x30]
        0x00003e66:    9601        ..      STR      r6,[sp,#4]
        0x00003e68:    9500        ..      STR      r5,[sp,#0]
        0x00003e6a:    a90d        ..      ADD      r1,sp,#0x34
        0x00003e6c:    c90e        ..      LDM      r1,{r1-r3}
        0x00003e6e:    087f        ..      LSRS     r7,r7,#1
        0x00003e70:    a005        ..      ADR      r0,{pc}+0x18 ; 0x3e88
        0x00003e72:    f7fcf9c7    ....    BL       __2printf ; 0x204
        0x00003e76:    4622        "F      MOV      r2,r4
        0x00003e78:    4631        1F      MOV      r1,r6
        0x00003e7a:    4628        (F      MOV      r0,r5
        0x00003e7c:    9700        ..      STR      r7,[sp,#0]
        0x00003e7e:    9b0c        ..      LDR      r3,[sp,#0x30]
        0x00003e80:    f7fdfee8    ....    BL       RTC_SetTime ; 0x1c54
        0x00003e84:    b011        ..      ADD      sp,sp,#0x44
        0x00003e86:    bdf0        ..      POP      {r4-r7,pc}
    $d
        0x00003e88:    2f642509    .%d/    DCD    795092233
        0x00003e8c:    64323025    %02d    DCD    1681010725
        0x00003e90:    3230252f    /%02    DCD    842016047
        0x00003e94:    30252064    d %0    DCD    807739492
        0x00003e98:    253a6432    2d:%    DCD    624583730
        0x00003e9c:    3a643230    02d:    DCD    979644976
        0x00003ea0:    64323025    %02d    DCD    1681010725
        0x00003ea4:    0000000a    ....    DCD    10
    $t
    i.srv_rtc_set_ym
    srv_rtc_set_ym
        0x00003ea8:    b5f0        ..      PUSH     {r4-r7,lr}
        0x00003eaa:    b08d        ..      SUB      sp,sp,#0x34
        0x00003eac:    4605        .F      MOV      r5,r0
        0x00003eae:    460c        .F      MOV      r4,r1
        0x00003eb0:    a803        ..      ADD      r0,sp,#0xc
        0x00003eb2:    f7fdfdd1    ....    BL       RTC_GetDateAndTime ; 0x1a58
        0x00003eb6:    207d        }       MOVS     r0,#0x7d
        0x00003eb8:    0100        ..      LSLS     r0,r0,#4
        0x00003eba:    182d        -.      ADDS     r5,r5,r0
        0x00003ebc:    9902        ..      LDR      r1,[sp,#8]
        0x00003ebe:    9801        ..      LDR      r0,[sp,#4]
        0x00003ec0:    9f06        ..      LDR      r7,[sp,#0x18]
        0x00003ec2:    9e05        ..      LDR      r6,[sp,#0x14]
        0x00003ec4:    9101        ..      STR      r1,[sp,#4]
        0x00003ec6:    9002        ..      STR      r0,[sp,#8]
        0x00003ec8:    4629        )F      MOV      r1,r5
        0x00003eca:    4633        3F      MOV      r3,r6
        0x00003ecc:    4622        "F      MOV      r2,r4
        0x00003ece:    a005        ..      ADR      r0,{pc}+0x16 ; 0x3ee4
        0x00003ed0:    f7fcf998    ....    BL       __2printf ; 0x204
        0x00003ed4:    463b        ;F      MOV      r3,r7
        0x00003ed6:    4632        2F      MOV      r2,r6
        0x00003ed8:    4628        (F      MOV      r0,r5
        0x00003eda:    4621        !F      MOV      r1,r4
        0x00003edc:    f7fdfe92    ....    BL       RTC_SetDate ; 0x1c04
        0x00003ee0:    b00d        ..      ADD      sp,sp,#0x34
        0x00003ee2:    bdf0        ..      POP      {r4-r7,pc}
    $d
        0x00003ee4:    2f642509    .%d/    DCD    795092233
        0x00003ee8:    64323025    %02d    DCD    1681010725
        0x00003eec:    3230252f    /%02    DCD    842016047
        0x00003ef0:    30252064    d %0    DCD    807739492
        0x00003ef4:    253a6432    2d:%    DCD    624583730
        0x00003ef8:    3a643230    02d:    DCD    979644976
        0x00003efc:    64323025    %02d    DCD    1681010725
        0x00003f00:    0000000a    ....    DCD    10
    $t
    i.stackDump
    stackDump
        0x00003f04:    b510        ..      PUSH     {r4,lr}
        0x00003f06:    4604        .F      MOV      r4,r0
        0x00003f08:    6801        .h      LDR      r1,[r0,#0]
        0x00003f0a:    a010        ..      ADR      r0,{pc}+0x42 ; 0x3f4c
        0x00003f0c:    f7fcf97a    ..z.    BL       __2printf ; 0x204
        0x00003f10:    a011        ..      ADR      r0,{pc}+0x48 ; 0x3f58
        0x00003f12:    6861        ah      LDR      r1,[r4,#4]
        0x00003f14:    f7fcf976    ..v.    BL       __2printf ; 0x204
        0x00003f18:    a012        ..      ADR      r0,{pc}+0x4c ; 0x3f64
        0x00003f1a:    68a1        .h      LDR      r1,[r4,#8]
        0x00003f1c:    f7fcf972    ..r.    BL       __2printf ; 0x204
        0x00003f20:    a013        ..      ADR      r0,{pc}+0x50 ; 0x3f70
        0x00003f22:    68e1        .h      LDR      r1,[r4,#0xc]
        0x00003f24:    f7fcf96e    ..n.    BL       __2printf ; 0x204
        0x00003f28:    a014        ..      ADR      r0,{pc}+0x54 ; 0x3f7c
        0x00003f2a:    6921        !i      LDR      r1,[r4,#0x10]
        0x00003f2c:    f7fcf96a    ..j.    BL       __2printf ; 0x204
        0x00003f30:    a015        ..      ADR      r0,{pc}+0x58 ; 0x3f88
        0x00003f32:    6961        ai      LDR      r1,[r4,#0x14]
        0x00003f34:    f7fcf966    ..f.    BL       __2printf ; 0x204
        0x00003f38:    a016        ..      ADR      r0,{pc}+0x5c ; 0x3f94
        0x00003f3a:    69a1        .i      LDR      r1,[r4,#0x18]
        0x00003f3c:    f7fcf962    ..b.    BL       __2printf ; 0x204
        0x00003f40:    a017        ..      ADR      r0,{pc}+0x60 ; 0x3fa0
        0x00003f42:    69e1        .i      LDR      r1,[r4,#0x1c]
        0x00003f44:    f7fcf95e    ..^.    BL       __2printf ; 0x204
        0x00003f48:    bd10        ..      POP      {r4,pc}
    $d
        0x00003f4a:    0000        ..      DCW    0
        0x00003f4c:    20203072    r0      DCD    538980466
        0x00003f50:    7830203d    = 0x    DCD    2016419901
        0x00003f54:    000a7825    %x..    DCD    686117
        0x00003f58:    20203172    r1      DCD    538980722
        0x00003f5c:    7830203d    = 0x    DCD    2016419901
        0x00003f60:    000a7825    %x..    DCD    686117
        0x00003f64:    20203272    r2      DCD    538980978
        0x00003f68:    7830203d    = 0x    DCD    2016419901
        0x00003f6c:    000a7825    %x..    DCD    686117
        0x00003f70:    20203372    r3      DCD    538981234
        0x00003f74:    7830203d    = 0x    DCD    2016419901
        0x00003f78:    000a7825    %x..    DCD    686117
        0x00003f7c:    20323172    r12     DCD    540160370
        0x00003f80:    7830203d    = 0x    DCD    2016419901
        0x00003f84:    000a7825    %x..    DCD    686117
        0x00003f88:    2020726c    lr      DCD    538997356
        0x00003f8c:    7830203d    = 0x    DCD    2016419901
        0x00003f90:    000a7825    %x..    DCD    686117
        0x00003f94:    20206370    pc      DCD    538993520
        0x00003f98:    7830203d    = 0x    DCD    2016419901
        0x00003f9c:    000a7825    %x..    DCD    686117
        0x00003fa0:    20727370    psr     DCD    544371568
        0x00003fa4:    7830203d    = 0x    DCD    2016419901
        0x00003fa8:    000a7825    %x..    DCD    686117
    $d.realdata
    .constdata
    gau32ClkSrcTbl
        0x00003fac:    00b71b00    ....    DCD    12000000
        0x00003fb0:    00008000    ....    DCD    32768
        0x00003fb4:    0448e000    ..H.    DCD    71884800
        0x00003fb8:    00002710    .'..    DCD    10000
        0x00003fbc:    02dc6c00    .l..    DCD    48000000
        0x00003fc0:    00000000    ....    DCD    0
        0x00003fc4:    00000000    ....    DCD    0
        0x00003fc8:    01518000    ..Q.    DCD    22118400
    .constdata
    init_pcm1862_0x01
        0x00003fcc:    0001        ..      DCW    1
    .constdata
    init_pcm1862_0x02
        0x00003fce:    0002        ..      DCW    2
    .constdata
    init_pcm1862_0x03
        0x00003fd0:    0003        ..      DCW    3
    .constdata
    init_pcm1862_0x04
        0x00003fd2:    0004        ..      DCW    4
    .constdata
    init_pcm1862_0x20
        0x00003fd4:    1020         .      DCW    4128
    .constdata
    pcm1862_frequence
        0x00003fd6:    0726        &.      DCW    1830
    .constdata
    pcm1862_mt
        0x00003fd8:    00003fcc    .?..    DCD    16332
        0x00003fdc:    00000002    ....    DCD    2
        0x00003fe0:    00003fce    .?..    DCD    16334
        0x00003fe4:    00000002    ....    DCD    2
        0x00003fe8:    00003fd0    .?..    DCD    16336
        0x00003fec:    00000002    ....    DCD    2
        0x00003ff0:    00003fd2    .?..    DCD    16338
        0x00003ff4:    00000002    ....    DCD    2
        0x00003ff8:    00003fd4    .?..    DCD    16340
        0x00003ffc:    00000002    ....    DCD    2
        0x00004000:    00003fd6    .?..    DCD    16342
        0x00004004:    00000002    ....    DCD    2
    .constdata
    tas3251_volume_page
        0x00004008:    8c7f0000    ....    DCD    2357133312
        0x0000400c:    1e00        ..      DCW    7680
    wf_registers
        0x0000400e:    0000        ..      DCW    0
        0x00004010:    1102007f    ....    DCD    285343871
        0x00004014:    00001101    ....    DCD    4353
        0x00004018:    00000000    ....    DCD    0
        0x0000401c:    11030000    ....    DCD    285409280
        0x00004020:    1825002a    *.%.    DCD    405078058
        0x00004024:    0002100d    ....    DCD    135181
        0x00004028:    007f0000    ....    DCD    8323072
        0x0000402c:    00008002    ....    DCD    32770
        0x00004030:    0322007f    ..".    DCD    52559999
        0x00004034:    007f0000    ....    DCD    8323072
        0x00004038:    00000002    ....    DCD    2
        0x0000403c:    1e008c7f    ....    DCD    503352447
        0x00004040:    001c05fd    ....    DCD    1836541
        0x00004044:    00000000    ....    DCD    0
        0x00004048:    002805fd    ..(.    DCD    2622973
        0x0000404c:    00000000    ....    DCD    0
        0x00004050:    003405fd    ..4.    DCD    3409405
        0x00004054:    00000000    ....    DCD    0
        0x00004058:    004005fd    ..@.    DCD    4195837
        0x0000405c:    00000000    ....    DCD    0
        0x00004060:    05fd1f00    ....    DCD    100474624
        0x00004064:    c4200024    $. .    DCD    3290431524
        0x00004068:    05fd009c    ....    DCD    100466844
        0x0000406c:    ffff7f30    0...    DCD    4294934320
        0x00004070:    000000ff    ....    DCD    255
        0x00004074:    1c008c7f    ....    DCD    469798015
        0x00004078:    7f6c15fd    ..l.    DCD    2137789949
        0x0000407c:    00ffffff    ....    DCD    16777215
        0x00004080:    00000000    ....    DCD    0
        0x00004084:    00000000    ....    DCD    0
        0x00004088:    00000000    ....    DCD    0
        0x0000408c:    00000000    ....    DCD    0
        0x00004090:    8c7f0000    ....    DCD    2357133312
        0x00004094:    15fd1d00    ....    DCD    368909568
        0x00004098:    ffff7f08    ....    DCD    4294934280
        0x0000409c:    000000ff    ....    DCD    255
        0x000040a0:    00000000    ....    DCD    0
        0x000040a4:    00000000    ....    DCD    0
        0x000040a8:    00000000    ....    DCD    0
        0x000040ac:    00000000    ....    DCD    0
        0x000040b0:    1e008c7f    ....    DCD    503352447
        0x000040b4:    001005fd    ....    DCD    1050109
        0x000040b8:    00000000    ....    DCD    0
        0x000040bc:    8c7f0000    ....    DCD    2357133312
        0x000040c0:    05fd2300    .#..    DCD    100475648
        0x000040c4:    00000014    ....    DCD    20
        0x000040c8:    00000001    ....    DCD    1
        0x000040cc:    11008c7f    ....    DCD    285248639
        0x000040d0:    7f5815fd    ..X.    DCD    2136479229
        0x000040d4:    00ffffff    ....    DCD    16777215
        0x000040d8:    00000000    ....    DCD    0
        0x000040dc:    00000000    ....    DCD    0
        0x000040e0:    00000000    ....    DCD    0
        0x000040e4:    00000000    ....    DCD    0
        0x000040e8:    8c7f0000    ....    DCD    2357133312
        0x000040ec:    15fd1200    ....    DCD    368906752
        0x000040f0:    5984ff44    D..Y    DCD    1501888324
        0x000040f4:    5984ff16    ...Y    DCD    1501888278
        0x000040f8:    5984ff16    ...Y    DCD    1501888278
        0x000040fc:    2b467016    .pF+    DCD    726036502
        0x00004100:    0d859d3b    ;...    DCD    226860347
        0x00004104:    000000e2    ....    DCD    226
        0x00004108:    13008c7f    ....    DCD    318803071
        0x0000410c:    013015fd    ..0.    DCD    19928573
        0x00004110:    01f47cbb    .|..    DCD    32799931
        0x00004114:    01f47cbb    .|..    DCD    32799931
        0x00004118:    62f47cbb    .|.b    DCD    1660189883
        0x0000411c:    b44fc537    7.O.    DCD    3025126711
        0x00004120:    009281a2    ....    DCD    9601442
        0x00004124:    8c7f0000    ....    DCD    2357133312
        0x00004128:    15fd1300    ....    DCD    368907008
        0x0000412c:    f99d4f58    XO..    DCD    4187836248
        0x00004130:    0662b035    5.b.    DCD    107130933
        0x00004134:    f99d4fcb    .O..    DCD    4187836363
        0x00004138:    9de64935    5I..    DCD    2649114933
        0x0000413c:    5555d516    ..UU    DCD    1431688470
        0x00004140:    00000056    V...    DCD    86
        0x00004144:    14008c7f    ....    DCD    335580287
        0x00004148:    7c0815fd    ...|    DCD    2080904701
        0x0000414c:    83bca4b6    ....    DCD    2210178230
        0x00004150:    7c445b49    I[D|    DCD    2084854601
        0x00004154:    7cbca4b6    ...|    DCD    2092737718
        0x00004158:    861e2cb1    .,..    DCD    2250124465
        0x0000415c:    0049c587    ..I.    DCD    4834695
        0x00004160:    8c7f0000    ....    DCD    2357133312
        0x00004164:    15fd1400    ....    DCD    368907264
        0x00004168:    5cb7051c    ...\    DCD    1555498268
        0x0000416c:    5cb7051f    ...\    DCD    1555498271
        0x00004170:    5cb7051f    ...\    DCD    1555498271
        0x00004174:    9de6491f    .I..    DCD    2649114911
        0x00004178:    5555d516    ..UU    DCD    1431688470
        0x0000417c:    00000056    V...    DCD    86
        0x00004180:    14008c7f    ....    DCD    335580287
        0x00004184:    7f5815fd    ..X.    DCD    2136479229
        0x00004188:    00ffffff    ....    DCD    16777215
        0x0000418c:    00000000    ....    DCD    0
        0x00004190:    00000000    ....    DCD    0
        0x00004194:    00000000    ....    DCD    0
        0x00004198:    00000000    ....    DCD    0
        0x0000419c:    8c7f0000    ....    DCD    2357133312
        0x000041a0:    15fd1400    ....    DCD    368907264
        0x000041a4:    ffff7f6c    l...    DCD    4294934380
        0x000041a8:    000000ff    ....    DCD    255
        0x000041ac:    00000000    ....    DCD    0
        0x000041b0:    00000000    ....    DCD    0
        0x000041b4:    00000000    ....    DCD    0
        0x000041b8:    00000000    ....    DCD    0
        0x000041bc:    15008c7f    ....    DCD    352357503
        0x000041c0:    7f0815fd    ....    DCD    2131236349
        0x000041c4:    00ffffff    ....    DCD    16777215
        0x000041c8:    00000000    ....    DCD    0
        0x000041cc:    00000000    ....    DCD    0
        0x000041d0:    00000000    ....    DCD    0
        0x000041d4:    00000000    ....    DCD    0
        0x000041d8:    8c7f0000    ....    DCD    2357133312
        0x000041dc:    15fd1500    ....    DCD    368907520
        0x000041e0:    ffff7f1c    ....    DCD    4294934300
        0x000041e4:    000000ff    ....    DCD    255
        0x000041e8:    00000000    ....    DCD    0
        0x000041ec:    00000000    ....    DCD    0
        0x000041f0:    00000000    ....    DCD    0
        0x000041f4:    00000000    ....    DCD    0
        0x000041f8:    15008c7f    ....    DCD    352357503
        0x000041fc:    7f3015fd    ..0.    DCD    2133857789
        0x00004200:    00ffffff    ....    DCD    16777215
        0x00004204:    00000000    ....    DCD    0
        0x00004208:    00000000    ....    DCD    0
        0x0000420c:    00000000    ....    DCD    0
        0x00004210:    00000000    ....    DCD    0
        0x00004214:    8c7f0000    ....    DCD    2357133312
        0x00004218:    15fd1500    ....    DCD    368907520
        0x0000421c:    ffff7f44    D...    DCD    4294934340
        0x00004220:    000000ff    ....    DCD    255
        0x00004224:    00000000    ....    DCD    0
        0x00004228:    00000000    ....    DCD    0
        0x0000422c:    00000000    ....    DCD    0
        0x00004230:    00000000    ....    DCD    0
        0x00004234:    15008c7f    ....    DCD    352357503
        0x00004238:    7f5815fd    ..X.    DCD    2136479229
        0x0000423c:    00ffffff    ....    DCD    16777215
        0x00004240:    00000000    ....    DCD    0
        0x00004244:    00000000    ....    DCD    0
        0x00004248:    00000000    ....    DCD    0
        0x0000424c:    00000000    ....    DCD    0
        0x00004250:    8c7f0000    ....    DCD    2357133312
        0x00004254:    15fd1500    ....    DCD    368907520
        0x00004258:    ffff7f6c    l...    DCD    4294934380
        0x0000425c:    000000ff    ....    DCD    255
        0x00004260:    00000000    ....    DCD    0
        0x00004264:    00000000    ....    DCD    0
        0x00004268:    00000000    ....    DCD    0
        0x0000426c:    00000000    ....    DCD    0
        0x00004270:    16008c7f    ....    DCD    369134719
        0x00004274:    7f0815fd    ....    DCD    2131236349
        0x00004278:    00ffffff    ....    DCD    16777215
        0x0000427c:    00000000    ....    DCD    0
        0x00004280:    00000000    ....    DCD    0
        0x00004284:    00000000    ....    DCD    0
        0x00004288:    00000000    ....    DCD    0
        0x0000428c:    8c7f0000    ....    DCD    2357133312
        0x00004290:    15fd1600    ....    DCD    368907776
        0x00004294:    cc777f1c    ..w.    DCD    3430383388
        0x00004298:    33888069    i..3    DCD    864583785
        0x0000429c:    cc777f97    ..w.    DCD    3430383511
        0x000042a0:    83777f69    i.w.    DCD    2205646697
        0x000042a4:    d60f81f2    ....    DCD    3591340530
        0x000042a8:    00000040    @...    DCD    64
        0x000042ac:    16008c7f    ....    DCD    369134719
        0x000042b0:    7f3015fd    ..0.    DCD    2133857789
        0x000042b4:    8069cc77    w.i.    DCD    2154417271
        0x000042b8:    7f973388    .3..    DCD    2140615560
        0x000042bc:    7f69cc77    w.i.    DCD    2137640055
        0x000042c0:    81f28377    w...    DCD    2180154231
        0x000042c4:    0040d60f    ..@.    DCD    4249103
        0x000042c8:    8c7f0000    ....    DCD    2357133312
        0x000042cc:    15fd1600    ....    DCD    368907776
        0x000042d0:    92080044    D...    DCD    2449997892
        0x000042d4:    920800e7    ....    DCD    2449998055
        0x000042d8:    920800e7    ....    DCD    2449998055
        0x000042dc:    e0097de7    .}..    DCD    3758718439
        0x000042e0:    f2c985f3    ....    DCD    4073293299
        0x000042e4:    0000007e    ~...    DCD    126
        0x000042e8:    16008c7f    ....    DCD    369134719
        0x000042ec:    005815fd    ..X.    DCD    5772797
        0x000042f0:    00e79208    ....    DCD    15176200
        0x000042f4:    00e79208    ....    DCD    15176200
        0x000042f8:    7de79208    ...}    DCD    2112328200
        0x000042fc:    85f3e009    ....    DCD    2247352329
        0x00004300:    007ef2c9    ..~.    DCD    8319689
        0x00004304:    8c7f0000    ....    DCD    2357133312
        0x00004308:    15fd1600    ....    DCD    368907776
        0x0000430c:    ffff7f6c    l...    DCD    4294934380
        0x00004310:    14d780ff    ....    DCD    349667583
        0x00004314:    d8537efe    .~S.    DCD    3629350654
        0x00004318:    6da97f15    ...m    DCD    1839824661
        0x0000431c:    1fab80f8    ....    DCD    531333368
        0x00004320:    000000f7    ....    DCD    247
        0x00004324:    17008c7f    ....    DCD    385911935
        0x00004328:    7f0815fd    ....    DCD    2131236349
        0x0000432c:    8236bd92    ..6.    DCD    2184625554
        0x00004330:    7c2d491e    .I-|    DCD    2083342622
        0x00004334:    7d5dc846    F.]}    DCD    2103298118
        0x00004338:    84d3b6e1    ....    DCD    2228467425
        0x0000433c:    006c7a26    &zl.    DCD    7109158
        0x00004340:    8c7f0000    ....    DCD    2357133312
        0x00004344:    15fd1700    ....    DCD    368908032
        0x00004348:    ffff7f1c    ....    DCD    4294934300
        0x0000434c:    000000ff    ....    DCD    255
        0x00004350:    00000000    ....    DCD    0
        0x00004354:    00000000    ....    DCD    0
        0x00004358:    00000000    ....    DCD    0
        0x0000435c:    00000000    ....    DCD    0
        0x00004360:    17008c7f    ....    DCD    385911935
        0x00004364:    7f3015fd    ..0.    DCD    2133857789
        0x00004368:    00ffffff    ....    DCD    16777215
        0x0000436c:    00000000    ....    DCD    0
        0x00004370:    00000000    ....    DCD    0
        0x00004374:    00000000    ....    DCD    0
        0x00004378:    00000000    ....    DCD    0
        0x0000437c:    8c7f0000    ....    DCD    2357133312
        0x00004380:    15fd1700    ....    DCD    368908032
        0x00004384:    ffff7f44    D...    DCD    4294934340
        0x00004388:    000000ff    ....    DCD    255
        0x0000438c:    00000000    ....    DCD    0
        0x00004390:    00000000    ....    DCD    0
        0x00004394:    00000000    ....    DCD    0
        0x00004398:    00000000    ....    DCD    0
        0x0000439c:    17008c7f    ....    DCD    385911935
        0x000043a0:    7f5815fd    ..X.    DCD    2136479229
        0x000043a4:    00ffffff    ....    DCD    16777215
        0x000043a8:    00000000    ....    DCD    0
        0x000043ac:    00000000    ....    DCD    0
        0x000043b0:    00000000    ....    DCD    0
        0x000043b4:    00000000    ....    DCD    0
        0x000043b8:    8c7f0000    ....    DCD    2357133312
        0x000043bc:    15fd1700    ....    DCD    368908032
        0x000043c0:    ffff7f6c    l...    DCD    4294934380
        0x000043c4:    000000ff    ....    DCD    255
        0x000043c8:    00000000    ....    DCD    0
        0x000043cc:    00000000    ....    DCD    0
        0x000043d0:    00000000    ....    DCD    0
        0x000043d4:    00000000    ....    DCD    0
        0x000043d8:    18008c7f    ....    DCD    402689151
        0x000043dc:    080815fd    ....    DCD    134747645
        0x000043e0:    00c51508    ....    DCD    12915976
        0x000043e4:    00000000    ....    DCD    0
        0x000043e8:    00000000    ....    DCD    0
        0x000043ec:    00000000    ....    DCD    0
        0x000043f0:    00000000    ....    DCD    0
        0x000043f4:    8c7f0000    ....    DCD    2357133312
        0x000043f8:    15fd1800    ....    DCD    368908288
        0x000043fc:    ffff7f1c    ....    DCD    4294934300
        0x00004400:    000000ff    ....    DCD    255
        0x00004404:    00000000    ....    DCD    0
        0x00004408:    00000000    ....    DCD    0
        0x0000440c:    00000000    ....    DCD    0
        0x00004410:    00000000    ....    DCD    0
        0x00004414:    18008c7f    ....    DCD    402689151
        0x00004418:    7f3015fd    ..0.    DCD    2133857789
        0x0000441c:    00ffffff    ....    DCD    16777215
        0x00004420:    00000000    ....    DCD    0
        0x00004424:    00000000    ....    DCD    0
        0x00004428:    00000000    ....    DCD    0
        0x0000442c:    00000000    ....    DCD    0
        0x00004430:    8c7f0000    ....    DCD    2357133312
        0x00004434:    15fd1800    ....    DCD    368908288
        0x00004438:    ffff7f44    D...    DCD    4294934340
        0x0000443c:    000000ff    ....    DCD    255
        0x00004440:    00000000    ....    DCD    0
        0x00004444:    00000000    ....    DCD    0
        0x00004448:    00000000    ....    DCD    0
        0x0000444c:    00000000    ....    DCD    0
        0x00004450:    18008c7f    ....    DCD    402689151
        0x00004454:    7f5815fd    ..X.    DCD    2136479229
        0x00004458:    00ffffff    ....    DCD    16777215
        0x0000445c:    00000000    ....    DCD    0
        0x00004460:    00000000    ....    DCD    0
        0x00004464:    00000000    ....    DCD    0
        0x00004468:    00000000    ....    DCD    0
        0x0000446c:    8c7f0000    ....    DCD    2357133312
        0x00004470:    15fd1800    ....    DCD    368908288
        0x00004474:    ffff7f6c    l...    DCD    4294934380
        0x00004478:    000000ff    ....    DCD    255
        0x0000447c:    00000000    ....    DCD    0
        0x00004480:    00000000    ....    DCD    0
        0x00004484:    00000000    ....    DCD    0
        0x00004488:    00000000    ....    DCD    0
        0x0000448c:    19008c7f    ....    DCD    419466367
        0x00004490:    7f0815fd    ....    DCD    2131236349
        0x00004494:    00ffffff    ....    DCD    16777215
        0x00004498:    00000000    ....    DCD    0
        0x0000449c:    00000000    ....    DCD    0
        0x000044a0:    00000000    ....    DCD    0
        0x000044a4:    00000000    ....    DCD    0
        0x000044a8:    8c7f0000    ....    DCD    2357133312
        0x000044ac:    15fd1900    ....    DCD    368908544
        0x000044b0:    ffff7f1c    ....    DCD    4294934300
        0x000044b4:    000000ff    ....    DCD    255
        0x000044b8:    00000000    ....    DCD    0
        0x000044bc:    00000000    ....    DCD    0
        0x000044c0:    00000000    ....    DCD    0
        0x000044c4:    00000000    ....    DCD    0
        0x000044c8:    19008c7f    ....    DCD    419466367
        0x000044cc:    7f3015fd    ..0.    DCD    2133857789
        0x000044d0:    00ffffff    ....    DCD    16777215
        0x000044d4:    00000000    ....    DCD    0
        0x000044d8:    00000000    ....    DCD    0
        0x000044dc:    00000000    ....    DCD    0
        0x000044e0:    00000000    ....    DCD    0
        0x000044e4:    8c7f0000    ....    DCD    2357133312
        0x000044e8:    15fd1900    ....    DCD    368908544
        0x000044ec:    ffff7f44    D...    DCD    4294934340
        0x000044f0:    000000ff    ....    DCD    255
        0x000044f4:    00000000    ....    DCD    0
        0x000044f8:    00000000    ....    DCD    0
        0x000044fc:    00000000    ....    DCD    0
        0x00004500:    00000000    ....    DCD    0
        0x00004504:    19008c7f    ....    DCD    419466367
        0x00004508:    7f5815fd    ..X.    DCD    2136479229
        0x0000450c:    00ffffff    ....    DCD    16777215
        0x00004510:    00000000    ....    DCD    0
        0x00004514:    00000000    ....    DCD    0
        0x00004518:    00000000    ....    DCD    0
        0x0000451c:    00000000    ....    DCD    0
        0x00004520:    8c7f0000    ....    DCD    2357133312
        0x00004524:    15fd1900    ....    DCD    368908544
        0x00004528:    ffff7f6c    l...    DCD    4294934380
        0x0000452c:    000000ff    ....    DCD    255
        0x00004530:    00000000    ....    DCD    0
        0x00004534:    00000000    ....    DCD    0
        0x00004538:    00000000    ....    DCD    0
        0x0000453c:    00000000    ....    DCD    0
        0x00004540:    1a008c7f    ....    DCD    436243583
        0x00004544:    7f0815fd    ....    DCD    2131236349
        0x00004548:    00ffffff    ....    DCD    16777215
        0x0000454c:    00000000    ....    DCD    0
        0x00004550:    00000000    ....    DCD    0
        0x00004554:    00000000    ....    DCD    0
        0x00004558:    00000000    ....    DCD    0
        0x0000455c:    8c7f0000    ....    DCD    2357133312
        0x00004560:    15fd1a00    ....    DCD    368908800
        0x00004564:    ffff7f1c    ....    DCD    4294934300
        0x00004568:    000000ff    ....    DCD    255
        0x0000456c:    00000000    ....    DCD    0
        0x00004570:    00000000    ....    DCD    0
        0x00004574:    00000000    ....    DCD    0
        0x00004578:    00000000    ....    DCD    0
        0x0000457c:    1a008c7f    ....    DCD    436243583
        0x00004580:    7f3015fd    ..0.    DCD    2133857789
        0x00004584:    00ffffff    ....    DCD    16777215
        0x00004588:    00000000    ....    DCD    0
        0x0000458c:    00000000    ....    DCD    0
        0x00004590:    00000000    ....    DCD    0
        0x00004594:    00000000    ....    DCD    0
        0x00004598:    8c7f0000    ....    DCD    2357133312
        0x0000459c:    15fd1a00    ....    DCD    368908800
        0x000045a0:    00000844    D...    DCD    2116
        0x000045a4:    00000000    ....    DCD    0
        0x000045a8:    00000000    ....    DCD    0
        0x000045ac:    00000000    ....    DCD    0
        0x000045b0:    00000000    ....    DCD    0
        0x000045b4:    00000000    ....    DCD    0
        0x000045b8:    1a008c7f    ....    DCD    436243583
        0x000045bc:    005805fd    ..X.    DCD    5768701
        0x000045c0:    006bc4e2    ..k.    DCD    7062754
        0x000045c4:    8c7f0000    ....    DCD    2357133312
        0x000045c8:    15fd1a00    ....    DCD    368908800
        0x000045cc:    1d22006c    l.".    DCD    488767596
        0x000045d0:    32440095    ..D2    DCD    843317397
        0x000045d4:    a60d0013    ....    DCD    2785869843
        0x000045d8:    00000086    ....    DCD    134
        0x000045dc:    00000000    ....    DCD    0
        0x000045e0:    00000000    ....    DCD    0
        0x000045e4:    1b008c7f    ....    DCD    453020799
        0x000045e8:    ff0815fd    ....    DCD    4278719997
        0x000045ec:    f9ae4781    .G..    DCD    4188948353
        0x000045f0:    fd21bcda    ..!.    DCD    4246846682
        0x000045f4:    00a76842    Bh..    DCD    10971202
        0x000045f8:    00000000    ....    DCD    0
        0x000045fc:    00000000    ....    DCD    0
        0x00004600:    8c7f0000    ....    DCD    2357133312
        0x00004604:    29fd1b00    ...)    DCD    704453376
        0x00004608:    d306001c    ....    DCD    3540385820
        0x0000460c:    bb020072    r...    DCD    3137470578
        0x00004610:    69030006    ...i    DCD    1761804294
        0x00004614:    000000c5    ....    DCD    197
        0x00004618:    00000000    ....    DCD    0
        0x0000461c:    00000000    ....    DCD    0
        0x00004620:    bcdaf900    ....    DCD    3168467200
        0x00004624:    8b58fc21    !.X.    DCD    2337864737
        0x00004628:    00000089    ....    DCD    137
        0x0000462c:    00000000    ....    DCD    0
        0x00004630:    00000000    ....    DCD    0
        0x00004634:    1b008c7f    ....    DCD    453020799
        0x00004638:    004429fd    .)D.    DCD    4467197
        0x0000463c:    0072d306    ..r.    DCD    7525126
        0x00004640:    0006bb02    ....    DCD    441090
        0x00004644:    00c56903    .i..    DCD    12937475
        0x00004648:    00000000    ....    DCD    0
        0x0000464c:    00000000    ....    DCD    0
        0x00004650:    f9000000    ....    DCD    4177526784
        0x00004654:    fc21bcda    ..!.    DCD    4230069466
        0x00004658:    00898b58    X...    DCD    9014104
        0x0000465c:    00000000    ....    DCD    0
        0x00004660:    00000000    ....    DCD    0
        0x00004664:    8c7f0000    ....    DCD    2357133312
        0x00004668:    05fd1d00    ....    DCD    100474112
        0x0000466c:    d306001c    ....    DCD    3540385820
        0x00004670:    00000072    r...    DCD    114
        0x00004674:    1d008c7f    ....    DCD    486575231
        0x00004678:    1c2005fd    .. .    DCD    471860733
        0x0000467c:    0041f01b    ..A.    DCD    4321307
        0x00004680:    8c7f0000    ....    DCD    2357133312
        0x00004684:    05fd1d00    ....    DCD    100474112
        0x00004688:    370c0424    $..7    DCD    923534372
        0x0000468c:    00000014    ....    DCD    20
        0x00004690:    1d008c7f    ....    DCD    486575231
        0x00004694:    002c05fd    ..,.    DCD    2885117
        0x00004698:    00000080    ....    DCD    128
        0x0000469c:    8c7f0000    ....    DCD    2357133312
        0x000046a0:    05fd1d00    ....    DCD    100474112
        0x000046a4:    00004034    4@..    DCD    16436
        0x000046a8:    00000000    ....    DCD    0
        0x000046ac:    1d008c7f    ....    DCD    486575231
        0x000046b0:    403805fd    ..8@    DCD    1077413373
        0x000046b4:    00000000    ....    DCD    0
        0x000046b8:    8c7f0000    ....    DCD    2357133312
        0x000046bc:    05fd1d00    ....    DCD    100474112
        0x000046c0:    00800040    @...    DCD    8388672
        0x000046c4:    00000000    ....    DCD    0
        0x000046c8:    1d008c7f    ....    DCD    486575231
        0x000046cc:    004405fd    ..D.    DCD    4457981
        0x000046d0:    00000000    ....    DCD    0
        0x000046d4:    8c7f0000    ....    DCD    2357133312
        0x000046d8:    05fd1d00    ....    DCD    100474112
        0x000046dc:    00000048    H...    DCD    72
        0x000046e0:    00000000    ....    DCD    0
        0x000046e4:    1d008c7f    ....    DCD    486575231
        0x000046e8:    005805fd    ..X.    DCD    5768701
        0x000046ec:    00010000    ....    DCD    65536
        0x000046f0:    8c7f0000    ....    DCD    2357133312
        0x000046f4:    05fd1d00    ....    DCD    100474112
        0x000046f8:    2640005c    \.@&    DCD    641728604
        0x000046fc:    000000e7    ....    DCD    231
        0x00004700:    1d008c7f    ....    DCD    486575231
        0x00004704:    006005fd    ..`.    DCD    6292989
        0x00004708:    00e72640    @&..    DCD    15148608
        0x0000470c:    8c7f0000    ....    DCD    2357133312
        0x00004710:    05fd1d00    ....    DCD    100474112
        0x00004714:    00000064    d...    DCD    100
        0x00004718:    00000000    ....    DCD    0
        0x0000471c:    1d008c7f    ....    DCD    486575231
        0x00004720:    006805fd    ..h.    DCD    6817277
        0x00004724:    00000000    ....    DCD    0
        0x00004728:    8c7f0000    ....    DCD    2357133312
        0x0000472c:    05fd1d00    ....    DCD    100474112
        0x00004730:    00000074    t...    DCD    116
        0x00004734:    00000000    ....    DCD    0
        0x00004738:    1d008c7f    ....    DCD    486575231
        0x0000473c:    007805fd    ..x.    DCD    7865853
        0x00004740:    00000000    ....    DCD    0
        0x00004744:    8c7f0000    ....    DCD    2357133312
        0x00004748:    05fd1d00    ....    DCD    100474112
        0x0000474c:    0080007c    |...    DCD    8388732
        0x00004750:    00000000    ....    DCD    0
        0x00004754:    1e008c7f    ....    DCD    503352447
        0x00004758:    000805fd    ....    DCD    525821
        0x0000475c:    00000080    ....    DCD    128
        0x00004760:    8c7f0000    ....    DCD    2357133312
        0x00004764:    05fd1e00    ....    DCD    100474368
        0x00004768:    0000000c    ....    DCD    12
        0x0000476c:    00000000    ....    DCD    0
        0x00004770:    1e008c7f    ....    DCD    503352447
        0x00004774:    001405fd    ....    DCD    1312253
        0x00004778:    00000080    ....    DCD    128
        0x0000477c:    8c7f0000    ....    DCD    2357133312
        0x00004780:    05fd1e00    ....    DCD    100474368
        0x00004784:    00000018    ....    DCD    24
        0x00004788:    00000000    ....    DCD    0
        0x0000478c:    1e008c7f    ....    DCD    503352447
        0x00004790:    001c05fd    ....    DCD    1836541
        0x00004794:    00000000    ....    DCD    0
        0x00004798:    8c7f0000    ....    DCD    2357133312
        0x0000479c:    05fd1e00    ....    DCD    100474368
        0x000047a0:    00000020     ...    DCD    32
        0x000047a4:    00000000    ....    DCD    0
        0x000047a8:    1e008c7f    ....    DCD    503352447
        0x000047ac:    002405fd    ..$.    DCD    2360829
        0x000047b0:    00000000    ....    DCD    0
        0x000047b4:    8c7f0000    ....    DCD    2357133312
        0x000047b8:    05fd1e00    ....    DCD    100474368
        0x000047bc:    00000028    (...    DCD    40
        0x000047c0:    00000000    ....    DCD    0
        0x000047c4:    1e008c7f    ....    DCD    503352447
        0x000047c8:    002c05fd    ..,.    DCD    2885117
        0x000047cc:    00000080    ....    DCD    128
        0x000047d0:    8c7f0000    ....    DCD    2357133312
        0x000047d4:    05fd1e00    ....    DCD    100474368
        0x000047d8:    00000030    0...    DCD    48
        0x000047dc:    00000000    ....    DCD    0
        0x000047e0:    1e008c7f    ....    DCD    503352447
        0x000047e4:    003405fd    ..4.    DCD    3409405
        0x000047e8:    00000000    ....    DCD    0
        0x000047ec:    8c7f0000    ....    DCD    2357133312
        0x000047f0:    05fd1e00    ....    DCD    100474368
        0x000047f4:    00000038    8...    DCD    56
        0x000047f8:    00000000    ....    DCD    0
        0x000047fc:    1e008c7f    ....    DCD    503352447
        0x00004800:    003c05fd    ..<.    DCD    3933693
        0x00004804:    00000000    ....    DCD    0
        0x00004808:    8c7f0000    ....    DCD    2357133312
        0x0000480c:    05fd1e00    ....    DCD    100474368
        0x00004810:    00000040    @...    DCD    64
        0x00004814:    00000000    ....    DCD    0
        0x00004818:    1e008c7f    ....    DCD    503352447
        0x0000481c:    034405fd    ..D.    DCD    54789629
        0x00004820:    007abdf8    ..z.    DCD    8044024
        0x00004824:    8c7f0000    ....    DCD    2357133312
        0x00004828:    05fd1e00    ....    DCD    100474368
        0x0000482c:    bdf80348    H...    DCD    3187147592
        0x00004830:    0000007a    z...    DCD    122
        0x00004834:    1e008c7f    ....    DCD    503352447
        0x00004838:    405005fd    ..P@    DCD    1078986237
        0x0000483c:    00000000    ....    DCD    0
        0x00004840:    8c7f0000    ....    DCD    2357133312
        0x00004844:    05fd1e00    ....    DCD    100474368
        0x00004848:    00000454    T...    DCD    1108
        0x0000484c:    00000000    ....    DCD    0
        0x00004850:    1e008c7f    ....    DCD    503352447
        0x00004854:    045805fd    ..X.    DCD    72877565
        0x00004858:    00000000    ....    DCD    0
        0x0000485c:    8c7f0000    ....    DCD    2357133312
        0x00004860:    05fd1f00    ....    DCD    100474624
        0x00004864:    c0ce0014    ....    DCD    3234725908
        0x00004868:    0000008a    ....    DCD    138
        0x0000486c:    1f008c7f    ....    DCD    520129663
        0x00004870:    0a1805fd    ....    DCD    169346557
        0x00004874:    00d2ae0a    ....    DCD    13807114
        0x00004878:    8c7f0000    ....    DCD    2357133312
        0x0000487c:    05fd1f00    ....    DCD    100474624
        0x00004880:    6903001c    ...i    DCD    1761804316
        0x00004884:    000000d0    ....    DCD    208
        0x00004888:    1f008c7f    ....    DCD    520129663
        0x0000488c:    402005fd    .. @    DCD    1075840509
        0x00004890:    00000000    ....    DCD    0
        0x00004894:    8c7f0000    ....    DCD    2357133312
        0x00004898:    05fd1f00    ....    DCD    100474624
        0x0000489c:    51f57528    (u.Q    DCD    1375040808
        0x000048a0:    0000002e    ....    DCD    46
        0x000048a4:    1f008c7f    ....    DCD    520129663
        0x000048a8:    002c05fd    ..,.    DCD    2885117
        0x000048ac:    00625700    .Wb.    DCD    6444800
        0x000048b0:    8c7f0000    ....    DCD    2357133312
        0x000048b4:    05fd2300    .#..    DCD    100475648
        0x000048b8:    00000014    ....    DCD    20
        0x000048bc:    00000001    ....    DCD    1
        0x000048c0:    0000007f    ....    DCD    127
        0x000048c4:    20080007    ...     DCD    537395207
        0x000048c8:    00000755    U...    DCD    1877
        0x000048cc:    0000007f    ....    DCD    127
        0x000048d0:    303e303d    =0>0    DCD    809381949
        0x000048d4:    007f0000    ....    DCD    8323072
        0x000048d8:    00020100    ....    DCD    131328
        0x000048dc:    007f0000    ....    DCD    8323072
        0x000048e0:    112a0003    ..*.    DCD    287965187
    tas3251_cmd_cfm
        0x000048e4:    8c7f0000    ....    DCD    2357133312
        0x000048e8:    00142300    .#..    DCD    1319680
        0x000048ec:    00160015    ....    DCD    1441813
        0x000048f0:    0117        ..      DCW    279
    .constdata
    tas5852_volume_page
        0x000048f2:    0000        ..      DCW    0
        0x000048f4:    0b008c7f    ....    DCD    184585343
    tas5825_book0_page0
        0x000048f8:    007f0000    ....    DCD    8323072
        0x000048fc:    0000        ..      DCW    0
    tas5825_gpio_012_confgi
        0x000048fe:    0560        `.      DCW    1376
        0x00004900:    08630b61    a.c.    DCD    140708705
        0x00004904:    0264        d.      DCW    612
    registers_mid
        0x00004906:    0000        ..      DCW    0
        0x00004908:    0203007f    ....    DCD    33751167
        0x0000490c:    00001101    ....    DCD    4353
        0x00004910:    00000000    ....    DCD    0
        0x00004914:    00000000    ....    DCD    0
        0x00004918:    0203007f    ....    DCD    33751167
        0x0000491c:    000005fe    ....    DCD    1534
        0x00004920:    00000000    ....    DCD    0
        0x00004924:    00000000    ....    DCD    0
        0x00004928:    1203007f    ....    DCD    302186623
        0x0000492c:    00000000    ....    DCD    0
        0x00004930:    00000000    ....    DCD    0
        0x00004934:    007f0000    ....    DCD    8323072
        0x00004938:    00000c48    H...    DCD    3144
        0x0000493c:    0100647f    .d..    DCD    16802943
        0x00004940:    000879fd    .y..    DCD    555517
        0x00004944:    004000fe    ..@.    DCD    4194558
        0x00004948:    000000fc    ....    DCD    252
        0x0000494c:    000000fc    ....    DCD    252
        0x00004950:    000000fc    ....    DCD    252
        0x00004954:    000000fc    ....    DCD    252
        0x00004958:    000000fc    ....    DCD    252
        0x0000495c:    000000fc    ....    DCD    252
        0x00004960:    000000fc    ....    DCD    252
        0x00004964:    000050fc    .P..    DCD    20732
        0x00004968:    000000fc    ....    DCD    252
        0x0000496c:    000000fc    ....    DCD    252
        0x00004970:    000000fc    ....    DCD    252
        0x00004974:    000000fc    ....    DCD    252
        0x00004978:    000000fc    ....    DCD    252
        0x0000497c:    000000fc    ....    DCD    252
        0x00004980:    000000fc    ....    DCD    252
        0x00004984:    000000fc    ....    DCD    252
        0x00004988:    000000fc    ....    DCD    252
        0x0000498c:    000000fc    ....    DCD    252
        0x00004990:    000000fc    ....    DCD    252
        0x00004994:    000000fc    ....    DCD    252
        0x00004998:    000000fc    ....    DCD    252
        0x0000499c:    000000fc    ....    DCD    252
        0x000049a0:    000000fc    ....    DCD    252
        0x000049a4:    00930082    ....    DCD    9633922
        0x000049a8:    840000fc    ....    DCD    2214592764
        0x000049ac:    84bc02c9    ....    DCD    2226913993
        0x000049b0:    8fbd02c1    ....    DCD    2411528897
        0x000049b4:    08eeff00    ....    DCD    149880576
        0x000049b8:    001038fc    .8..    DCD    1063164
        0x000049bc:    79fd0200    ...y    DCD    2046624256
        0x000049c0:    04028408    ....    DCD    67273736
        0x000049c4:    03c38406    ....    DCD    63144966
        0x000049c8:    024002db    ..@.    DCD    37749467
        0x000049cc:    034802c3    ..H.    DCD    55050947
        0x000049d0:    10ff00dd    ....    DCD    285147357
        0x000049d4:    00fc009a    ....    DCD    16515226
        0x000049d8:    1210e400    ....    DCD    303096832
        0x000049dc:    024002cd    ..@.    DCD    37749453
        0x000049e0:    136088bd    ..`.    DCD    325093565
        0x000049e4:    025802dc    ..X.    DCD    39322332
        0x000049e8:    00d302bc    ....    DCD    13828796
        0x000049ec:    02c98410    ....    DCD    46760976
        0x000049f0:    1a0010bc    ....    DCD    436211900
        0x000049f4:    00700203    ..p.    DCD    7340547
        0x000049f8:    02c98404    ....    DCD    46760964
        0x000049fc:    18200cbd    .. .    DCD    404753597
        0x00004a00:    00600249    I.`.    DCD    6292041
        0x00004a04:    02c18401    ....    DCD    46236673
        0x00004a08:    035184bc    ..Q.    DCD    55674044
        0x00004a0c:    0cfc08de    ....    DCD    217843934
        0x00004a10:    00780298    ..x.    DCD    7864984
        0x00004a14:    40c28403    ...@    DCD    1086489603
        0x00004a18:    006802e0    ..h.    DCD    6816480
        0x00004a1c:    03598402    ..Y.    DCD    56198146
        0x00004a20:    2cfc08ed    ...,    DCD    754714861
        0x00004a24:    00280299    ..(.    DCD    2622105
        0x00004a28:    ff110203    ....    DCD    4279304707
        0x00004a2c:    024802fc    ..H.    DCD    38273788
        0x00004a30:    1210e0bc    ....    DCD    303095996
        0x00004a34:    521cf0ce    ...R    DCD    1377628366
        0x00004a38:    030000cf    ....    DCD    50331855
        0x00004a3c:    f00879fd    .y..    DCD    4027087357
        0x00004a40:    f0d0521c    .R..    DCD    4040184348
        0x00004a44:    f0d1521c    .R..    DCD    4040249884
        0x00004a48:    86d2521f    .R..    DCD    2261930527
        0x00004a4c:    80d302a1    ....    DCD    2161312417
        0x00004a50:    84ea8027    '...    DCD    2229960743
        0x00004a54:    e0450483    ..E.    DCD    3762619523
        0x00004a58:    84000000    ....    DCD    2214592512
        0x00004a5c:    84e06082    .`..    DCD    2229297282
        0x00004a60:    84de0353    S...    DCD    2229142355
        0x00004a64:    f0f50351    Q...    DCD    4042589009
        0x00004a68:    f0d4721c    .r..    DCD    4040454684
        0x00004a6c:    84d5721c    .r..    DCD    2228580892
        0x00004a70:    f0e040ca    .@..    DCD    4041228490
        0x00004a74:    f0d6721c    .r..    DCD    4040585756
        0x00004a78:    86d7721f    .r..    DCD    2262266399
        0x00004a7c:    80ce02a1    ....    DCD    2160984737
        0x00004a80:    84eb8027    '...    DCD    2230026279
        0x00004a84:    e0450483    ..E.    DCD    3762619523
        0x00004a88:    84002010    . ..    DCD    2214600720
        0x00004a8c:    84ed035b    [...    DCD    2230125403
        0x00004a90:    f0fd0359    Y...    DCD    4043113305
        0x00004a94:    f0cf521c    .R..    DCD    4040118812
        0x00004a98:    f0d0521c    .R..    DCD    4040184348
        0x00004a9c:    f0d1521c    .R..    DCD    4040249884
        0x00004aa0:    86d2521f    .R..    DCD    2261930527
        0x00004aa4:    80d302a1    ....    DCD    2161312417
        0x00004aa8:    84ea8027    '...    DCD    2229960743
        0x00004aac:    e0460483    ..F.    DCD    3762685059
        0x00004ab0:    84000000    ....    DCD    2214592512
        0x00004ab4:    00e06082    .`..    DCD    14704770
        0x00004ab8:    79fd0400    ...y    DCD    2046624768
        0x00004abc:    03538408    ..S.    DCD    55804936
        0x00004ac0:    035184f5    ..Q.    DCD    55674101
        0x00004ac4:    721cf0ee    ...r    DCD    1914499310
        0x00004ac8:    721cf0d4    ...r    DCD    1914499284
        0x00004acc:    721cf0d5    ...r    DCD    1914499285
        0x00004ad0:    721ff0d6    ...r    DCD    1914695894
        0x00004ad4:    02a186d7    ....    DCD    44140247
        0x00004ad8:    802780d8    ..'.    DCD    2150072536
        0x00004adc:    035b84eb    ..[.    DCD    56329451
        0x00004ae0:    035984fd    ..Y.    DCD    56198397
        0x00004ae4:    048384df    ....    DCD    75728095
        0x00004ae8:    8057e246    F.W.    DCD    2153243206
        0x00004aec:    02c98400    ....    DCD    46760960
        0x00004af0:    608284bd    ...`    DCD    1619166397
        0x00004af4:    721cf0e0    ...r    DCD    1914499296
        0x00004af8:    721cf0d9    ...r    DCD    1914499289
        0x00004afc:    721cf0da    ...r    DCD    1914499290
        0x00004b00:    721ff0db    ...r    DCD    1914695899
        0x00004b04:    02a186dc    ....    DCD    44140252
        0x00004b08:    802780dd    ..'.    DCD    2150072541
        0x00004b0c:    048384eb    ....    DCD    75728107
        0x00004b10:    0000e047    G...    DCD    57415
        0x00004b14:    40828400    ...@    DCD    1082295296
        0x00004b18:    035b84e0    ..[.    DCD    56329440
        0x00004b1c:    035984df    ..Y.    DCD    56198367
        0x00004b20:    521cf0f6    ...R    DCD    1377628406
        0x00004b24:    521cf0de    ...R    DCD    1377628382
        0x00004b28:    60ca84df    ...`    DCD    1623885023
        0x00004b2c:    521cf0e0    ...R    DCD    1377628384
        0x00004b30:    521ff0e0    ...R    DCD    1377824992
        0x00004b34:    050000e1    ....    DCD    83886305
        0x00004b38:    860879fd    .y..    DCD    2248702461
        0x00004b3c:    80d802a1    ....    DCD    2161640097
        0x00004b40:    84ea8027    '...    DCD    2229960743
        0x00004b44:    e0470483    ..G.    DCD    3762750595
        0x00004b48:    84002010    . ..    DCD    2214600720
        0x00004b4c:    84ee0353    S...    DCD    2230190931
        0x00004b50:    f0fe0351    Q...    DCD    4043178833
        0x00004b54:    f0d9721c    .r..    DCD    4040782364
        0x00004b58:    f0da721c    .r..    DCD    4040847900
        0x00004b5c:    f0db721c    .r..    DCD    4040913436
        0x00004b60:    86dc721f    .r..    DCD    2262594079
        0x00004b64:    80dd02a1    ....    DCD    2161967777
        0x00004b68:    84eb8027    '...    DCD    2230026279
        0x00004b6c:    e0480483    ..H.    DCD    3762816131
        0x00004b70:    84000000    ....    DCD    2214592512
        0x00004b74:    84e04082    .@..    DCD    2229289090
        0x00004b78:    84f6035b    [...    DCD    2230715227
        0x00004b7c:    f0ef0359    Y...    DCD    4042195801
        0x00004b80:    f0de521c    .R..    DCD    4041101852
        0x00004b84:    f0df521c    .R..    DCD    4041167388
        0x00004b88:    f0e0521c    .R..    DCD    4041232924
        0x00004b8c:    86e1521f    .R..    DCD    2262913567
        0x00004b90:    80e202a1    ....    DCD    2162295457
        0x00004b94:    84ea8027    '...    DCD    2229960743
        0x00004b98:    84fe0353    S...    DCD    2231239507
        0x00004b9c:    84e70351    Q...    DCD    2229732177
        0x00004ba0:    e2480483    ..H.    DCD    3796370563
        0x00004ba4:    84008057    W...    DCD    2214625367
        0x00004ba8:    84bd02c9    ....    DCD    2226979529
        0x00004bac:    f0e04082    .@..    DCD    4041228418
        0x00004bb0:    00e3521c    .R..    DCD    14897692
        0x00004bb4:    79fd0600    ...y    DCD    2046625280
        0x00004bb8:    521cf008    ...R    DCD    1377628168
        0x00004bbc:    521cf0e4    ...R    DCD    1377628388
        0x00004bc0:    521ff0e5    ...R    DCD    1377824997
        0x00004bc4:    02a186e6    ....    DCD    44140262
        0x00004bc8:    802780e7    ..'.    DCD    2150072551
        0x00004bcc:    048384ea    ....    DCD    75728106
        0x00004bd0:    0000e049    I...    DCD    57417
        0x00004bd4:    60828400    ...`    DCD    1619166208
        0x00004bd8:    035384e0    ..S.    DCD    55805152
        0x00004bdc:    035184e7    ..Q.    DCD    55674087
        0x00004be0:    721cf0f7    ...r    DCD    1914499319
        0x00004be4:    721cf0e8    ...r    DCD    1914499304
        0x00004be8:    40ca84e9    ...@    DCD    1087014121
        0x00004bec:    721cf0e0    ...r    DCD    1914499296
        0x00004bf0:    721ff0ea    ...r    DCD    1914695914
        0x00004bf4:    02a186eb    ....    DCD    44140267
        0x00004bf8:    802780e2    ..'.    DCD    2150072546
        0x00004bfc:    048384eb    ....    DCD    75728107
        0x00004c00:    2010e049    I..     DCD    537976905
        0x00004c04:    035b8400    ..[.    DCD    56329216
        0x00004c08:    521cf0ef    ...R    DCD    1377628399
        0x00004c0c:    521cf0e3    ...R    DCD    1377628387
        0x00004c10:    521cf0e4    ...R    DCD    1377628388
        0x00004c14:    521ff0e5    ...R    DCD    1377824997
        0x00004c18:    02a186e6    ....    DCD    44140262
        0x00004c1c:    802780e7    ..'.    DCD    2150072551
        0x00004c20:    035384ea    ..S.    DCD    55805162
        0x00004c24:    035184f7    ..Q.    DCD    55674103
        0x00004c28:    048384ff    ....    DCD    75728127
        0x00004c2c:    0000e04a    J...    DCD    57418
        0x00004c30:    07000000    ....    DCD    117440512
        0x00004c34:    840879fd    .y..    DCD    2215148029
        0x00004c38:    f0e04082    .@..    DCD    4041228418
        0x00004c3c:    f0e8521c    .R..    DCD    4041757212
        0x00004c40:    f0e9521c    .R..    DCD    4041822748
        0x00004c44:    f0ea521c    .R..    DCD    4041888284
        0x00004c48:    86eb521f    .R..    DCD    2263568927
        0x00004c4c:    80ec02a1    ....    DCD    2162950817
        0x00004c50:    84ea8027    '...    DCD    2229960743
        0x00004c54:    844a0483    ..J.    DCD    2219443331
        0x00004c58:    66ff0353    S..f    DCD    1727988563
        0x00004c5c:    ee00c088    ....    DCD    3993026696
        0x00004c60:    0200c080    ....    DCD    33603712
        0x00004c64:    621000cb    ...b    DCD    1645215947
        0x00004c68:    ea00a088    ....    DCD    3925909640
        0x00004c6c:    0200a080    ....    DCD    33595520
        0x00004c70:    881000d3    ....    DCD    2282750163
        0x00004c74:    09800047    G...    DCD    159383623
        0x00004c78:    08210807    ..!.    DCD    136382471
        0x00004c7c:    0d5308fc    ..S.    DCD    223545596
        0x00004c80:    84381000    ..8.    DCD    2218266624
        0x00004c84:    080604cb    ....    DCD    134612171
        0x00004c88:    84510860    `.Q.    DCD    2219903072
        0x00004c8c:    e4000280    ....    DCD    3825205888
        0x00004c90:    86810000    ....    DCD    2256601088
        0x00004c94:    88ee02c9    ....    DCD    2297299657
        0x00004c98:    0d802047    G ..    DCD    226500679
        0x00004c9c:    84081000    ....    DCD    2215120896
        0x00004ca0:    00070482    ....    DCD    459906
        0x00004ca4:    000000fc    ....    DCD    252
        0x00004ca8:    84d72042    B ..    DCD    2228691010
        0x00004cac:    000504db    ....    DCD    328923
        0x00004cb0:    79fd0800    ...y    DCD    2046625792
        0x00004cb4:    18fc0808    ....    DCD    419170312
        0x00004cb8:    02a18631    1...    DCD    44140081
        0x00004cbc:    2010e4ed    ...     DCD    537978093
        0x00004cc0:    20fe0000    ...     DCD    553517056
        0x00004cc4:    006c88d8    ..l.    DCD    7112920
        0x00004cc8:    00800200    ....    DCD    8389120
        0x00004ccc:    04a18400    ....    DCD    77693952
        0x00004cd0:    0000e449    I...    DCD    58441
        0x00004cd4:    04a18400    ....    DCD    77693952
        0x00004cd8:    04c9844a    J...    DCD    80315466
        0x00004cdc:    0000e047    G...    DCD    57415
        0x00004ce0:    0000ec00    ....    DCD    60416
        0x00004ce4:    00478881    ..G.    DCD    4688001
        0x00004ce8:    04a18482    ....    DCD    77694082
        0x00004cec:    1a001048    H...    DCD    436211784
        0x00004cf0:    0000e801    ....    DCD    59393
        0x00004cf4:    00d30200    ....    DCD    13828608
        0x00004cf8:    00078814    ....    DCD    493588
        0x00004cfc:    08200c81    .. .    DCD    136318081
        0x00004d00:    00700248    H.p.    DCD    7340616
        0x00004d04:    03498406    ..I.    DCD    55149574
        0x00004d08:    03598447    G.Y.    DCD    56198215
        0x00004d0c:    9157e24f    O.W.    DCD    2438455887
        0x00004d10:    007802b4    ..x.    DCD    7865012
        0x00004d14:    20828405    ...     DCD    545424389
        0x00004d18:    1a0010e0    ....    DCD    436211936
        0x00004d1c:    00280203    ..(.    DCD    2621955
        0x00004d20:    02500202    ..P.    DCD    38797826
        0x00004d24:    311cf0bc    ...1    DCD    823980220
        0x00004d28:    311cf0b5    ...1    DCD    823980213
        0x00004d2c:    090000b6    ....    DCD    150995126
        0x00004d30:    f00879fd    .y..    DCD    4027087357
        0x00004d34:    f0b7311c    .1..    DCD    4038537500
        0x00004d38:    e4b8311f    .1..    DCD    3837276447
        0x00004d3c:    80bb1100    ....    DCD    2159743232
        0x00004d40:    f4e18027    '...    DCD    4108419111
        0x00004d44:    f4b91100    ....    DCD    4105769216
        0x00004d48:    f4ba311d    .1..    DCD    4105842973
        0x00004d4c:    f4bc311c    .1..    DCD    4105974044
        0x00004d50:    86bd311f    .1..    DCD    2260545823
        0x00004d54:    80b401a1    ....    DCD    2159280545
        0x00004d58:    02e98067    g...    DCD    48857191
        0x00004d5c:    841000cb    ....    DCD    2215641291
        0x00004d60:    e0770383    ..w.    DCD    3765896067
        0x00004d64:    08000010    ....    DCD    134217744
        0x00004d68:    84210a00    ..!.    DCD    2216757760
        0x00004d6c:    f047034b    K.G.    DCD    4031185739
        0x00004d70:    f0b5711c    .q..    DCD    4038422812
        0x00004d74:    f0b6711c    .q..    DCD    4038488348
        0x00004d78:    f0b7711c    .q..    DCD    4038553884
        0x00004d7c:    e4b8711f    .q..    DCD    3837292831
        0x00004d80:    80bb1100    ....    DCD    2159743232
        0x00004d84:    f4e38027    '...    DCD    4108550183
        0x00004d88:    f4b91100    ....    DCD    4105769216
        0x00004d8c:    f4ba711d    .q..    DCD    4105859357
        0x00004d90:    f4bc711c    .q..    DCD    4105990428
        0x00004d94:    86bd711f    .q..    DCD    2260562207
        0x00004d98:    80dc01a1    ....    DCD    2161901985
        0x00004d9c:    02eb8067    g...    DCD    48988263
        0x00004da0:    841000c3    ....    DCD    2215641283
        0x00004da4:    087f03c3    ....    DCD    142541763
        0x00004da8:    00000a00    ....    DCD    2560
        0x00004dac:    79fd0a00    ...y    DCD    2046626304
        0x00004db0:    035b8408    ..[.    DCD    56329224
        0x00004db4:    0010e44f    O...    DCD    1107023
        0x00004db8:    2010e000    ...     DCD    537976832
        0x00004dbc:    806dea00    ..m.    DCD    2154686976
        0x00004dc0:    00cb0200    ....    DCD    13304320
        0x00004dc4:    a06dee10    ..m.    DCD    2691558928
        0x00004dc8:    00c30200    ....    DCD    12780032
        0x00004dcc:    00478810    ..G.    DCD    4687888
        0x00004dd0:    09070982    ....    DCD    151456130
        0x00004dd4:    48fc0810    ...H    DCD    1224476688
        0x00004dd8:    10000d33    3...    DCD    268438835
        0x00004ddc:    03c38418    ....    DCD    63144984
        0x00004de0:    4860086d    m.`H    DCD    1214253165
        0x00004de4:    03db8430    0...    DCD    64717872
        0x00004de8:    01d1866c    l...    DCD    30508652
        0x00004dec:    048084e2    ....    DCD    75531490
        0x00004df0:    0000e407    ....    DCD    58375
        0x00004df4:    01c18680    ....    DCD    29460096
        0x00004df8:    22474de3    .MG"    DCD    575098339
        0x00004dfc:    00488000    ..H.    DCD    4751360
        0x00004e00:    3cfc0881    ...<    DCD    1023150209
        0x00004e04:    10000d13    ....    DCD    268438803
        0x00004e08:    04a28430    0...    DCD    77759536
        0x00004e0c:    04da8408    ....    DCD    81429512
        0x00004e10:    21620002    ..b!    DCD    560070658
        0x00004e14:    01d9862e    ....    DCD    31032878
        0x00004e18:    10000de5    ....    DCD    268439013
        0x00004e1c:    01c18620     ...    DCD    29460000
        0x00004e20:    01c986e1    ....    DCD    29984481
        0x00004e24:    064408e0    ..D.    DCD    105122016
        0x00004e28:    0b000011    ....    DCD    184549393
        0x00004e2c:    000879fd    .y..    DCD    555517
        0x00004e30:    023221fe    .!2.    DCD    36839934
        0x00004e34:    081900a3    ....    DCD    135856291
        0x00004e38:    84513cfc    .<Q.    DCD    2219916540
        0x00004e3c:    860204ca    ....    DCD    2248279242
        0x00004e40:    86e401d9    ....    DCD    2263089625
        0x00004e44:    e4df01a1    ....    DCD    3839820193
        0x00004e48:    88004080    .@..    DCD    2281717888
        0x00004e4c:    08810040    @...    DCD    142671936
        0x00004e50:    027128fc    .(q.    DCD    40970492
        0x00004e54:    02010028    (...    DCD    33620008
        0x00004e58:    e4190083    ....    DCD    3826843779
        0x00004e5c:    88000200    ....    DCD    2281701888
        0x00004e60:    848000c8    ....    DCD    2222981320
        0x00004e64:    866e03c9    ..n.    DCD    2255356873
        0x00004e68:    86de01d9    ....    DCD    2262696409
        0x00004e6c:    0ddd01d1    ....    DCD    232587729
        0x00004e70:    08081000    ....    DCD    134746112
        0x00004e74:    84726644    Dfr.    DCD    2222089796
        0x00004e78:    840904a2    ....    DCD    2215183522
        0x00004e7c:    846a0359    Y.j.    DCD    2221540185
        0x00004e80:    006b0349    I.k.    DCD    7013193
        0x00004e84:    e40000fc    ....    DCD    3825205500
        0x00004e88:    ec820010    ....    DCD    3967942672
        0x00004e8c:    88002010    . ..    DCD    2281709584
        0x00004e90:    08800047    G...    DCD    142606407
        0x00004e94:    e23008fc    ..0.    DCD    3794798844
        0x00004e98:    84be9157    W...    DCD    2227081559
        0x00004e9c:    84bd02c9    ....    DCD    2226979529
        0x00004ea0:    846e03c3    ..n.    DCD    2221802435
        0x00004ea4:    00e06082    .`..    DCD    14704770
        0x00004ea8:    79fd0c00    ...y    DCD    2046626816
        0x00004eac:    711cf008    ...q    DCD    1897721864
        0x00004eb0:    711cf0bf    ...q    DCD    1897722047
        0x00004eb4:    711cf0c0    ...q    DCD    1897722048
        0x00004eb8:    711ff0c1    ...q    DCD    1897918657
        0x00004ebc:    1100e4c2    ....    DCD    285271234
        0x00004ec0:    802780c5    ..'.    DCD    2150072517
        0x00004ec4:    1100f4e3    ....    DCD    285275363
        0x00004ec8:    711df4c3    ...q    DCD    1897788611
        0x00004ecc:    711cf4c4    ...q    DCD    1897723076
        0x00004ed0:    711ff4c6    ...q    DCD    1897919686
        0x00004ed4:    01c386c7    ....    DCD    29591239
        0x00004ed8:    20ca84b2    ...     DCD    550143154
        0x00004edc:    01a186e0    ....    DCD    27363040
        0x00004ee0:    806780be    ..g.    DCD    2154266814
        0x00004ee4:    00c302eb    ....    DCD    12780267
        0x00004ee8:    03838410    ....    DCD    58950672
        0x00004eec:    2010e08f    ...     DCD    537976975
        0x00004ef0:    311cf000    ...1    DCD    823980032
        0x00004ef4:    311cf0bf    ...1    DCD    823980223
        0x00004ef8:    311cf0c0    ...1    DCD    823980224
        0x00004efc:    311ff0c1    ...1    DCD    824176833
        0x00004f00:    1100e4c2    ....    DCD    285271234
        0x00004f04:    802780c5    ..'.    DCD    2150072517
        0x00004f08:    1100f4e1    ....    DCD    285275361
        0x00004f0c:    311df4c3    ...1    DCD    824046787
        0x00004f10:    311cf4c4    ...1    DCD    823981252
        0x00004f14:    311ff4c6    ...1    DCD    824177862
        0x00004f18:    0a0008c7    ....    DCD    167774407
        0x00004f1c:    80678001    ..g.    DCD    2154266625
        0x00004f20:    00c302e9    ....    DCD    12780265
        0x00004f24:    0d000010    ....    DCD    218103824
        0x00004f28:    840879fd    .y..    DCD    2215148029
        0x00004f2c:    089f03c3    ....    DCD    144638915
        0x00004f30:    e4000a00    ....    DCD    3825207808
        0x00004f34:    e0f03110    .1..    DCD    3773837584
        0x00004f38:    ea000010    ....    DCD    3925868560
        0x00004f3c:    02008073    s...    DCD    33587315
        0x00004f40:    ee1000cb    ....    DCD    3994026187
        0x00004f44:    02006073    s`..    DCD    33579123
        0x00004f48:    881000d3    ....    DCD    2282750163
        0x00004f4c:    09800007    ....    DCD    159383559
        0x00004f50:    08210847    G.!.    DCD    136382535
        0x00004f54:    0d5308fc    ..S.    DCD    223545596
        0x00004f58:    84381000    ..8.    DCD    2218266624
        0x00004f5c:    089c03cb    ....    DCD    144442315
        0x00004f60:    84510860    `.Q.    DCD    2219903072
        0x00004f64:    e4070480    ....    DCD    3825665152
        0x00004f68:    84810000    ....    DCD    2223046656
        0x00004f6c:    4d0804a0    ...M    DCD    1292371104
        0x00004f70:    80002047    G ..    DCD    2147491911
        0x00004f74:    86810048    H...    DCD    2256601160
        0x00004f78:    86f601d1    ....    DCD    2264269265
        0x00004f7c:    84f701c1    ....    DCD    2230780353
        0x00004f80:    0d9b03db    ....    DCD    228262875
        0x00004f84:    08301000    ..0.    DCD    137367552
        0x00004f88:    84133cfc    .<..    DCD    2215853308
        0x00004f8c:    846a035b    [.j.    DCD    2221540187
        0x00004f90:    846b034b    K.k.    DCD    2221605707
        0x00004f94:    000304da    ....    DCD    197850
        0x00004f98:    868b2162    b!..    DCD    2257264994
        0x00004f9c:    0df901d9    ....    DCD    234422745
        0x00004fa0:    00201000    .. .    DCD    2101248
        0x00004fa4:    79fd0e00    ...y    DCD    2046627328
        0x00004fa8:    01c18608    ....    DCD    29459976
        0x00004fac:    01c986f5    ....    DCD    29984501
        0x00004fb0:    064408f4    ..D.    DCD    105122036
        0x00004fb4:    21fe0011    ...!    DCD    570294289
        0x00004fb8:    00a3028f    ....    DCD    10683023
        0x00004fbc:    3cfc0819    ...<    DCD    1023150105
        0x00004fc0:    04ca8451    Q...    DCD    80381009
        0x00004fc4:    01d98603    ....    DCD    31032835
        0x00004fc8:    01a186f8    ....    DCD    27363064
        0x00004fcc:    6080e4f3    ...`    DCD    1619059955
        0x00004fd0:    00408800    ..@.    DCD    4229120
        0x00004fd4:    28fc0881    ...(    DCD    687605889
        0x00004fd8:    04a08471    q...    DCD    77628529
        0x00004fdc:    2010e409    ...     DCD    537977865
        0x00004fe0:    00c88800    ....    DCD    13142016
        0x00004fe4:    03c98480    ....    DCD    63538304
        0x00004fe8:    01d9869d    ....    DCD    31032989
        0x00004fec:    01d186f2    ....    DCD    30508786
        0x00004ff0:    10000df1    ....    DCD    268439025
        0x00004ff4:    66440808    ..Df    DCD    1715734536
        0x00004ff8:    00700272    r.p.    DCD    7340658
        0x00004ffc:    0010e40a    ....    DCD    1106954
        0x00005000:    2010ec82    ...     DCD    537980034
        0x00005004:    00478800    ..G.    DCD    4687872
        0x00005008:    03598480    ..Y.    DCD    56198272
        0x0000500c:    08fc0857    W...    DCD    150734935
        0x00005010:    9157e230    0.W.    DCD    2438455856
        0x00005014:    02c984c8    ....    DCD    46761160
        0x00005018:    03c384bd    ....    DCD    63145149
        0x0000501c:    6082849d    ...`    DCD    1619166365
        0x00005020:    0f0000e0    ....    DCD    251658464
        0x00005024:    f00879fd    .y..    DCD    4027087357
        0x00005028:    f0c9711c    .q..    DCD    4039733532
        0x0000502c:    02ca711c    .q..    DCD    46821660
        0x00005030:    f0090078    x...    DCD    4027121784
        0x00005034:    f0cb711c    .q..    DCD    4039864604
        0x00005038:    e4cc711f    .q..    DCD    3838603551
        0x0000503c:    80cf1100    ....    DCD    2161053952
        0x00005040:    f4e38027    '...    DCD    4108550183
        0x00005044:    f4cd1100    ....    DCD    4107079936
        0x00005048:    f4ce711d    .q..    DCD    4107170077
        0x0000504c:    f4d0711c    .q..    DCD    4107301148
        0x00005050:    e0d1711f    .q..    DCD    3771822367
        0x00005054:    80d41100    ....    DCD    2161381632
        0x00005058:    f0e38067    g...    DCD    4041441383
        0x0000505c:    f0d21100    ....    DCD    4040298752
        0x00005060:    f0d3711d    .q..    DCD    4040388893
        0x00005064:    f0d5711c    .q..    DCD    4040519964
        0x00005068:    e4d6711f    .q..    DCD    3839258911
        0x0000506c:    80d91100    ....    DCD    2161709312
        0x00005070:    f4e38027    '...    DCD    4108550183
        0x00005074:    f4d71100    ....    DCD    4107735296
        0x00005078:    f4d8711d    .q..    DCD    4107825437
        0x0000507c:    f4da711c    .q..    DCD    4107956508
        0x00005080:    86db711f    .q..    DCD    2262528287
        0x00005084:    84b101c3    ....    DCD    2226192835
        0x00005088:    80650349    I.e.    DCD    2154103625
        0x0000508c:    02eb8067    g...    DCD    48988263
        0x00005090:    841000c3    ....    DCD    2215641283
        0x00005094:    e0a70383    ....    DCD    3769041795
        0x00005098:    84c83110    .1..    DCD    2227712272
        0x0000509c:    00e020ca    . ..    DCD    14688458
        0x000050a0:    79fd1000    ...y    DCD    2046627840
        0x000050a4:    311cf008    ...1    DCD    823980040
        0x000050a8:    311cf0c9    ...1    DCD    823980233
        0x000050ac:    311cf0ca    ...1    DCD    823980234
        0x000050b0:    311ff0cb    ...1    DCD    824176843
        0x000050b4:    1100e4cc    ....    DCD    285271244
        0x000050b8:    802780cf    ..'.    DCD    2150072527
        0x000050bc:    1100f4e1    ....    DCD    285275361
        0x000050c0:    311df4cd    ...1    DCD    824046797
        0x000050c4:    311cf4ce    ...1    DCD    823981262
        0x000050c8:    311ff4d0    ...1    DCD    824177872
        0x000050cc:    1100e0d1    ....    DCD    285270225
        0x000050d0:    806780d4    ..g.    DCD    2154266836
        0x000050d4:    1100f0e1    ....    DCD    285274337
        0x000050d8:    311df0d2    ...1    DCD    824045778
        0x000050dc:    311cf0d3    ...1    DCD    823980243
        0x000050e0:    311ff0d5    ...1    DCD    824176853
        0x000050e4:    1100e4d6    ....    DCD    285271254
        0x000050e8:    802780d9    ..'.    DCD    2150072537
        0x000050ec:    1100f4e1    ....    DCD    285275361
        0x000050f0:    311df4d7    ...1    DCD    824046807
        0x000050f4:    311cf4d8    ...1    DCD    823981272
        0x000050f8:    311ff4da    ...1    DCD    824177882
        0x000050fc:    0a0008db    ....    DCD    167774427
        0x00005100:    80678001    ..g.    DCD    2154266625
        0x00005104:    00c302e9    ....    DCD    12780265
        0x00005108:    03c38410    ....    DCD    63144976
        0x0000510c:    0a0008af    ....    DCD    167774383
        0x00005110:    3110e400    ...1    DCD    823190528
        0x00005114:    0010e0e6    ....    DCD    1106150
        0x00005118:    8071ea00    ..q.    DCD    2154949120
        0x0000511c:    11000000    ....    DCD    285212672
        0x00005120:    020879fd    .y..    DCD    34109949
        0x00005124:    ee1000cb    ....    DCD    3994026187
        0x00005128:    02006071    q`..    DCD    33579121
        0x0000512c:    881000d3    ....    DCD    2282750163
        0x00005130:    09800007    ....    DCD    159383559
        0x00005134:    08210847    G.!.    DCD    136382535
        0x00005138:    0d5308fc    ..S.    DCD    223545596
        0x0000513c:    84381000    ..8.    DCD    2218266624
        0x00005140:    088c03cb    ....    DCD    143393739
        0x00005144:    84510860    `.Q.    DCD    2219903072
        0x00005148:    e4070480    ....    DCD    3825665152
        0x0000514c:    84810000    ....    DCD    2223046656
        0x00005150:    4d0804a0    ...M    DCD    1292371104
        0x00005154:    84002047    G ..    DCD    2214600775
        0x00005158:    808b03db    ....    DCD    2156594139
        0x0000515c:    86810048    H...    DCD    2256601160
        0x00005160:    86ec01d9    ....    DCD    2263613913
        0x00005164:    0ded01c1    ....    DCD    233636289
        0x00005168:    08381000    ..8.    DCD    137891840
        0x0000516c:    84123cfc    .<..    DCD    2215787772
        0x00005170:    8457035b    [.W.    DCD    2220295003
        0x00005174:    8465034b    K.e.    DCD    2221212491
        0x00005178:    000404d2    ....    DCD    263378
        0x0000517c:    86ff2162    b!..    DCD    2264867170
        0x00005180:    0def01d1    ....    DCD    233767377
        0x00005184:    86201000    .. .    DCD    2250248192
        0x00005188:    86eb01c1    ....    DCD    2263548353
        0x0000518c:    08ea01c9    ....    DCD    149553609
        0x00005190:    02110644    D...    DCD    34670148
        0x00005194:    00060070    p...    DCD    393328
        0x00005198:    000422fe    ."..    DCD    271102
        0x0000519c:    79fd1200    ...y    DCD    2046628352
        0x000051a0:    00a30208    ....    DCD    10682888
        0x000051a4:    3cfc0819    ...<    DCD    1023150105
        0x000051a8:    04ca8471    q...    DCD    80381041
        0x000051ac:    01d18604    ....    DCD    30508548
        0x000051b0:    01a186ee    ....    DCD    27363054
        0x000051b4:    007002e9    ..p.    DCD    7340777
        0x000051b8:    8080e406    ....    DCD    2155930630
        0x000051bc:    00408800    ..@.    DCD    4229120
        0x000051c0:    f16ee681    ..n.    DCD    4050577025
        0x000051c4:    e06fe2b2    ..o.    DCD    3765428914
        0x000051c8:    11404d00    .M@.    DCD    289426688
        0x000051cc:    004048fa    .H@.    DCD    4212986
        0x000051d0:    13408800    ..@.    DCD    322996224
        0x000051d4:    1300885f    _...    DCD    318802015
        0x000051d8:    f171e262    b.q.    DCD    4050772578
        0x000051dc:    e073e6b1    ..s.    DCD    3765692081
        0x000051e0:    11404800    .H@.    DCD    289425408
        0x000051e4:    28fc08fc    ...(    DCD    687606012
        0x000051e8:    00404d51    QM@.    DCD    4214097
        0x000051ec:    13008800    ....    DCD    318801920
        0x000051f0:    04a08461    a...    DCD    77628513
        0x000051f4:    2010e009    ...     DCD    537976841
        0x000051f8:    00888800    ....    DCD    8947712
        0x000051fc:    03c98480    ....    DCD    63538304
        0x00005200:    01d9868d    ....    DCD    31032973
        0x00005204:    01d186e8    ....    DCD    30508776
        0x00005208:    10000de7    ....    DCD    268439015
        0x0000520c:    66440808    ..Df    DCD    1715734536
        0x00005210:    13408872    r.@.    DCD    322996338
        0x00005214:    0010e464    d...    DCD    1107044
        0x00005218:    13000082    ....    DCD    318767234
        0x0000521c:    ec0879fd    .y..    DCD    3959978493
        0x00005220:    88002010    . ..    DCD    2281709584
        0x00005224:    08800047    G...    DCD    142606407
        0x00005228:    843108fc    ..1.    DCD    2217806076
        0x0000522c:    e0a70381    ....    DCD    3769041793
        0x00005230:    e6810000    ....    DCD    3867213824
        0x00005234:    4800e075    u..H    DCD    1208017013
        0x00005238:    4dfb1140    @..M    DCD    1308299584
        0x0000523c:    88000040    @...    DCD    2281701440
        0x00005240:    84601300    ..`.    DCD    2220888832
        0x00005244:    868d03cb    ....    DCD    2257388491
        0x00005248:    84b301cb    ....    DCD    2226323915
        0x0000524c:    88370349    I.7.    DCD    2285306697
        0x00005250:    84631360    `.c.    DCD    2221085536
        0x00005254:    845f03c1    .._.    DCD    2220819393
        0x00005258:    086003c9    ..`.    DCD    140510153
        0x0000525c:    843108fc    ..1.    DCD    2217806076
        0x00005260:    846203d1    ..b.    DCD    2221016017
        0x00005264:    106103d9    ..a.    DCD    274793433
        0x00005268:    02221a00    ..".    DCD    35789312
        0x0000526c:    081000c3    ....    DCD    135266499
        0x00005270:    841248fc    .H..    DCD    2215790844
        0x00005274:    0c6403c1    ..d.    DCD    207881153
        0x00005278:    86110820     ...    DCD    2249263136
        0x0000527c:    e2a701a1    ....    DCD    3802595745
        0x00005280:    02008057    W...    DCD    33587287
        0x00005284:    841000db    ....    DCD    2215641307
        0x00005288:    f0e020da    . ..    DCD    4041220314
        0x0000528c:    f0a8311c    .1..    DCD    4037554460
        0x00005290:    02a9311c    .1..    DCD    44642588
        0x00005294:    00050078    x...    DCD    327800
        0x00005298:    79fd1400    ...y    DCD    2046628864
        0x0000529c:    311cf008    ...1    DCD    823980040
        0x000052a0:    311ff0aa    ...1    DCD    824176810
        0x000052a4:    1100e4ab    ....    DCD    285271211
        0x000052a8:    802780ae    ..'.    DCD    2150072494
        0x000052ac:    1100f4e1    ....    DCD    285275361
        0x000052b0:    311df4ac    ...1    DCD    824046764
        0x000052b4:    311cf4ad    ...1    DCD    823981229
        0x000052b8:    035184af    ..Q.    DCD    55674031
        0x000052bc:    311ff43f    ?..1    DCD    824177727
        0x000052c0:    01a186b0    ....    DCD    27362992
        0x000052c4:    806780a7    ..g.    DCD    2154266791
        0x000052c8:    180010e9    ....    DCD    402657513
        0x000052cc:    00c30202    ....    DCD    12780034
        0x000052d0:    2010e010    ...     DCD    537976848
        0x000052d4:    511cf000    ...Q    DCD    1360850944
        0x000052d8:    511cf0a8    ...Q    DCD    1360851112
        0x000052dc:    511cf0a9    ...Q    DCD    1360851113
        0x000052e0:    511ff0aa    ...Q    DCD    1361047722
        0x000052e4:    1100e4ab    ....    DCD    285271211
        0x000052e8:    802780ae    ..'.    DCD    2150072494
        0x000052ec:    1100f4e2    ....    DCD    285275362
        0x000052f0:    511df4ac    ...Q    DCD    1360917676
        0x000052f4:    511cf4ad    ...Q    DCD    1360852141
        0x000052f8:    511ff4af    ...Q    DCD    1361048751
        0x000052fc:    18fc08b0    ....    DCD    419170480
        0x00005300:    80678070    p.g.    DCD    2154266736
        0x00005304:    00d302ea    ....    DCD    13828842
        0x00005308:    04ca8410    ....    DCD    80380944
        0x0000530c:    04c2840d    ....    DCD    79856653
        0x00005310:    58fc080a    ...X    DCD    1492912138
        0x00005314:    15000031    1...    DCD    352321585
        0x00005318:    080879fd    .y..    DCD    134773245
        0x0000531c:    84000a00    ....    DCD    2214595072
        0x00005320:    080c04ca    ....    DCD    135005386
        0x00005324:    e4210a00    ..!.    DCD    3827370496
        0x00005328:    e09d1110    ....    DCD    3768389904
        0x0000532c:    ea002010    . ..    DCD    3925876752
        0x00005330:    02002065    e ..    DCD    33562725
        0x00005334:    ee1000cb    ....    DCD    3994026187
        0x00005338:    88000065    e...    DCD    2281701477
        0x0000533c:    09800007    ....    DCD    159383559
        0x00005340:    84210847    G.!.    DCD    2216757319
        0x00005344:    840b04da    ....    DCD    2215314650
        0x00005348:    842903cb    ..).    DCD    2217280459
        0x0000534c:    8437034b    K.7.    DCD    2218197835
        0x00005350:    023f0353    S.?.    DCD    37684051
        0x00005354:    02bc0258    X...    DCD    45875800
        0x00005358:    081000d3    ....    DCD    135266515
        0x0000535c:    0d5308fc    ..S.    DCD    223545596
        0x00005360:    08381000    ..8.    DCD    137891840
        0x00005364:    84510860    `.Q.    DCD    2219903072
        0x00005368:    e4070480    ....    DCD    3825665152
        0x0000536c:    84810000    ....    DCD    2223046656
        0x00005370:    4d0804a0    ...M    DCD    1292371104
        0x00005374:    80002047    G ..    DCD    2147491911
        0x00005378:    86810048    H...    DCD    2256601160
        0x0000537c:    86a301d1    ....    DCD    2258829777
        0x00005380:    84a401c1    ....    DCD    2225340865
        0x00005384:    0d2803db    ..(.    DCD    220726235
        0x00005388:    08301000    ..0.    DCD    137367552
        0x0000538c:    84133cfc    .<..    DCD    2215853308
        0x00005390:    000504da    ....    DCD    328922
        0x00005394:    79fd1600    ...y    DCD    2046629376
        0x00005398:    22620008    ..b"    DCD    576847880
        0x0000539c:    01d9867e    ~...    DCD    31032958
        0x000053a0:    10000da6    ....    DCD    268438950
        0x000053a4:    01c18620     ...    DCD    29460000
        0x000053a8:    01c986a2    ....    DCD    29984418
        0x000053ac:    064408a1    ..D.    DCD    105121953
        0x000053b0:    22fe0011    ..."    DCD    587071505
        0x000053b4:    00a30282    ....    DCD    10683010
        0x000053b8:    3cfc0819    ...<    DCD    1023150105
        0x000053bc:    04ca8451    Q...    DCD    80381009
        0x000053c0:    01d98605    ....    DCD    31032837
        0x000053c4:    01a186a5    ....    DCD    27362981
        0x000053c8:    a080e4a0    ....    DCD    2692801696
        0x000053cc:    00408800    ..@.    DCD    4229120
        0x000053d0:    28fc0881    ...(    DCD    687605889
        0x000053d4:    04a08471    q...    DCD    77628529
        0x000053d8:    2010e409    ...     DCD    537977865
        0x000053dc:    00c88800    ....    DCD    13142016
        0x000053e0:    03c98482    ....    DCD    63538306
        0x000053e4:    10000d2a    *...    DCD    268438826
        0x000053e8:    01d98648    H...    DCD    31032904
        0x000053ec:    01c1869f    ....    DCD    29460127
        0x000053f0:    6644089e    ..Df    DCD    1715734686
        0x000053f4:    02d98670    p...    DCD    47810160
        0x000053f8:    035184c0    ..Q.    DCD    55674048
        0x000053fc:    0349842d    -.I.    DCD    55149613
        0x00005400:    00fc002c    ,...    DCD    16515116
        0x00005404:    4010e400    ...@    DCD    1074848768
        0x00005408:    2010ec80    ...     DCD    537980032
        0x0000540c:    00478800    ..G.    DCD    4687872
        0x00005410:    17000080    ....    DCD    385876096
        0x00005414:    040879fd    .y..    DCD    67664381
        0x00005418:    84216981    .i!.    DCD    2216782209
        0x0000541c:    e40a04a0    ....    DCD    3825861792
        0x00005420:    84002010    . ..    DCD    2214600720
        0x00005424:    840c04a0    ....    DCD    2215380128
        0x00005428:    882a03cb    ..*.    DCD    2284454859
        0x0000542c:    10810040    @...    DCD    276889664
        0x00005430:    e4031a00    ....    DCD    3825408512
        0x00005434:    88000000    ....    DCD    2281701376
        0x00005438:    84800040    @...    DCD    2222981184
        0x0000543c:    0c0d04c8    ....    DCD    202179784
        0x00005440:    84090820     ...    DCD    2215184416
        0x00005444:    86bf0341    A...    DCD    2260665153
        0x00005448:    84c102c1    ....    DCD    2227241665
        0x0000544c:    84bc0281    ....    DCD    2226913921
        0x00005450:    86e00082    ....    DCD    2262827138
        0x00005454:    e0c202c9    ....    DCD    3770811081
        0x00005458:    84981200    ....    DCD    2224558592
        0x0000545c:    84e04082    .@..    DCD    2229289090
        0x00005460:    f00f0482    ....    DCD    4027516034
        0x00005464:    f099521c    .R..    DCD    4036579868
        0x00005468:    f09a521c    .R..    DCD    4036645404
        0x0000546c:    f09b521c    .R..    DCD    4036710940
        0x00005470:    e49c521f    .R..    DCD    3835449887
        0x00005474:    809f1200    ....    DCD    2157908480
        0x00005478:    f4e28027    '...    DCD    4108484647
        0x0000547c:    f49d1200    ....    DCD    4103934464
        0x00005480:    f49e521d    .R..    DCD    4104016413
        0x00005484:    f4a0521c    .R..    DCD    4104147484
        0x00005488:    8fa1521f    .R..    DCD    2409714207
        0x0000548c:    00000078    x...    DCD    120
        0x00005490:    79fd1800    ...y    DCD    2046629888
        0x00005494:    80678008    ..g.    DCD    2154266632
        0x00005498:    00d302e1    ....    DCD    13828833
        0x0000549c:    511d0c10    ...Q    DCD    1360858128
        0x000054a0:    46640844    D.dF    DCD    1180960836
        0x000054a4:    10000d50    P...    DCD    268438864
        0x000054a8:    66440818    ..Df    DCD    1715734552
        0x000054ac:    61c28470    p..a    DCD    1640137840
        0x000054b0:    1210e000    ....    DCD    303095808
        0x000054b4:    321cf0a2    ...2    DCD    840757410
        0x000054b8:    321cf0a3    ...2    DCD    840757411
        0x000054bc:    321cf0a4    ...2    DCD    840757412
        0x000054c0:    321ff0a5    ...2    DCD    840954021
        0x000054c4:    1200e4a6    ....    DCD    302048422
        0x000054c8:    802780a9    ..'.    DCD    2150072489
        0x000054cc:    1200f4e1    ....    DCD    302052577
        0x000054d0:    321df4a7    ...2    DCD    840823975
        0x000054d4:    321cf4a8    ...2    DCD    840758440
        0x000054d8:    321ff4aa    ...2    DCD    840955050
        0x000054dc:    035984ab    ..Y.    DCD    56198315
        0x000054e0:    806780b7    ..g.    DCD    2154266807
        0x000054e4:    1200e0e9    ....    DCD    302047465
        0x000054e8:    618284ac    ...a    DCD    1635943596
        0x000054ec:    60828400    ...`    DCD    1619166208
        0x000054f0:    721cf0e0    ...r    DCD    1914499296
        0x000054f4:    721cf0ad    ...r    DCD    1914499245
        0x000054f8:    721cf0ae    ...r    DCD    1914499246
        0x000054fc:    721ff0af    ...r    DCD    1914695855
        0x00005500:    1200e4b0    ....    DCD    302048432
        0x00005504:    802780b3    ..'.    DCD    2150072499
        0x00005508:    1200f4e3    ....    DCD    302052579
        0x0000550c:    190000b1    ....    DCD    419430577
        0x00005510:    f40879fd    .y..    DCD    4094196221
        0x00005514:    f4b2721d    .r..    DCD    4105335325
        0x00005518:    86b4721c    .r..    DCD    2259972636
        0x0000551c:    e0b502c1    ....    DCD    3769959105
        0x00005520:    f4b6f281    ....    DCD    4105630337
        0x00005524:    8680601f    .`..    DCD    2256560159
        0x00005528:    80b702a1    ....    DCD    2159477409
        0x0000552c:    84eb8067    g...    DCD    2230026343
        0x00005530:    f00e0482    ....    DCD    4027450498
        0x00005534:    f000001c    ....    DCD    4026531868
        0x00005538:    f0b8121c    ....    DCD    4038595100
        0x0000553c:    f0b9121c    ....    DCD    4038660636
        0x00005540:    e4ba121f    ....    DCD    3837399583
        0x00005544:    80bd1200    ....    DCD    2159874560
        0x00005548:    f4e08027    '...    DCD    4108353575
        0x0000554c:    e0bb1200    ....    DCD    3770356224
        0x00005550:    f481c081    ....    DCD    4102144129
        0x00005554:    f4bc121d    ....    DCD    4105966109
        0x00005558:    f4be121c    ....    DCD    4106097180
        0x0000555c:    84bf121f    ....    DCD    2227114527
        0x00005560:    882c034b    K.,.    DCD    2284585803
        0x00005564:    08810007    ....    DCD    142671879
        0x00005568:    80192dfc    .-..    DCD    2149133820
        0x0000556c:    02e88067    g...    DCD    48791655
        0x00005570:    8e1000d3    ....    DCD    2383413459
        0x00005574:    10bc02fd    ....    DCD    280756989
        0x00005578:    86011a00    ....    DCD    2248219136
        0x0000557c:    86c002d1    ....    DCD    2260730577
        0x00005580:    86c102c9    ....    DCD    2260796105
        0x00005584:    e2c202c1    ....    DCD    3804365505
        0x00005588:    0098b257    W...    DCD    10007127
        0x0000558c:    79fd1a00    ...y    DCD    2046630400
        0x00005590:    02a18608    ....    DCD    44140040
        0x00005594:    03538499    ..S.    DCD    55805081
        0x00005598:    035b842d    -.[.    DCD    56329261
        0x0000559c:    035184b7    ..Q.    DCD    55674039
        0x000055a0:    0359842f    /.Y.    DCD    56198191
        0x000055a4:    048284cf    ....    DCD    75662543
        0x000055a8:    03438410    ..C.    DCD    54756368
        0x000055ac:    408284bf    ...@    DCD    1082295487
        0x000055b0:    034184e0    ..A.    DCD    54625504
        0x000055b4:    6082842e    ...`    DCD    1619166254
        0x000055b8:    401cf0e0    ...@    DCD    1075638496
        0x000055bc:    521cf000    ...R    DCD    1377628160
        0x000055c0:    521cf09a    ...R    DCD    1377628314
        0x000055c4:    521ff09b    ...R    DCD    1377824923
        0x000055c8:    1200e49c    ....    DCD    302048412
        0x000055cc:    8027809f    ..'.    DCD    2150072479
        0x000055d0:    1200f4e2    ....    DCD    302052578
        0x000055d4:    521df49d    ...R    DCD    1377694877
        0x000055d8:    521cf49e    ...R    DCD    1377629342
        0x000055dc:    521ff4a0    ...R    DCD    1377825952
        0x000055e0:    02a186a1    ....    DCD    44140193
        0x000055e4:    806780a2    ..g.    DCD    2154266786
        0x000055e8:    035384ea    ..S.    DCD    55805162
        0x000055ec:    02fd8e2f    /...    DCD    50171439
        0x000055f0:    00308fbd    ..0.    DCD    3182525
        0x000055f4:    00db0200    ....    DCD    14352896
        0x000055f8:    111c0c10    ....    DCD    287050768
        0x000055fc:    6664086c    l.df    DCD    1717831788
        0x00005600:    10000d71    q...    DCD    268438897
        0x00005604:    46440830    0.DF    DCD    1178863664
        0x00005608:    1b000051    Q...    DCD    452984913
        0x0000560c:    840879fd    .y..    DCD    2215148029
        0x00005610:    e00041ca    .A..    DCD    3758113226
        0x00005614:    f0002010    . ..    DCD    4026540048
        0x00005618:    f0a3121c    ....    DCD    4037218844
        0x0000561c:    f0a4121c    ....    DCD    4037284380
        0x00005620:    f0a5121c    ....    DCD    4037349916
        0x00005624:    e4a6121f    ....    DCD    3836088863
        0x00005628:    80a91200    ....    DCD    2158563840
        0x0000562c:    f4e08027    '...    DCD    4108353575
        0x00005630:    f4a71200    ....    DCD    4104589824
        0x00005634:    f4a8121d    ....    DCD    4104655389
        0x00005638:    f4aa121c    ....    DCD    4104786460
        0x0000563c:    84ab121f    ....    DCD    2225803807
        0x00005640:    80c70351    Q...    DCD    2160526161
        0x00005644:    e0e88067    g...    DCD    3773333607
        0x00005648:    84ac1200    ....    DCD    2225869312
        0x0000564c:    84004182    .A..    DCD    2214609282
        0x00005650:    f0e04082    .@..    DCD    4041228418
        0x00005654:    f0ad521c    .R..    DCD    4037890588
        0x00005658:    f0ae521c    .R..    DCD    4037956124
        0x0000565c:    f0af521c    .R..    DCD    4038021660
        0x00005660:    e4b0521f    .R..    DCD    3836760607
        0x00005664:    80b31200    ....    DCD    2159219200
        0x00005668:    f4e28027    '...    DCD    4108484647
        0x0000566c:    f4b11200    ....    DCD    4105245184
        0x00005670:    f4b2521d    .R..    DCD    4105327133
        0x00005674:    86b4521c    .R..    DCD    2259964444
        0x00005678:    e0b502c9    ....    DCD    3769959113
        0x0000567c:    f4b61282    ....    DCD    4105572994
        0x00005680:    8681401f    .@..    DCD    2256617503
        0x00005684:    00b702a1    ....    DCD    11993761
        0x00005688:    79fd1c00    ...y    DCD    2046630912
        0x0000568c:    80678008    ..g.    DCD    2154266632
        0x00005690:    048284ea    ....    DCD    75662570
        0x00005694:    601cf011    ...`    DCD    1612509201
        0x00005698:    721cf000    ...r    DCD    1914499072
        0x0000569c:    721cf0b8    ...r    DCD    1914499256
        0x000056a0:    721ff0b9    ...r    DCD    1914695865
        0x000056a4:    1200e4ba    ....    DCD    302048442
        0x000056a8:    802780bd    ..'.    DCD    2150072509
        0x000056ac:    1200f4e3    ....    DCD    302052579
        0x000056b0:    721df4bb    ...r    DCD    1914565819
        0x000056b4:    721cf4bc    ...r    DCD    1914500284
        0x000056b8:    721ff4be    ...r    DCD    1914696894
        0x000056bc:    2082e0bf    ...     DCD    545448127
        0x000056c0:    80678080    ..g.    DCD    2154266752
        0x000056c4:    000788eb    ....    DCD    493803
        0x000056c8:    0dfc0880    ....    DCD    234621056
        0x000056cc:    00d30218    ....    DCD    13828632
        0x000056d0:    08600c10    ..`.    DCD    140512272
        0x000056d4:    03438440    @.C.    DCD    54756416
        0x000056d8:    0281842e    ....    DCD    42042414
        0x000056dc:    00a302bc    ....    DCD    10683068
        0x000056e0:    0000e410    ....    DCD    58384
        0x000056e4:    00830200    ....    DCD    8585728
        0x000056e8:    00a30218    ....    DCD    10682904
        0x000056ec:    13478810    ..G.    DCD    323454992
        0x000056f0:    0000e423    #...    DCD    58403
        0x000056f4:    13478800    ..G.    DCD    323454976
        0x000056f8:    02c98624    $...    DCD    46761508
        0x000056fc:    03c18495    ....    DCD    63014037
        0x00005700:    03538423    #.S.    DCD    55804963
        0x00005704:    1d0000c7    ....    DCD    486539463
        0x00005708:    840879fd    .y..    DCD    2215148029
        0x0000570c:    02cf035b    [...    DCD    47121243
        0x00005710:    02260340    @.&.    DCD    36045632
        0x00005714:    00f8ff11    ....    DCD    16318225
        0x00005718:    004e11ff    ..N.    DCD    5116415
        0x0000571c:    020000fc    ....    DCD    33554684
        0x00005720:    86270340    @.'.    DCD    2250703680
        0x00005724:    849502c9    ....    DCD    2224358089
        0x00005728:    002403c1    ..$.    DCD    2360257
        0x0000572c:    004e11ff    ..N.    DCD    5116415
        0x00005730:    860000fc    ....    DCD    2248147196
        0x00005734:    84fd01c9    ....    DCD    2231173577
        0x00005738:    02d003cb    ....    DCD    47186891
        0x0000573c:    842703c8    ..'.    DCD    2217149384
        0x00005740:    020004ca    ....    DCD    33555658
        0x00005744:    022403c8    ..$.    DCD    35914696
        0x00005748:    02260340    @.&.    DCD    36045632
        0x0000574c:    02230348    H.#.    DCD    35849032
        0x00005750:    84d00350    P...    DCD    2228224848
        0x00005754:    000104ca    ....    DCD    66762
        0x00005758:    008a23ff    .#..    DCD    9053183
        0x0000575c:    840000fc    ....    DCD    2214592764
        0x00005760:    e6bc02a1    ....    DCD    3871081121
        0x00005764:    02006064    d`..    DCD    33579108
        0x00005768:    85000028    (...    DCD    2231369768
        0x0000576c:    8480005a    Z...    DCD    2222981210
        0x00005770:    020002a0    ....    DCD    33555104
        0x00005774:    02010028    (...    DCD    33620008
        0x00005778:    841400cb    ....    DCD    2215903435
        0x0000577c:    020002a0    ....    DCD    33555104
        0x00005780:    001400d3    ....    DCD    1310931
        0x00005784:    79fd1e00    ...y    DCD    2046631424
        0x00005788:    00fc0808    ....    DCD    16517128
        0x0000578c:    12478831    1.G.    DCD    306677809
        0x00005790:    00fc08bc    ....    DCD    16517308
        0x00005794:    03a18450    P...    DCD    60916816
        0x00005798:    26fc0824    $..&    DCD    654051364
        0x0000579c:    06fc087a    z...    DCD    117180538
        0x000057a0:    a057e6f8    ..W.    DCD    2690115320
        0x000057a4:    02c98600    ....    DCD    46761472
        0x000057a8:    03c38496    ....    DCD    63145110
        0x000057ac:    03d384d1    ....    DCD    64193745
        0x000057b0:    124788d2    ..G.    DCD    306677970
        0x000057b4:    034002bd    ..@.    DCD    54526653
        0x000057b8:    11ff00d4    ....    DCD    301924564
        0x000057bc:    00fc004e    N...    DCD    16515150
        0x000057c0:    03400200    ..@.    DCD    54526464
        0x000057c4:    03c184d3    ....    DCD    63014099
        0x000057c8:    02c986d2    ....    DCD    46761682
        0x000057cc:    11ff0097    ....    DCD    301924503
        0x000057d0:    00fc004e    N...    DCD    16515150
        0x000057d4:    03400200    ..@.    DCD    54526464
        0x000057d8:    034802d4    ..H.    DCD    55050964
        0x000057dc:    035002d3    ..P.    DCD    55575251
        0x000057e0:    11ff00da    ....    DCD    301924570
        0x000057e4:    00fc0055    U...    DCD    16515157
        0x000057e8:    02500200    ..P.    DCD    38797824
        0x000057ec:    03c802bd    ....    DCD    63439549
        0x000057f0:    045284da    ..R.    DCD    72516826
        0x000057f4:    02fd8e00    ....    DCD    50171392
        0x000057f8:    04ca84bc    ....    DCD    80381116
        0x000057fc:    10ff0001    ....    DCD    285147137
        0x00005800:    1f0000b0    ....    DCD    520093872
        0x00005804:    8c0879fd    .y..    DCD    2349365757
        0x00005808:    840021fe    .!..    DCD    2214601214
        0x0000580c:    00060400    ....    DCD    394240
        0x00005810:    020000fc    ....    DCD    33554684
        0x00005814:    000000c0    ....    DCD    192
        0x00005818:    8f0050fc    .P..    DCD    2399162620
        0x0000581c:    84120000    ....    DCD    2215772160
        0x00005820:    e06603a1    ..f.    DCD    3764781985
        0x00005824:    02000020     ...    DCD    33554464
        0x00005828:    400060d2    .`.@    DCD    1073766610
        0x0000582c:    8000a040    @...    DCD    2147524672
        0x00005830:    0880c000    ....    DCD    142655488
        0x00005834:    083808fc    ..8.    DCD    137890044
        0x00005838:    8f1158fc    .X..    DCD    2400278780
        0x0000583c:    e0ffff00    ....    DCD    3774873344
        0x00005840:    84002010    . ..    DCD    2214600720
        0x00005844:    84010458    X...    DCD    2214659160
        0x00005848:    846803a1    ..h.    DCD    2221409185
        0x0000584c:    e46703c1    ..g.    DCD    3831956417
        0x00005850:    860000e0    ....    DCD    2248147168
        0x00005854:    459b01c9    ...E    DCD    1167786441
        0x00005858:    8000a040    @...    DCD    2147524672
        0x0000585c:    0883c040    @...    DCD    142852160
        0x00005860:    083b68fc    .h;.    DCD    138111228
        0x00005864:    847258fc    .Xr.    DCD    2222086396
        0x00005868:    e4020440    @...    DCD    3825337408
        0x0000586c:    84004010    .@..    DCD    2214608912
        0x00005870:    400041a0    .A.@    DCD    1073758624
        0x00005874:    02002047    G ..    DCD    33562695
        0x00005878:    081000d3    ....    DCD    135266515
        0x0000587c:    00432800    .(C.    DCD    4401152
        0x00005880:    79fd2000    . .y    DCD    2046631936
        0x00005884:    c0008008    ....    DCD    3221258248
        0x00005888:    10000d82    ....    DCD    268438914
        0x0000588c:    20474140    @AG     DCD    541540672
        0x00005890:    03db8400    ....    DCD    64717824
        0x00005894:    01d98666    f...    DCD    31032934
        0x00005898:    5cfc089c    ...\    DCD    1560021148
        0x0000589c:    66440812    ..Df    DCD    1715734546
        0x000058a0:    04828471    q...    DCD    75662449
        0x000058a4:    00fc0000    ....    DCD    16515072
        0x000058a8:    00830200    ....    DCD    8585728
        0x000058ac:    c000801a    ....    DCD    3221258266
        0x000058b0:    0000e082    ....    DCD    57474
        0x000058b4:    03c98481    ....    DCD    63538305
        0x000058b8:    10000d69    i...    DCD    268438889
        0x000058bc:    5cfc0848    H..\    DCD    1560021064
        0x000058c0:    00fc0032    2...    DCD    16515122
        0x000058c4:    00a30200    ....    DCD    10682880
        0x000058c8:    01d1861a    ....    DCD    30508570
        0x000058cc:    6644089b    ..Df    DCD    1715734683
        0x000058d0:    00078072    r...    DCD    491634
        0x000058d4:    0c600c83    ..`.    DCD    207621251
        0x000058d8:    04d88418    ....    DCD    81298456
        0x000058dc:    4010e000    ...@    DCD    1074847744
        0x000058e0:    00078000    ....    DCD    491520
        0x000058e4:    28000882    ...(    DCD    671090818
        0x000058e8:    0c200c63    c. .    DCD    203426915
        0x000058ec:    03db8431    1...    DCD    64717873
        0x000058f0:    03cb8468    h...    DCD    63669352
        0x000058f4:    03c38469    i...    DCD    63145065
        0x000058f8:    50fc0067    g..P    DCD    1358692455
        0x000058fc:    21000000    ...!    DCD    553648128
        0x00005900:    8f0805fd    ....    DCD    2399667709
        0x00005904:    00010000    ....    DCD    65536
        0x00005908:    787f0000    ...x    DCD    2021588992
        0x0000590c:    15fd1800    ....    DCD    368908288
        0x00005910:    00000030    0...    DCD    48
        0x00005914:    00000000    ....    DCD    0
        0x00005918:    00000000    ....    DCD    0
        0x0000591c:    00000000    ....    DCD    0
        0x00005920:    00000000    ....    DCD    0
        0x00005924:    00000000    ....    DCD    0
        0x00005928:    1b00787f    .x..    DCD    453015679
        0x0000592c:    007809fd    ..x.    DCD    7866877
        0x00005930:    00000000    ....    DCD    0
        0x00005934:    00000000    ....    DCD    0
        0x00005938:    35fd1c00    ...5    DCD    905780224
        0x0000593c:    00800008    ....    DCD    8388616
        0x00005940:    00000000    ....    DCD    0
        0x00005944:    03000000    ....    DCD    50331648
        0x00005948:    03000030    0...    DCD    50331696
        0x0000594c:    03000038    8...    DCD    50331704
        0x00005950:    03000040    @...    DCD    50331712
        0x00005954:    00000048    H...    DCD    72
        0x00005958:    00000000    ....    DCD    0
        0x0000595c:    00000000    ....    DCD    0
        0x00005960:    00000000    ....    DCD    0
        0x00005964:    00000000    ....    DCD    0
        0x00005968:    00000000    ....    DCD    0
        0x0000596c:    00000000    ....    DCD    0
        0x00005970:    00000000    ....    DCD    0
        0x00005974:    1c00787f    .x..    DCD    469792895
        0x00005978:    003c21fd    .!<.    DCD    3940861
        0x0000597c:    00500300    ..P.    DCD    5243648
        0x00005980:    00000000    ....    DCD    0
        0x00005984:    00000000    ....    DCD    0
        0x00005988:    00000000    ....    DCD    0
        0x0000598c:    00000000    ....    DCD    0
        0x00005990:    00000000    ....    DCD    0
        0x00005994:    00000000    ....    DCD    0
        0x00005998:    00000000    ....    DCD    0
        0x0000599c:    787f0000    ...x    DCD    2021588992
        0x000059a0:    21fd1c00    ...!    DCD    570235904
        0x000059a4:    0300005c    \...    DCD    50331740
        0x000059a8:    00000058    X...    DCD    88
        0x000059ac:    00000000    ....    DCD    0
        0x000059b0:    00000000    ....    DCD    0
        0x000059b4:    00000000    ....    DCD    0
        0x000059b8:    00000000    ....    DCD    0
        0x000059bc:    00000000    ....    DCD    0
        0x000059c0:    00000000    ....    DCD    0
        0x000059c4:    00000000    ....    DCD    0
        0x000059c8:    1c00787f    .x..    DCD    469792895
        0x000059cc:    007c05fd    ..|.    DCD    8127997
        0x000059d0:    00700300    ..p.    DCD    7340800
        0x000059d4:    1dfd1d00    ....    DCD    503127296
        0x000059d8:    00000008    ....    DCD    8
        0x000059dc:    00000000    ....    DCD    0
        0x000059e0:    00000000    ....    DCD    0
        0x000059e4:    00000000    ....    DCD    0
        0x000059e8:    00000000    ....    DCD    0
        0x000059ec:    00000000    ....    DCD    0
        0x000059f0:    00000000    ....    DCD    0
        0x000059f4:    00000000    ....    DCD    0
        0x000059f8:    1d00787f    .x..    DCD    486570111
        0x000059fc:    002421fd    .!$.    DCD    2367997
        0x00005a00:    00780300    ..x.    DCD    7865088
        0x00005a04:    00000000    ....    DCD    0
        0x00005a08:    00000000    ....    DCD    0
        0x00005a0c:    00000000    ....    DCD    0
        0x00005a10:    00000000    ....    DCD    0
        0x00005a14:    00000000    ....    DCD    0
        0x00005a18:    00000000    ....    DCD    0
        0x00005a1c:    00000000    ....    DCD    0
        0x00005a20:    787f0000    ...x    DCD    2021588992
        0x00005a24:    39fd1d00    ...9    DCD    972889344
        0x00005a28:    03000044    D...    DCD    50331716
        0x00005a2c:    00000080    ....    DCD    128
        0x00005a30:    00000000    ....    DCD    0
        0x00005a34:    00000000    ....    DCD    0
        0x00005a38:    00000000    ....    DCD    0
        0x00005a3c:    00000000    ....    DCD    0
        0x00005a40:    00000000    ....    DCD    0
        0x00005a44:    00000000    ....    DCD    0
        0x00005a48:    00000000    ....    DCD    0
        0x00005a4c:    00000000    ....    DCD    0
        0x00005a50:    00000000    ....    DCD    0
        0x00005a54:    00000000    ....    DCD    0
        0x00005a58:    00000000    ....    DCD    0
        0x00005a5c:    00000000    ....    DCD    0
        0x00005a60:    00000000    ....    DCD    0
        0x00005a64:    1d00787f    .x..    DCD    486570111
        0x00005a68:    007c05fd    ..|.    DCD    8127997
        0x00005a6c:    00900300    ....    DCD    9437952
        0x00005a70:    11fd1e00    ....    DCD    301800960
        0x00005a74:    00000008    ....    DCD    8
        0x00005a78:    00000000    ....    DCD    0
        0x00005a7c:    00000000    ....    DCD    0
        0x00005a80:    00000000    ....    DCD    0
        0x00005a84:    00000000    ....    DCD    0
        0x00005a88:    1e00787f    .x..    DCD    503347327
        0x00005a8c:    001869fd    .i..    DCD    1599997
        0x00005a90:    00a00300    ....    DCD    10486528
        0x00005a94:    00a80300    ....    DCD    11010816
        0x00005a98:    00000000    ....    DCD    0
        0x00005a9c:    00000000    ....    DCD    0
        0x00005aa0:    00000080    ....    DCD    128
        0x00005aa4:    00000000    ....    DCD    0
        0x00005aa8:    00000000    ....    DCD    0
        0x00005aac:    00000000    ....    DCD    0
        0x00005ab0:    00000000    ....    DCD    0
        0x00005ab4:    00000000    ....    DCD    0
        0x00005ab8:    00000000    ....    DCD    0
        0x00005abc:    00000000    ....    DCD    0
        0x00005ac0:    00000000    ....    DCD    0
        0x00005ac4:    00000000    ....    DCD    0
        0x00005ac8:    00000000    ....    DCD    0
        0x00005acc:    00000000    ....    DCD    0
        0x00005ad0:    00000000    ....    DCD    0
        0x00005ad4:    00000000    ....    DCD    0
        0x00005ad8:    00000000    ....    DCD    0
        0x00005adc:    00000000    ....    DCD    0
        0x00005ae0:    00000000    ....    DCD    0
        0x00005ae4:    00000000    ....    DCD    0
        0x00005ae8:    00000000    ....    DCD    0
        0x00005aec:    00000000    ....    DCD    0
        0x00005af0:    00000000    ....    DCD    0
        0x00005af4:    00000000    ....    DCD    0
        0x00005af8:    1dfd1f00    ....    DCD    503127808
        0x00005afc:    00000008    ....    DCD    8
        0x00005b00:    00000000    ....    DCD    0
        0x00005b04:    00000000    ....    DCD    0
        0x00005b08:    00000000    ....    DCD    0
        0x00005b0c:    00000000    ....    DCD    0
        0x00005b10:    00000000    ....    DCD    0
        0x00005b14:    00000000    ....    DCD    0
        0x00005b18:    00000000    ....    DCD    0
        0x00005b1c:    1f00787f    .x..    DCD    520124543
        0x00005b20:    002441fd    .A$.    DCD    2376189
        0x00005b24:    00000000    ....    DCD    0
        0x00005b28:    00000000    ....    DCD    0
        0x00005b2c:    00000080    ....    DCD    128
        0x00005b30:    00000000    ....    DCD    0
        0x00005b34:    00000000    ....    DCD    0
        0x00005b38:    00000000    ....    DCD    0
        0x00005b3c:    00000000    ....    DCD    0
        0x00005b40:    00000000    ....    DCD    0
        0x00005b44:    00000000    ....    DCD    0
        0x00005b48:    00000000    ....    DCD    0
        0x00005b4c:    00000000    ....    DCD    0
        0x00005b50:    00000000    ....    DCD    0
        0x00005b54:    00000000    ....    DCD    0
        0x00005b58:    00000000    ....    DCD    0
        0x00005b5c:    00000000    ....    DCD    0
        0x00005b60:    00000000    ....    DCD    0
        0x00005b64:    787f0000    ...x    DCD    2021588992
        0x00005b68:    1dfd1f00    ....    DCD    503127808
        0x00005b6c:    00000064    d...    DCD    100
        0x00005b70:    00000000    ....    DCD    0
        0x00005b74:    00800000    ....    DCD    8388608
        0x00005b78:    00000000    ....    DCD    0
        0x00005b7c:    00000000    ....    DCD    0
        0x00005b80:    00000000    ....    DCD    0
        0x00005b84:    00000000    ....    DCD    0
        0x00005b88:    20000000    ...     DCD    536870912
        0x00005b8c:    000855fd    .U..    DCD    546301
        0x00005b90:    00000000    ....    DCD    0
        0x00005b94:    00000000    ....    DCD    0
        0x00005b98:    00000000    ....    DCD    0
        0x00005b9c:    00000000    ....    DCD    0
        0x00005ba0:    00000000    ....    DCD    0
        0x00005ba4:    00000000    ....    DCD    0
        0x00005ba8:    00000000    ....    DCD    0
        0x00005bac:    00000000    ....    DCD    0
        0x00005bb0:    00000000    ....    DCD    0
        0x00005bb4:    00000000    ....    DCD    0
        0x00005bb8:    00000000    ....    DCD    0
        0x00005bbc:    00000000    ....    DCD    0
        0x00005bc0:    00000000    ....    DCD    0
        0x00005bc4:    00000000    ....    DCD    0
        0x00005bc8:    00000000    ....    DCD    0
        0x00005bcc:    00000000    ....    DCD    0
        0x00005bd0:    00000000    ....    DCD    0
        0x00005bd4:    00000000    ....    DCD    0
        0x00005bd8:    00000000    ....    DCD    0
        0x00005bdc:    00000000    ....    DCD    0
        0x00005be0:    00000000    ....    DCD    0
        0x00005be4:    787f0000    ...x    DCD    2021588992
        0x00005be8:    21fd2000    . .!    DCD    570236928
        0x00005bec:    0300005c    \...    DCD    50331740
        0x00005bf0:    000000b0    ....    DCD    176
        0x00005bf4:    00000000    ....    DCD    0
        0x00005bf8:    00000000    ....    DCD    0
        0x00005bfc:    00000000    ....    DCD    0
        0x00005c00:    00000000    ....    DCD    0
        0x00005c04:    00000000    ....    DCD    0
        0x00005c08:    00000000    ....    DCD    0
        0x00005c0c:    00000000    ....    DCD    0
        0x00005c10:    2000787f    .x.     DCD    536901759
        0x00005c14:    007c05fd    ..|.    DCD    8127997
        0x00005c18:    00b80300    ....    DCD    12059392
        0x00005c1c:    1dfd2100    .!..    DCD    503128320
        0x00005c20:    00000008    ....    DCD    8
        0x00005c24:    00000000    ....    DCD    0
        0x00005c28:    00000000    ....    DCD    0
        0x00005c2c:    00000000    ....    DCD    0
        0x00005c30:    00000000    ....    DCD    0
        0x00005c34:    00000000    ....    DCD    0
        0x00005c38:    00000000    ....    DCD    0
        0x00005c3c:    00000000    ....    DCD    0
        0x00005c40:    2100787f    .x.!    DCD    553678975
        0x00005c44:    002421fd    .!$.    DCD    2367997
        0x00005c48:    00c00300    ....    DCD    12583680
        0x00005c4c:    00000000    ....    DCD    0
        0x00005c50:    00000000    ....    DCD    0
        0x00005c54:    00000000    ....    DCD    0
        0x00005c58:    00000000    ....    DCD    0
        0x00005c5c:    00000000    ....    DCD    0
        0x00005c60:    00000000    ....    DCD    0
        0x00005c64:    00000000    ....    DCD    0
        0x00005c68:    787f0000    ...x    DCD    2021588992
        0x00005c6c:    39fd2100    .!.9    DCD    972890368
        0x00005c70:    03000044    D...    DCD    50331716
        0x00005c74:    000000c8    ....    DCD    200
        0x00005c78:    00000000    ....    DCD    0
        0x00005c7c:    00000000    ....    DCD    0
        0x00005c80:    00000000    ....    DCD    0
        0x00005c84:    00000000    ....    DCD    0
        0x00005c88:    00000000    ....    DCD    0
        0x00005c8c:    00000000    ....    DCD    0
        0x00005c90:    00000000    ....    DCD    0
        0x00005c94:    00000000    ....    DCD    0
        0x00005c98:    00000000    ....    DCD    0
        0x00005c9c:    00000000    ....    DCD    0
        0x00005ca0:    00000000    ....    DCD    0
        0x00005ca4:    00000000    ....    DCD    0
        0x00005ca8:    00000000    ....    DCD    0
        0x00005cac:    2100787f    .x.!    DCD    553678975
        0x00005cb0:    007c05fd    ..|.    DCD    8127997
        0x00005cb4:    00e00300    ....    DCD    14680832
        0x00005cb8:    25fd2200    .".%    DCD    637346304
        0x00005cbc:    03000008    ....    DCD    50331656
        0x00005cc0:    030000e8    ....    DCD    50331880
        0x00005cc4:    000000f0    ....    DCD    240
        0x00005cc8:    00000000    ....    DCD    0
        0x00005ccc:    00000000    ....    DCD    0
        0x00005cd0:    00000000    ....    DCD    0
        0x00005cd4:    00000000    ....    DCD    0
        0x00005cd8:    00000000    ....    DCD    0
        0x00005cdc:    00000000    ....    DCD    0
        0x00005ce0:    00000000    ....    DCD    0
        0x00005ce4:    2200787f    .x."    DCD    570456191
        0x00005ce8:    002c19fd    ..,.    DCD    2890237
        0x00005cec:    00f80300    ....    DCD    16253696
        0x00005cf0:    00000000    ....    DCD    0
        0x00005cf4:    00000000    ....    DCD    0
        0x00005cf8:    00000000    ....    DCD    0
        0x00005cfc:    00000000    ....    DCD    0
        0x00005d00:    00000000    ....    DCD    0
        0x00005d04:    787f0000    ...x    DCD    2021588992
        0x00005d08:    21fd2200    .".!    DCD    570237440
        0x00005d0c:    04000044    D...    DCD    67108932
        0x00005d10:    04000000    ....    DCD    67108864
        0x00005d14:    04000008    ....    DCD    67108872
        0x00005d18:    00000010    ....    DCD    16
        0x00005d1c:    00000000    ....    DCD    0
        0x00005d20:    00000000    ....    DCD    0
        0x00005d24:    00000000    ....    DCD    0
        0x00005d28:    00000000    ....    DCD    0
        0x00005d2c:    00000000    ....    DCD    0
        0x00005d30:    2200787f    .x."    DCD    570456191
        0x00005d34:    00641dfd    ..d.    DCD    6561277
        0x00005d38:    00180400    ....    DCD    1573888
        0x00005d3c:    00200400    .. .    DCD    2098176
        0x00005d40:    00280400    ..(.    DCD    2622464
        0x00005d44:    00000000    ....    DCD    0
        0x00005d48:    00000000    ....    DCD    0
        0x00005d4c:    00000000    ....    DCD    0
        0x00005d50:    00000000    ....    DCD    0
        0x00005d54:    05fd2300    .#..    DCD    100475648
        0x00005d58:    00000008    ....    DCD    8
        0x00005d5c:    00000000    ....    DCD    0
        0x00005d60:    2300787f    .x.#    DCD    587233407
        0x00005d64:    000c29fd    .)..    DCD    797181
        0x00005d68:    00300400    ..0.    DCD    3146752
        0x00005d6c:    00380400    ..8.    DCD    3671040
        0x00005d70:    00400400    ..@.    DCD    4195328
        0x00005d74:    00000000    ....    DCD    0
        0x00005d78:    00000000    ....    DCD    0
        0x00005d7c:    00000000    ....    DCD    0
        0x00005d80:    00000000    ....    DCD    0
        0x00005d84:    00000000    ....    DCD    0
        0x00005d88:    00000000    ....    DCD    0
        0x00005d8c:    00000000    ....    DCD    0
        0x00005d90:    8c7f0000    ....    DCD    2357133312
        0x00005d94:    25fd0e00    ...%    DCD    637341184
        0x00005d98:    c420005c    \. .    DCD    3290431580
        0x00005d9c:    c420009c    .. .    DCD    3290431644
        0x00005da0:    ffff7f9c    ....    DCD    4294934428
        0x00005da4:    ffff7fff    ....    DCD    4294934527
        0x00005da8:    ffff7fff    ....    DCD    4294934527
        0x00005dac:    000000ff    ....    DCD    255
        0x00005db0:    00000000    ....    DCD    0
        0x00005db4:    00000000    ....    DCD    0
        0x00005db8:    0000e700    ....    DCD    59136
        0x00005dbc:    0f000000    ....    DCD    251658240
        0x00005dc0:    fe0879fd    .y..    DCD    4261968381
        0x00005dc4:    00000080    ....    DCD    128
        0x00005dc8:    00000000    ....    DCD    0
        0x00005dcc:    08000000    ....    DCD    134217728
        0x00005dd0:    00000000    ....    DCD    0
        0x00005dd4:    00000000    ....    DCD    0
        0x00005dd8:    00000000    ....    DCD    0
        0x00005ddc:    00000000    ....    DCD    0
        0x00005de0:    08000000    ....    DCD    134217728
        0x00005de4:    00000000    ....    DCD    0
        0x00005de8:    00000000    ....    DCD    0
        0x00005dec:    00000000    ....    DCD    0
        0x00005df0:    00000000    ....    DCD    0
        0x00005df4:    00000000    ....    DCD    0
        0x00005df8:    00000080    ....    DCD    128
        0x00005dfc:    00000080    ....    DCD    128
        0x00005e00:    08000080    ....    DCD    134217856
        0x00005e04:    00000000    ....    DCD    0
        0x00005e08:    00000000    ....    DCD    0
        0x00005e0c:    00000000    ....    DCD    0
        0x00005e10:    00000000    ....    DCD    0
        0x00005e14:    08000000    ....    DCD    134217728
        0x00005e18:    00000000    ....    DCD    0
        0x00005e1c:    00000000    ....    DCD    0
        0x00005e20:    00000000    ....    DCD    0
        0x00005e24:    00000000    ....    DCD    0
        0x00005e28:    00000000    ....    DCD    0
        0x00005e2c:    00fd5a65    eZ..    DCD    16603749
        0x00005e30:    00fbb5ca    ....    DCD    16496074
        0x00005e34:    0afd5a65    eZ..    DCD    184375909
        0x00005e38:    00edaf3c    <...    DCD    15576892
        0x00005e3c:    79fd1000    ...y    DCD    2046627840
        0x00005e40:    e42dfc08    ..-.    DCD    3828218888
        0x00005e44:    5a65001d    ..eZ    DCD    1516568605
        0x00005e48:    b5ca00fd    ....    DCD    3049914621
        0x00005e4c:    5a6500fb    ..eZ    DCD    1516568827
        0x00005e50:    af3c0afd    ..<.    DCD    2939947773
        0x00005e54:    e42dfced    ..-.    DCD    3828219117
        0x00005e58:    0000081d    ....    DCD    2077
        0x00005e5c:    00000000    ....    DCD    0
        0x00005e60:    00000000    ....    DCD    0
        0x00005e64:    00000000    ....    DCD    0
        0x00005e68:    00000000    ....    DCD    0
        0x00005e6c:    00000800    ....    DCD    2048
        0x00005e70:    00000000    ....    DCD    0
        0x00005e74:    00000000    ....    DCD    0
        0x00005e78:    00000000    ....    DCD    0
        0x00005e7c:    00000000    ....    DCD    0
        0x00005e80:    00000800    ....    DCD    2048
        0x00005e84:    00000000    ....    DCD    0
        0x00005e88:    00000000    ....    DCD    0
        0x00005e8c:    00000000    ....    DCD    0
        0x00005e90:    00000000    ....    DCD    0
        0x00005e94:    00000800    ....    DCD    2048
        0x00005e98:    00000000    ....    DCD    0
        0x00005e9c:    00000000    ....    DCD    0
        0x00005ea0:    00000000    ....    DCD    0
        0x00005ea4:    00000000    ....    DCD    0
        0x00005ea8:    ffff7f00    ....    DCD    4294934272
        0x00005eac:    ffff7fff    ....    DCD    4294934527
        0x00005eb0:    ffff7fff    ....    DCD    4294934527
        0x00005eb4:    000000ff    ....    DCD    255
        0x00005eb8:    11000000    ....    DCD    285212672
        0x00005ebc:    000879fd    .y..    DCD    555517
        0x00005ec0:    00000000    ....    DCD    0
        0x00005ec4:    f9000000    ....    DCD    4177526784
        0x00005ec8:    fc21bcda    ..!.    DCD    4230069466
        0x00005ecc:    00898b58    X...    DCD    9014104
        0x00005ed0:    00000000    ....    DCD    0
        0x00005ed4:    7f000000    ....    DCD    2130706432
        0x00005ed8:    7fffffff    ....    DCD    2147483647
        0x00005edc:    7fffffff    ....    DCD    2147483647
        0x00005ee0:    00ffffff    ....    DCD    16777215
        0x00005ee4:    00000000    ....    DCD    0
        0x00005ee8:    00000000    ....    DCD    0
        0x00005eec:    f9000000    ....    DCD    4177526784
        0x00005ef0:    fc21bcda    ..!.    DCD    4230069466
        0x00005ef4:    00898b58    X...    DCD    9014104
        0x00005ef8:    00000000    ....    DCD    0
        0x00005efc:    7f000000    ....    DCD    2130706432
        0x00005f00:    7fffffff    ....    DCD    2147483647
        0x00005f04:    7fffffff    ....    DCD    2147483647
        0x00005f08:    00ffffff    ....    DCD    16777215
        0x00005f0c:    00000000    ....    DCD    0
        0x00005f10:    00000000    ....    DCD    0
        0x00005f14:    f9000000    ....    DCD    4177526784
        0x00005f18:    fc21bcda    ..!.    DCD    4230069466
        0x00005f1c:    00898b58    X...    DCD    9014104
        0x00005f20:    00000000    ....    DCD    0
        0x00005f24:    00000000    ....    DCD    0
        0x00005f28:    00000000    ....    DCD    0
        0x00005f2c:    00000000    ....    DCD    0
        0x00005f30:    7f000080    ....    DCD    2130706560
        0x00005f34:    00ffffff    ....    DCD    16777215
        0x00005f38:    8c7f0000    ....    DCD    2357133312
        0x00005f3c:    75fd1700    ...u    DCD    1979520768
        0x00005f40:    26a7000c    ...&    DCD    648478732
        0x00005f44:    0000204a    J ..    DCD    8266
        0x00005f48:    00002000    . ..    DCD    8192
        0x00005f4c:    48620000    ..bH    DCD    1214382080
        0x00005f50:    e983ff8e    ....    DCD    3917741966
        0x00005f54:    182e0030    0...    DCD    405667888
        0x00005f58:    ae400f72    r.@.    DCD    2923433842
        0x00005f5c:    419af81f    ...A    DCD    1100675103
        0x00005f60:    ffff07d5    ....    DCD    4294903765
        0x00005f64:    000000ff    ....    DCD    255
        0x00005f68:    00000000    ....    DCD    0
        0x00005f6c:    00000000    ....    DCD    0
        0x00005f70:    00000000    ....    DCD    0
        0x00005f74:    ffff0700    ....    DCD    4294903552
        0x00005f78:    51bff0ff    ...Q    DCD    1371533567
        0x00005f7c:    be6507e1    ..e.    DCD    3194292193
        0x00005f80:    bb190a2b    +...    DCD    3138980395
        0x00005f84:    793ffc39    9.?y    DCD    2034236473
        0x00005f88:    ffff07e8    ....    DCD    4294903784
        0x00005f8c:    000000ff    ....    DCD    255
        0x00005f90:    00000000    ....    DCD    0
        0x00005f94:    00000000    ....    DCD    0
        0x00005f98:    00000000    ....    DCD    0
        0x00005f9c:    795c0000    ..\y    DCD    2036072448
        0x00005fa0:    f2b80055    U...    DCD    4072144981
        0x00005fa4:    795c00ab    ..\y    DCD    2036072619
        0x00005fa8:    cc980d55    U...    DCD    3432516949
        0x00005fac:    2b16fa51    Q..+    DCD    722926161
        0x00005fb0:    795c0095    ..\y    DCD    2036072597
        0x00005fb4:    18000055    U...    DCD    402653269
        0x00005fb8:    000879fd    .y..    DCD    555517
        0x00005fbc:    00abf2b8    ....    DCD    11268792
        0x00005fc0:    0d55795c    \yU.    DCD    223705436
        0x00005fc4:    fa51cc98    ..Q.    DCD    4199664792
        0x00005fc8:    06952b16    .+..    DCD    110439190
        0x00005fcc:    f22fa8e0    ../.    DCD    4063209696
        0x00005fd0:    06a2af3e    >...    DCD    111324990
        0x00005fd4:    0d2fa8e0    ../.    DCD    221227232
        0x00005fd8:    fa51cc98    ..Q.    DCD    4199664792
        0x00005fdc:    06952b16    .+..    DCD    110439190
        0x00005fe0:    f22fa8e0    ../.    DCD    4063209696
        0x00005fe4:    06a2af3e    >...    DCD    111324990
        0x00005fe8:    0d2fa8e0    ../.    DCD    221227232
        0x00005fec:    fa51cc98    ..Q.    DCD    4199664792
        0x00005ff0:    02952b16    .+..    DCD    43330326
        0x00005ff4:    fd99994d    M...    DCD    4254701901
        0x00005ff8:    006766b2    .fg.    DCD    6776498
        0x00005ffc:    08000080    ....    DCD    134217856
        0x00006000:    00000000    ....    DCD    0
        0x00006004:    00000000    ....    DCD    0
        0x00006008:    00000000    ....    DCD    0
        0x0000600c:    00000000    ....    DCD    0
        0x00006010:    08000000    ....    DCD    134217728
        0x00006014:    00000000    ....    DCD    0
        0x00006018:    00000000    ....    DCD    0
        0x0000601c:    00000000    ....    DCD    0
        0x00006020:    00000000    ....    DCD    0
        0x00006024:    00000000    ....    DCD    0
        0x00006028:    08000000    ....    DCD    134217728
        0x0000602c:    00000000    ....    DCD    0
        0x00006030:    00000000    ....    DCD    0
        0x00006034:    79fd1900    ...y    DCD    2046630144
        0x00006038:    00000008    ....    DCD    8
        0x0000603c:    00000000    ....    DCD    0
        0x00006040:    00000000    ....    DCD    0
        0x00006044:    00000800    ....    DCD    2048
        0x00006048:    00000000    ....    DCD    0
        0x0000604c:    00000000    ....    DCD    0
        0x00006050:    00000000    ....    DCD    0
        0x00006054:    00000000    ....    DCD    0
        0x00006058:    00000800    ....    DCD    2048
        0x0000605c:    00000000    ....    DCD    0
        0x00006060:    00000000    ....    DCD    0
        0x00006064:    00000000    ....    DCD    0
        0x00006068:    00000000    ....    DCD    0
        0x0000606c:    00000800    ....    DCD    2048
        0x00006070:    00000000    ....    DCD    0
        0x00006074:    00000000    ....    DCD    0
        0x00006078:    00000000    ....    DCD    0
        0x0000607c:    00000000    ....    DCD    0
        0x00006080:    00000800    ....    DCD    2048
        0x00006084:    00000000    ....    DCD    0
        0x00006088:    00000000    ....    DCD    0
        0x0000608c:    00000000    ....    DCD    0
        0x00006090:    00000000    ....    DCD    0
        0x00006094:    00000800    ....    DCD    2048
        0x00006098:    00000000    ....    DCD    0
        0x0000609c:    00000000    ....    DCD    0
        0x000060a0:    00000000    ....    DCD    0
        0x000060a4:    00000000    ....    DCD    0
        0x000060a8:    adde0200    ....    DCD    2917007872
        0x000060ac:    39017400    .t.9    DCD    956396544
        0x000060b0:    1a000001    ....    DCD    436207617
        0x000060b4:    00080dfd    ....    DCD    527869
        0x000060b8:    009bc420     ...    DCD    10208288
        0x000060bc:    00000f00    ....    DCD    3840
        0x000060c0:    00ff0000    ....    DCD    16711680
        0x000060c4:    007f0000    ....    DCD    8323072
        0x000060c8:    00000040    @...    DCD    64
        0x000060cc:    03fd007f    ....    DCD    66912383
        0x000060d0:    00ff117d    }...    DCD    16716157
        0x000060d4:    05510100    ..Q.    DCD    89194752
        0x000060d8:    df190200    ....    DCD    3742958080
        0x000060dc:    007f0000    ....    DCD    8323072
        0x000060e0:    00000946    F...    DCD    2374
        0x000060e4:    01530402    ..S.    DCD    22217730
        0x000060e8:    00000054    T...    DCD    84
        0x000060ec:    0203007f    ....    DCD    33751167
        0x000060f0:    00000000    ....    DCD    0
        0x000060f4:    00000000    ....    DCD    0
        0x000060f8:    0b008c7f    ....    DCD    184585343
        0x000060fc:    002809fd    ..(.    DCD    2623997
        0x00006100:    00010000    ....    DCD    65536
        0x00006104:    00000000    ....    DCD    0
        0x00006108:    005005fd    ..P.    DCD    5244413
        0x0000610c:    009cc420     ...    DCD    10273824
        0x00006110:    7f5c05fd    ..\.    DCD    2136737277
        0x00006114:    00ffffff    ....    DCD    16777215
        0x00006118:    05fd0a00    ....    DCD    100469248
        0x0000611c:    00000038    8...    DCD    56
        0x00006120:    00000000    ....    DCD    0
        0x00006124:    0a00aa7f    ....    DCD    167815807
        0x00006128:    083c15fd    ..<.    DCD    138155517
        0x0000612c:    00000000    ....    DCD    0
        0x00006130:    00000000    ....    DCD    0
        0x00006134:    00000000    ....    DCD    0
        0x00006138:    00000000    ....    DCD    0
        0x0000613c:    00000000    ....    DCD    0
        0x00006140:    085015fd    ..P.    DCD    139466237
        0x00006144:    00000000    ....    DCD    0
        0x00006148:    00000000    ....    DCD    0
        0x0000614c:    00000000    ....    DCD    0
        0x00006150:    00000000    ....    DCD    0
        0x00006154:    00000000    ....    DCD    0
        0x00006158:    8c7f0000    ....    DCD    2357133312
        0x0000615c:    09fd0100    ....    DCD    167575808
        0x00006160:    00004028    (@..    DCD    16424
        0x00006164:    c4e20000    ....    DCD    3303145472
        0x00006168:    0a00006b    k...    DCD    167772267
        0x0000616c:    00641dfd    ..d.    DCD    6561277
        0x00006170:    00000080    ....    DCD    128
        0x00006174:    00000000    ....    DCD    0
        0x00006178:    00000080    ....    DCD    128
        0x0000617c:    00000000    ....    DCD    0
        0x00006180:    00000080    ....    DCD    128
        0x00006184:    00000000    ....    DCD    0
        0x00006188:    00000080    ....    DCD    128
        0x0000618c:    1dfd0b00    ....    DCD    503122688
        0x00006190:    00000008    ....    DCD    8
        0x00006194:    2b8a0300    ...+    DCD    730465024
        0x00006198:    2b8a03ad    ...+    DCD    730465197
        0x0000619c:    264000ad    ..@&    DCD    641728685
        0x000061a0:    264000e7    ..@&    DCD    641728743
        0x000061a4:    000000e7    ....    DCD    231
        0x000061a8:    00000000    ....    DCD    0
        0x000061ac:    11fd0000    ....    DCD    301793280
        0x000061b0:    00000028    (...    DCD    40
        0x000061b4:    00000001    ....    DCD    1
        0x000061b8:    ae000000    ....    DCD    2919235584
        0x000061bc:    000000c3    ....    DCD    195
        0x000061c0:    09fd0000    ....    DCD    167575552
        0x000061c4:    ffc10448    H...    DCD    4290839624
        0x000061c8:    6e120193    ...n    DCD    1846673811
        0x000061cc:    09fd0098    ....    DCD    167575704
        0x000061d0:    003e7b54    T{>.    DCD    4094804
        0x000061d4:    ae00006d    m...    DCD    2919235693
        0x000061d8:    09fd00c3    ....    DCD    167575747
        0x000061dc:    85130860    `...    DCD    2232617056
        0x000061e0:    00800062    b...    DCD    8388706
        0x000061e4:    09fd0000    ....    DCD    167575552
        0x000061e8:    d678006c    l.x.    DCD    3598188652
        0x000061ec:    130800fd    ....    DCD    319291645
        0x000061f0:    0e000085    ....    DCD    234881157
        0x000061f4:    005c25fd    .%\.    DCD    6039037
        0x000061f8:    00133244    D2..    DCD    1258052
        0x000061fc:    0072d306    ..r.    DCD    7525126
        0x00006200:    001aa374    t...    DCD    1745780
        0x00006204:    00e5cd4d    M...    DCD    15060301
        0x00006208:    008ff419    ....    DCD    9434137
        0x0000620c:    00000000    ....    DCD    0
        0x00006210:    00000000    ....    DCD    0
        0x00006214:    f7000000    ....    DCD    4143972352
        0x00006218:    00f6285c    \(..    DCD    16132188
        0x0000621c:    0dfd0f00    ....    DCD    234688256
        0x00006220:    d8c2fc08    ....    DCD    3636657160
        0x00006224:    000000c5    ....    DCD    197
        0x00006228:    00000000    ....    DCD    0
        0x0000622c:    11000000    ....    DCD    285212672
        0x00006230:    7f7c05fd    ..|.    DCD    2138834429
        0x00006234:    00ffffff    ....    DCD    16777215
        0x00006238:    0dfd1700    ....    DCD    234690304
        0x0000623c:    d306000c    ....    DCD    3540385804
        0x00006240:    9aa30272    r...    DCD    2594374258
        0x00006244:    d30600cc    ....    DCD    3540385996
        0x00006248:    18000072    r...    DCD    402653298
        0x0000624c:    7f400dfd    ..@.    DCD    2134904317
        0x00006250:    8000ffff    ....    DCD    2147549183
        0x00006254:    00000100    ....    DCD    256
        0x00006258:    00000080    ....    DCD    128
        0x0000625c:    09fd1900    ....    DCD    167581952
        0x00006260:    d3060078    x...    DCD    3540385912
        0x00006264:    f01b1c72    r...    DCD    4028308594
        0x00006268:    1a000041    A...    DCD    436207681
        0x0000626c:    040805fd    ....    DCD    67634685
        0x00006270:    0014370c    .7..    DCD    1324812
        0x00006274:    05fd0700    ....    DCD    100468480
        0x00006278:    00800064    d...    DCD    8388708
        0x0000627c:    09fd0000    ....    DCD    167575552
        0x00006280:    0000406c    l@..    DCD    16492
        0x00006284:    00004000    .@..    DCD    16384
        0x00006288:    11000000    ....    DCD    285212672
        0x0000628c:    00700dfd    ..p.    DCD    7343613
        0x00006290:    00000000    ....    DCD    0
        0x00006294:    00000080    ....    DCD    128
        0x00006298:    00000000    ....    DCD    0
        0x0000629c:    024829fd    .)H.    DCD    38283773
        0x000062a0:    02cc9aa3    ....    DCD    46963363
        0x000062a4:    00cc9aa3    ....    DCD    13408931
        0x000062a8:    00133244    D2..    DCD    1258052
        0x000062ac:    00000000    ....    DCD    0
        0x000062b0:    ff000000    ....    DCD    4278190080
        0x000062b4:    f9ae4781    .G..    DCD    4188948353
        0x000062b8:    fea92106    .!..    DCD    4272496902
        0x000062bc:    0079c001    ..y.    DCD    7979009
        0x000062c0:    00000000    ....    DCD    0
        0x000062c4:    00000000    ....    DCD    0
        0x000062c8:    11fd1000    ....    DCD    301797376
        0x000062cc:    4b1b0070    p..K    DCD    1260060784
        0x000062d0:    4b1b0098    ...K    DCD    1260060824
        0x000062d4:    a60d0098    ....    DCD    2785869976
        0x000062d8:    00000086    ....    DCD    134
        0x000062dc:    11000000    ....    DCD    285212672
        0x000062e0:    000841fd    .A..    DCD    541181
        0x000062e4:    ff000000    ....    DCD    4278190080
        0x000062e8:    f9ae4781    .G..    DCD    4188948353
        0x000062ec:    fea92106    .!..    DCD    4272496902
        0x000062f0:    0079c001    ..y.    DCD    7979009
        0x000062f4:    00000000    ....    DCD    0
        0x000062f8:    00000000    ....    DCD    0
        0x000062fc:    00133244    D2..    DCD    1258052
        0x00006300:    00d13f88    .?..    DCD    13713288
        0x00006304:    00133244    D2..    DCD    1258052
        0x00006308:    00000000    ....    DCD    0
        0x0000630c:    ff000000    ....    DCD    4278190080
        0x00006310:    f9ae4781    .G..    DCD    4188948353
        0x00006314:    fda92106    .!..    DCD    4255719686
        0x00006318:    003d7397    .s=.    DCD    4027287
        0x0000631c:    00000000    ....    DCD    0
        0x00006320:    00000000    ....    DCD    0
        0x00006324:    aa7f0000    ....    DCD    2860449792
        0x00006328:    51fd0100    ...Q    DCD    1375535360
        0x0000632c:    27d10730    0..'    DCD    668010288
        0x00006330:    b15df03e    >.].    DCD    2975723582
        0x00006334:    27d10785    ...'    DCD    668010373
        0x00006338:    3ca10f3e    >..<    DCD    1017188158
        0x0000633c:    9f5cf81e    ..\.    DCD    2673670174
        0x00006340:    27d10728    (..'    DCD    668010280
        0x00006344:    b15df03e    >.].    DCD    2975723582
        0x00006348:    27d10785    ...'    DCD    668010373
        0x0000634c:    3ca10f3e    >..<    DCD    1017188158
        0x00006350:    9f5cf81e    ..\.    DCD    2673670174
        0x00006354:    5a650028    (.eZ    DCD    1516568616
        0x00006358:    b5ca00fd    ....    DCD    3049914621
        0x0000635c:    5a6500fb    ..eZ    DCD    1516568827
        0x00006360:    af3c0afd    ..<.    DCD    2939947773
        0x00006364:    e42dfced    ..-.    DCD    3828219117
        0x00006368:    5a65001d    ..eZ    DCD    1516568605
        0x0000636c:    b5ca00fd    ....    DCD    3049914621
        0x00006370:    5a6500fb    ..eZ    DCD    1516568827
        0x00006374:    af3c0afd    ..<.    DCD    2939947773
        0x00006378:    e42dfced    ..-.    DCD    3828219117
        0x0000637c:    0200001d    ....    DCD    33554461
        0x00006380:    070879fd    .y..    DCD    117996029
        0x00006384:    f1e6f7b8    ....    DCD    4058445752
        0x00006388:    06de66ff    .f..    DCD    115238655
        0x0000638c:    0eac14c6    ....    DCD    246158534
        0x00006390:    f9229900    ..".    DCD    4179794176
        0x00006394:    086ef380    ..n.    DCD    141489024
        0x00006398:    00000000    ....    DCD    0
        0x0000639c:    00000000    ....    DCD    0
        0x000063a0:    00000000    ....    DCD    0
        0x000063a4:    00000000    ....    DCD    0
        0x000063a8:    08000000    ....    DCD    134217728
        0x000063ac:    00000000    ....    DCD    0
        0x000063b0:    00000000    ....    DCD    0
        0x000063b4:    00000000    ....    DCD    0
        0x000063b8:    00000000    ....    DCD    0
        0x000063bc:    08000000    ....    DCD    134217728
        0x000063c0:    00000000    ....    DCD    0
        0x000063c4:    00000000    ....    DCD    0
        0x000063c8:    00000000    ....    DCD    0
        0x000063cc:    00000000    ....    DCD    0
        0x000063d0:    08000000    ....    DCD    134217728
        0x000063d4:    00000000    ....    DCD    0
        0x000063d8:    00000000    ....    DCD    0
        0x000063dc:    00000000    ....    DCD    0
        0x000063e0:    00000000    ....    DCD    0
        0x000063e4:    08000000    ....    DCD    134217728
        0x000063e8:    00000000    ....    DCD    0
        0x000063ec:    00000000    ....    DCD    0
        0x000063f0:    00000000    ....    DCD    0
        0x000063f4:    00000000    ....    DCD    0
        0x000063f8:    00000000    ....    DCD    0
        0x000063fc:    79fd0300    ...y    DCD    2046624512
        0x00006400:    00000808    ....    DCD    2056
        0x00006404:    00000000    ....    DCD    0
        0x00006408:    00000000    ....    DCD    0
        0x0000640c:    00000000    ....    DCD    0
        0x00006410:    00000000    ....    DCD    0
        0x00006414:    00000800    ....    DCD    2048
        0x00006418:    00000000    ....    DCD    0
        0x0000641c:    00000000    ....    DCD    0
        0x00006420:    00000000    ....    DCD    0
        0x00006424:    00000000    ....    DCD    0
        0x00006428:    00000800    ....    DCD    2048
        0x0000642c:    00000000    ....    DCD    0
        0x00006430:    00000000    ....    DCD    0
        0x00006434:    00000000    ....    DCD    0
        0x00006438:    00000000    ....    DCD    0
        0x0000643c:    00000800    ....    DCD    2048
        0x00006440:    00000000    ....    DCD    0
        0x00006444:    00000000    ....    DCD    0
        0x00006448:    00000000    ....    DCD    0
        0x0000644c:    00000000    ....    DCD    0
        0x00006450:    00000800    ....    DCD    2048
        0x00006454:    00000000    ....    DCD    0
        0x00006458:    00000000    ....    DCD    0
        0x0000645c:    00000000    ....    DCD    0
        0x00006460:    00000000    ....    DCD    0
        0x00006464:    00000800    ....    DCD    2048
        0x00006468:    00000000    ....    DCD    0
        0x0000646c:    00000000    ....    DCD    0
        0x00006470:    00000000    ....    DCD    0
        0x00006474:    00000000    ....    DCD    0
        0x00006478:    04000000    ....    DCD    67108864
        0x0000647c:    080879fd    .y..    DCD    134773245
        0x00006480:    00000000    ....    DCD    0
        0x00006484:    00000000    ....    DCD    0
        0x00006488:    00000000    ....    DCD    0
        0x0000648c:    00000000    ....    DCD    0
        0x00006490:    08000000    ....    DCD    134217728
        0x00006494:    00000000    ....    DCD    0
        0x00006498:    00000000    ....    DCD    0
        0x0000649c:    00000000    ....    DCD    0
        0x000064a0:    00000000    ....    DCD    0
        0x000064a4:    08000000    ....    DCD    134217728
        0x000064a8:    00000000    ....    DCD    0
        0x000064ac:    00000000    ....    DCD    0
        0x000064b0:    00000000    ....    DCD    0
        0x000064b4:    00000000    ....    DCD    0
        0x000064b8:    08000000    ....    DCD    134217728
        0x000064bc:    00000000    ....    DCD    0
        0x000064c0:    00000000    ....    DCD    0
        0x000064c4:    00000000    ....    DCD    0
        0x000064c8:    00000000    ....    DCD    0
        0x000064cc:    08000000    ....    DCD    134217728
        0x000064d0:    00000000    ....    DCD    0
        0x000064d4:    00000000    ....    DCD    0
        0x000064d8:    00000000    ....    DCD    0
        0x000064dc:    00000000    ....    DCD    0
        0x000064e0:    08000000    ....    DCD    134217728
        0x000064e4:    00000000    ....    DCD    0
        0x000064e8:    00000000    ....    DCD    0
        0x000064ec:    00000000    ....    DCD    0
        0x000064f0:    00000000    ....    DCD    0
        0x000064f4:    00000000    ....    DCD    0
        0x000064f8:    79fd0500    ...y    DCD    2046625024
        0x000064fc:    00000808    ....    DCD    2056
        0x00006500:    00000000    ....    DCD    0
        0x00006504:    00000000    ....    DCD    0
        0x00006508:    00000000    ....    DCD    0
        0x0000650c:    00000000    ....    DCD    0
        0x00006510:    00000800    ....    DCD    2048
        0x00006514:    00000000    ....    DCD    0
        0x00006518:    00000000    ....    DCD    0
        0x0000651c:    00000000    ....    DCD    0
        0x00006520:    00000000    ....    DCD    0
        0x00006524:    00000800    ....    DCD    2048
        0x00006528:    00000000    ....    DCD    0
        0x0000652c:    00000000    ....    DCD    0
        0x00006530:    00000000    ....    DCD    0
        0x00006534:    00000000    ....    DCD    0
        0x00006538:    00000800    ....    DCD    2048
        0x0000653c:    00000000    ....    DCD    0
        0x00006540:    00000000    ....    DCD    0
        0x00006544:    00000000    ....    DCD    0
        0x00006548:    00000000    ....    DCD    0
        0x0000654c:    00000800    ....    DCD    2048
        0x00006550:    00000000    ....    DCD    0
        0x00006554:    00000000    ....    DCD    0
        0x00006558:    00000000    ....    DCD    0
        0x0000655c:    00000000    ....    DCD    0
        0x00006560:    00000800    ....    DCD    2048
        0x00006564:    00000000    ....    DCD    0
        0x00006568:    00000000    ....    DCD    0
        0x0000656c:    00000000    ....    DCD    0
        0x00006570:    00000000    ....    DCD    0
        0x00006574:    06000000    ....    DCD    100663296
        0x00006578:    080829fd    .)..    DCD    134752765
        0x0000657c:    00000000    ....    DCD    0
        0x00006580:    00000000    ....    DCD    0
        0x00006584:    00000000    ....    DCD    0
        0x00006588:    00000000    ....    DCD    0
        0x0000658c:    08000000    ....    DCD    134217728
        0x00006590:    00000000    ....    DCD    0
        0x00006594:    00000000    ....    DCD    0
        0x00006598:    00000000    ....    DCD    0
        0x0000659c:    00000000    ....    DCD    0
        0x000065a0:    00000000    ....    DCD    0
        0x000065a4:    29fd0f00    ...)    DCD    704450304
        0x000065a8:    00000814    ....    DCD    2068
        0x000065ac:    00000000    ....    DCD    0
        0x000065b0:    00000000    ....    DCD    0
        0x000065b4:    00000000    ....    DCD    0
        0x000065b8:    00000000    ....    DCD    0
        0x000065bc:    00000800    ....    DCD    2048
        0x000065c0:    00000000    ....    DCD    0
        0x000065c4:    00000000    ....    DCD    0
        0x000065c8:    00000000    ....    DCD    0
        0x000065cc:    00000000    ....    DCD    0
        0x000065d0:    17000000    ....    DCD    385875968
        0x000065d4:    001869fd    .i..    DCD    1599997
        0x000065d8:    00000000    ....    DCD    0
        0x000065dc:    00000000    ....    DCD    0
        0x000065e0:    00000000    ....    DCD    0
        0x000065e4:    00000000    ....    DCD    0
        0x000065e8:    00000000    ....    DCD    0
        0x000065ec:    00000000    ....    DCD    0
        0x000065f0:    00000000    ....    DCD    0
        0x000065f4:    00000000    ....    DCD    0
        0x000065f8:    00000000    ....    DCD    0
        0x000065fc:    00000000    ....    DCD    0
        0x00006600:    00000000    ....    DCD    0
        0x00006604:    00000000    ....    DCD    0
        0x00006608:    00000000    ....    DCD    0
        0x0000660c:    00000000    ....    DCD    0
        0x00006610:    00000000    ....    DCD    0
        0x00006614:    00000000    ....    DCD    0
        0x00006618:    00000000    ....    DCD    0
        0x0000661c:    00000000    ....    DCD    0
        0x00006620:    00000000    ....    DCD    0
        0x00006624:    00000000    ....    DCD    0
        0x00006628:    00000000    ....    DCD    0
        0x0000662c:    00000000    ....    DCD    0
        0x00006630:    00000000    ....    DCD    0
        0x00006634:    00000000    ....    DCD    0
        0x00006638:    00000000    ....    DCD    0
        0x0000663c:    00000000    ....    DCD    0
        0x00006640:    39fd1800    ...9    DCD    972888064
        0x00006644:    00000008    ....    DCD    8
        0x00006648:    00000000    ....    DCD    0
        0x0000664c:    00000000    ....    DCD    0
        0x00006650:    00000000    ....    DCD    0
        0x00006654:    00000800    ....    DCD    2048
        0x00006658:    00000000    ....    DCD    0
        0x0000665c:    00000000    ....    DCD    0
        0x00006660:    00000000    ....    DCD    0
        0x00006664:    00000000    ....    DCD    0
        0x00006668:    00000800    ....    DCD    2048
        0x0000666c:    00000000    ....    DCD    0
        0x00006670:    00000000    ....    DCD    0
        0x00006674:    00000000    ....    DCD    0
        0x00006678:    00000000    ....    DCD    0
        0x0000667c:    09fd0000    ....    DCD    167575552
        0x00006680:    00000878    x...    DCD    2168
        0x00006684:    00000000    ....    DCD    0
        0x00006688:    19000000    ....    DCD    419430400
        0x0000668c:    000871fd    .q..    DCD    553469
        0x00006690:    00000000    ....    DCD    0
        0x00006694:    00000000    ....    DCD    0
        0x00006698:    08000000    ....    DCD    134217728
        0x0000669c:    00000000    ....    DCD    0
        0x000066a0:    00000000    ....    DCD    0
        0x000066a4:    00000000    ....    DCD    0
        0x000066a8:    00000000    ....    DCD    0
        0x000066ac:    08000000    ....    DCD    134217728
        0x000066b0:    00000000    ....    DCD    0
        0x000066b4:    00000000    ....    DCD    0
        0x000066b8:    00000000    ....    DCD    0
        0x000066bc:    00000000    ....    DCD    0
        0x000066c0:    08000000    ....    DCD    134217728
        0x000066c4:    00000000    ....    DCD    0
        0x000066c8:    00000000    ....    DCD    0
        0x000066cc:    00000000    ....    DCD    0
        0x000066d0:    00000000    ....    DCD    0
        0x000066d4:    08000000    ....    DCD    134217728
        0x000066d8:    00000000    ....    DCD    0
        0x000066dc:    00000000    ....    DCD    0
        0x000066e0:    00000000    ....    DCD    0
        0x000066e4:    00000000    ....    DCD    0
        0x000066e8:    08000000    ....    DCD    134217728
        0x000066ec:    00000000    ....    DCD    0
        0x000066f0:    00000000    ....    DCD    0
        0x000066f4:    00000000    ....    DCD    0
        0x000066f8:    00000000    ....    DCD    0
        0x000066fc:    00000000    ....    DCD    0
        0x00006700:    15fd0f00    ....    DCD    368905984
        0x00006704:    1600005c    \...    DCD    369098844
        0x00006708:    2c000041    A..,    DCD    738197569
        0x0000670c:    16000081    ....    DCD    369098881
        0x00006710:    16da0f41    A...    DCD    383389505
        0x00006714:    9025f8a6    ..%.    DCD    2418407590
        0x00006718:    15fd0058    X...    DCD    368902232
        0x0000671c:    16000048    H...    DCD    369098824
        0x00006720:    2c000041    A..,    DCD    738197569
        0x00006724:    16000081    ....    DCD    369098881
        0x00006728:    16da0f41    A...    DCD    383389505
        0x0000672c:    9025f8a6    ..%.    DCD    2418407590
        0x00006730:    11fd0058    X...    DCD    301793368
        0x00006734:    e8fd0270    p...    DCD    3908895344
        0x00006738:    2f04fa1d    .../    DCD    788855325
        0x0000673c:    e8fd02c5    ....    DCD    3908895429
        0x00006740:    e575021d    ..u.    DCD    3849650717
        0x00006744:    1000005a    Z...    DCD    268435546
        0x00006748:    fe0869fd    .i..    DCD    4261964285
        0x0000674c:    02e4447e    ~D..    DCD    48514174
        0x00006750:    fa1de8fd    ....    DCD    4196264189
        0x00006754:    02c52f04    ./..    DCD    46477060
        0x00006758:    021de8fd    ....    DCD    35514621
        0x0000675c:    fe5ae575    u.Z.    DCD    4267369845
        0x00006760:    07e4447e    ~D..    DCD    132400254
        0x00006764:    f09321ed    .!..    DCD    4036174317
        0x00006768:    07d9bc25    %...    DCD    131709989
        0x0000676c:    0f9321ed    .!..    DCD    261300717
        0x00006770:    f8a616da    ....    DCD    4171634394
        0x00006774:    07589025    %.X.    DCD    123244581
        0x00006778:    f09321ed    .!..    DCD    4036174317
        0x0000677c:    07d9bc25    %...    DCD    131709989
        0x00006780:    0f9321ed    .!..    DCD    261300717
        0x00006784:    f8a616da    ....    DCD    4171634394
        0x00006788:    01589025    %.X.    DCD    22581285
        0x0000678c:    0370f5c2    ..p.    DCD    57734594
        0x00006790:    01e1ea85    ....    DCD    31582853
        0x00006794:    0270f5c2    ..p.    DCD    40957378
        0x00006798:    fe5ae575    u.Z.    DCD    4267369845
        0x0000679c:    01e4447e    ~D..    DCD    31736958
        0x000067a0:    0370f5c2    ..p.    DCD    57734594
        0x000067a4:    01e1ea85    ....    DCD    31582853
        0x000067a8:    0270f5c2    ..p.    DCD    40957378
        0x000067ac:    fe5ae575    u.Z.    DCD    4267369845
        0x000067b0:    00e4447e    ~D..    DCD    14959742
        0x000067b4:    007f0000    ....    DCD    8323072
        0x000067b8:    02600030    0.`.    DCD    39845936
        0x000067bc:    304c0962    b.L0    DCD    810289506
        0x000067c0:    00000303    ....    DCD    771
        0x000067c4:    8078007f    ..x.    DCD    2155348095
    registers_tw
        0x000067c8:    007f0000    ....    DCD    8323072
        0x000067cc:    11010203    ....    DCD    285278723
        0x000067d0:    00000000    ....    DCD    0
        0x000067d4:    00000000    ....    DCD    0
        0x000067d8:    007f0000    ....    DCD    8323072
        0x000067dc:    05fe0203    ....    DCD    100532739
        0x000067e0:    00000000    ....    DCD    0
        0x000067e4:    00000000    ....    DCD    0
        0x000067e8:    007f0000    ....    DCD    8323072
        0x000067ec:    00001203    ....    DCD    4611
        0x000067f0:    00000000    ....    DCD    0
        0x000067f4:    00000000    ....    DCD    0
        0x000067f8:    0c48007f    ..H.    DCD    206045311
        0x000067fc:    647f0000    ...d    DCD    1686044672
        0x00006800:    79fd0100    ...y    DCD    2046624000
        0x00006804:    00fe0008    ....    DCD    16646152
        0x00006808:    00fc0040    @...    DCD    16515136
        0x0000680c:    00fc0000    ....    DCD    16515072
        0x00006810:    00fc0000    ....    DCD    16515072
        0x00006814:    00fc0000    ....    DCD    16515072
        0x00006818:    00fc0000    ....    DCD    16515072
        0x0000681c:    00fc0000    ....    DCD    16515072
        0x00006820:    00fc0000    ....    DCD    16515072
        0x00006824:    50fc0000    ...P    DCD    1358692352
        0x00006828:    00fc0000    ....    DCD    16515072
        0x0000682c:    00fc0000    ....    DCD    16515072
        0x00006830:    00fc0000    ....    DCD    16515072
        0x00006834:    00fc0000    ....    DCD    16515072
        0x00006838:    00fc0000    ....    DCD    16515072
        0x0000683c:    00fc0000    ....    DCD    16515072
        0x00006840:    00fc0000    ....    DCD    16515072
        0x00006844:    00fc0000    ....    DCD    16515072
        0x00006848:    00fc0000    ....    DCD    16515072
        0x0000684c:    00fc0000    ....    DCD    16515072
        0x00006850:    00fc0000    ....    DCD    16515072
        0x00006854:    00fc0000    ....    DCD    16515072
        0x00006858:    00fc0000    ....    DCD    16515072
        0x0000685c:    00fc0000    ....    DCD    16515072
        0x00006860:    00fc0000    ....    DCD    16515072
        0x00006864:    00820000    ....    DCD    8519680
        0x00006868:    00fc0093    ....    DCD    16515219
        0x0000686c:    02c98400    ....    DCD    46760960
        0x00006870:    02c184bc    ....    DCD    46236860
        0x00006874:    ff008fbd    ....    DCD    4278226877
        0x00006878:    38fc08ee    ...8    DCD    956041454
        0x0000687c:    02000010    ....    DCD    33554448
        0x00006880:    840879fd    .y..    DCD    2215148029
        0x00006884:    84060402    ....    DCD    2214986754
        0x00006888:    02db03c3    ....    DCD    47907779
        0x0000688c:    02c30240    @...    DCD    46334528
        0x00006890:    00dd0348    H...    DCD    14484296
        0x00006894:    009a10ff    ....    DCD    10096895
        0x00006898:    e40000fc    ....    DCD    3825205500
        0x0000689c:    02cd1210    ....    DCD    46993936
        0x000068a0:    88bd0240    @...    DCD    2294088256
        0x000068a4:    02dc1360    `...    DCD    47977312
        0x000068a8:    02bc0258    X...    DCD    45875800
        0x000068ac:    841000d3    ....    DCD    2215641299
        0x000068b0:    10bc02c9    ....    DCD    280756937
        0x000068b4:    02031a00    ....    DCD    33757696
        0x000068b8:    84040070    p...    DCD    2214854768
        0x000068bc:    0cbd02c9    ....    DCD    213713609
        0x000068c0:    02491820     .I.    DCD    38344736
        0x000068c4:    84010060    `...    DCD    2214658144
        0x000068c8:    84bc02c1    ....    DCD    2226913985
        0x000068cc:    08de0351    Q...    DCD    148767569
        0x000068d0:    02980cfc    ....    DCD    43519228
        0x000068d4:    84030078    x...    DCD    2214789240
        0x000068d8:    02e040c2    .@..    DCD    48251074
        0x000068dc:    84020068    h...    DCD    2214723688
        0x000068e0:    08ed0359    Y...    DCD    149750617
        0x000068e4:    02992cfc    .,..    DCD    43592956
        0x000068e8:    02030028    (...    DCD    33751080
        0x000068ec:    02fcff11    ....    DCD    50134801
        0x000068f0:    e0bc0248    H...    DCD    3770417736
        0x000068f4:    f0ce1210    ....    DCD    4040036880
        0x000068f8:    00cf521c    .R..    DCD    13586972
        0x000068fc:    79fd0300    ...y    DCD    2046624512
        0x00006900:    521cf008    ...R    DCD    1377628168
        0x00006904:    521cf0d0    ...R    DCD    1377628368
        0x00006908:    521ff0d1    ...R    DCD    1377824977
        0x0000690c:    02a186d2    ....    DCD    44140242
        0x00006910:    802780d3    ..'.    DCD    2150072531
        0x00006914:    048384ea    ....    DCD    75728106
        0x00006918:    0000e045    E...    DCD    57413
        0x0000691c:    60828400    ...`    DCD    1619166208
        0x00006920:    035384e0    ..S.    DCD    55805152
        0x00006924:    035184de    ..Q.    DCD    55674078
        0x00006928:    721cf0f5    ...r    DCD    1914499317
        0x0000692c:    721cf0d4    ...r    DCD    1914499284
        0x00006930:    40ca84d5    ...@    DCD    1087014101
        0x00006934:    721cf0e0    ...r    DCD    1914499296
        0x00006938:    721ff0d6    ...r    DCD    1914695894
        0x0000693c:    02a186d7    ....    DCD    44140247
        0x00006940:    802780ce    ..'.    DCD    2150072526
        0x00006944:    048384eb    ....    DCD    75728107
        0x00006948:    2010e045    E..     DCD    537976901
        0x0000694c:    035b8400    ..[.    DCD    56329216
        0x00006950:    035984ed    ..Y.    DCD    56198381
        0x00006954:    521cf0fd    ...R    DCD    1377628413
        0x00006958:    521cf0cf    ...R    DCD    1377628367
        0x0000695c:    521cf0d0    ...R    DCD    1377628368
        0x00006960:    521ff0d1    ...R    DCD    1377824977
        0x00006964:    02a186d2    ....    DCD    44140242
        0x00006968:    802780d3    ..'.    DCD    2150072531
        0x0000696c:    048384ea    ....    DCD    75728106
        0x00006970:    0000e046    F...    DCD    57414
        0x00006974:    60828400    ...`    DCD    1619166208
        0x00006978:    040000e0    ....    DCD    67109088
        0x0000697c:    840879fd    .y..    DCD    2215148029
        0x00006980:    84f50353    S...    DCD    2230649683
        0x00006984:    f0ee0351    Q...    DCD    4042130257
        0x00006988:    f0d4721c    .r..    DCD    4040454684
        0x0000698c:    f0d5721c    .r..    DCD    4040520220
        0x00006990:    f0d6721c    .r..    DCD    4040585756
        0x00006994:    86d7721f    .r..    DCD    2262266399
        0x00006998:    80d802a1    ....    DCD    2161640097
        0x0000699c:    84eb8027    '...    DCD    2230026279
        0x000069a0:    84fd035b    [...    DCD    2231173979
        0x000069a4:    84df0359    Y...    DCD    2229207897
        0x000069a8:    e2460483    ..F.    DCD    3796239491
        0x000069ac:    84008057    W...    DCD    2214625367
        0x000069b0:    84bd02c9    ....    DCD    2226979529
        0x000069b4:    f0e06082    .`..    DCD    4041236610
        0x000069b8:    f0d9721c    .r..    DCD    4040782364
        0x000069bc:    f0da721c    .r..    DCD    4040847900
        0x000069c0:    f0db721c    .r..    DCD    4040913436
        0x000069c4:    86dc721f    .r..    DCD    2262594079
        0x000069c8:    80dd02a1    ....    DCD    2161967777
        0x000069cc:    84eb8027    '...    DCD    2230026279
        0x000069d0:    e0470483    ..G.    DCD    3762750595
        0x000069d4:    84000000    ....    DCD    2214592512
        0x000069d8:    84e04082    .@..    DCD    2229289090
        0x000069dc:    84df035b    [...    DCD    2229207899
        0x000069e0:    f0f60359    Y...    DCD    4042654553
        0x000069e4:    f0de521c    .R..    DCD    4041101852
        0x000069e8:    84df521c    .R..    DCD    2229228060
        0x000069ec:    f0e060ca    .`..    DCD    4041236682
        0x000069f0:    f0e0521c    .R..    DCD    4041232924
        0x000069f4:    00e1521f    .R..    DCD    14766623
        0x000069f8:    79fd0500    ...y    DCD    2046625024
        0x000069fc:    02a18608    ....    DCD    44140040
        0x00006a00:    802780d8    ..'.    DCD    2150072536
        0x00006a04:    048384ea    ....    DCD    75728106
        0x00006a08:    2010e047    G..     DCD    537976903
        0x00006a0c:    03538400    ..S.    DCD    55804928
        0x00006a10:    035184ee    ..Q.    DCD    55674094
        0x00006a14:    721cf0fe    ...r    DCD    1914499326
        0x00006a18:    721cf0d9    ...r    DCD    1914499289
        0x00006a1c:    721cf0da    ...r    DCD    1914499290
        0x00006a20:    721ff0db    ...r    DCD    1914695899
        0x00006a24:    02a186dc    ....    DCD    44140252
        0x00006a28:    802780dd    ..'.    DCD    2150072541
        0x00006a2c:    048384eb    ....    DCD    75728107
        0x00006a30:    0000e048    H...    DCD    57416
        0x00006a34:    40828400    ...@    DCD    1082295296
        0x00006a38:    035b84e0    ..[.    DCD    56329440
        0x00006a3c:    035984f6    ..Y.    DCD    56198390
        0x00006a40:    521cf0ef    ...R    DCD    1377628399
        0x00006a44:    521cf0de    ...R    DCD    1377628382
        0x00006a48:    521cf0df    ...R    DCD    1377628383
        0x00006a4c:    521ff0e0    ...R    DCD    1377824992
        0x00006a50:    02a186e1    ....    DCD    44140257
        0x00006a54:    802780e2    ..'.    DCD    2150072546
        0x00006a58:    035384ea    ..S.    DCD    55805162
        0x00006a5c:    035184fe    ..Q.    DCD    55674110
        0x00006a60:    048384e7    ....    DCD    75728103
        0x00006a64:    8057e248    H.W.    DCD    2153243208
        0x00006a68:    02c98400    ....    DCD    46760960
        0x00006a6c:    408284bd    ...@    DCD    1082295485
        0x00006a70:    521cf0e0    ...R    DCD    1377628384
        0x00006a74:    060000e3    ....    DCD    100663523
        0x00006a78:    f00879fd    .y..    DCD    4027087357
        0x00006a7c:    f0e4521c    .R..    DCD    4041495068
        0x00006a80:    f0e5521c    .R..    DCD    4041560604
        0x00006a84:    86e6521f    .R..    DCD    2263241247
        0x00006a88:    80e702a1    ....    DCD    2162623137
        0x00006a8c:    84ea8027    '...    DCD    2229960743
        0x00006a90:    e0490483    ..I.    DCD    3762881667
        0x00006a94:    84000000    ....    DCD    2214592512
        0x00006a98:    84e06082    .`..    DCD    2229297282
        0x00006a9c:    84e70353    S...    DCD    2229732179
        0x00006aa0:    f0f70351    Q...    DCD    4042720081
        0x00006aa4:    f0e8721c    .r..    DCD    4041765404
        0x00006aa8:    84e9721c    .r..    DCD    2229891612
        0x00006aac:    f0e040ca    .@..    DCD    4041228490
        0x00006ab0:    f0ea721c    .r..    DCD    4041896476
        0x00006ab4:    86eb721f    .r..    DCD    2263577119
        0x00006ab8:    80e202a1    ....    DCD    2162295457
        0x00006abc:    84eb8027    '...    DCD    2230026279
        0x00006ac0:    e0490483    ..I.    DCD    3762881667
        0x00006ac4:    84002010    . ..    DCD    2214600720
        0x00006ac8:    f0ef035b    [...    DCD    4042195803
        0x00006acc:    f0e3521c    .R..    DCD    4041429532
        0x00006ad0:    f0e4521c    .R..    DCD    4041495068
        0x00006ad4:    f0e5521c    .R..    DCD    4041560604
        0x00006ad8:    86e6521f    .R..    DCD    2263241247
        0x00006adc:    80e702a1    ....    DCD    2162623137
        0x00006ae0:    84ea8027    '...    DCD    2229960743
        0x00006ae4:    84f70353    S...    DCD    2230780755
        0x00006ae8:    84ff0351    Q...    DCD    2231305041
        0x00006aec:    e04a0483    ..J.    DCD    3762947203
        0x00006af0:    00000000    ....    DCD    0
        0x00006af4:    79fd0700    ...y    DCD    2046625536
        0x00006af8:    40828408    ...@    DCD    1082295304
        0x00006afc:    521cf0e0    ...R    DCD    1377628384
        0x00006b00:    521cf0e8    ...R    DCD    1377628392
        0x00006b04:    521cf0e9    ...R    DCD    1377628393
        0x00006b08:    521ff0ea    ...R    DCD    1377825002
        0x00006b0c:    02a186eb    ....    DCD    44140267
        0x00006b10:    802780ec    ..'.    DCD    2150072556
        0x00006b14:    048384ea    ....    DCD    75728106
        0x00006b18:    0353844a    J.S.    DCD    55805002
        0x00006b1c:    c08866ff    .f..    DCD    3230164735
        0x00006b20:    c080ee00    ....    DCD    3229675008
        0x00006b24:    00cb0200    ....    DCD    13304320
        0x00006b28:    a0886210    .b..    DCD    2693292560
        0x00006b2c:    a080ea00    ....    DCD    2692803072
        0x00006b30:    00d30200    ....    DCD    13828608
        0x00006b34:    00478810    ..G.    DCD    4687888
        0x00006b38:    08070980    ....    DCD    134678912
        0x00006b3c:    08fc0821    !...    DCD    150734881
        0x00006b40:    10000d53    S...    DCD    268438867
        0x00006b44:    04cb8438    8...    DCD    80446520
        0x00006b48:    08600806    ..`.    DCD    140511238
        0x00006b4c:    02808451    Q...    DCD    41976913
        0x00006b50:    0000e400    ....    DCD    58368
        0x00006b54:    02c98681    ....    DCD    46761601
        0x00006b58:    204788ee    ..G     DCD    541559022
        0x00006b5c:    10000d80    ....    DCD    268438912
        0x00006b60:    04828408    ....    DCD    75662344
        0x00006b64:    00fc0007    ....    DCD    16515079
        0x00006b68:    20420000    ..B     DCD    541196288
        0x00006b6c:    04db84d7    ....    DCD    81495255
        0x00006b70:    08000005    ....    DCD    134217733
        0x00006b74:    080879fd    .y..    DCD    134773245
        0x00006b78:    863118fc    ..1.    DCD    2251364604
        0x00006b7c:    e4ed02a1    ....    DCD    3840737953
        0x00006b80:    00002010    . ..    DCD    8208
        0x00006b84:    88d820fe    . ..    DCD    2295865598
        0x00006b88:    0200006c    l...    DCD    33554540
        0x00006b8c:    84000080    ....    DCD    2214592640
        0x00006b90:    e44904a1    ..I.    DCD    3829990561
        0x00006b94:    84000000    ....    DCD    2214592512
        0x00006b98:    844a04a1    ..J.    DCD    2219443361
        0x00006b9c:    e04704c9    ..G.    DCD    3762750665
        0x00006ba0:    ec000000    ....    DCD    3959422976
        0x00006ba4:    88810000    ....    DCD    2290155520
        0x00006ba8:    84820047    G...    DCD    2223112263
        0x00006bac:    104804a1    ..H.    DCD    273155233
        0x00006bb0:    e8011a00    ....    DCD    3892386304
        0x00006bb4:    02000000    ....    DCD    33554432
        0x00006bb8:    881400d3    ....    DCD    2283012307
        0x00006bbc:    0c810007    ....    DCD    209780743
        0x00006bc0:    02480820     .H.    DCD    38275104
        0x00006bc4:    84060070    p...    DCD    2214985840
        0x00006bc8:    84470349    I.G.    DCD    2219246409
        0x00006bcc:    e24f0359    Y.O.    DCD    3796829017
        0x00006bd0:    02b49157    W...    DCD    45388119
        0x00006bd4:    84050078    x...    DCD    2214920312
        0x00006bd8:    10e02082    . ..    DCD    283123842
        0x00006bdc:    02031a00    ....    DCD    33757696
        0x00006be0:    02020028    (...    DCD    33685544
        0x00006be4:    f0bc0250    P...    DCD    4038853200
        0x00006be8:    f0b5311c    .1..    DCD    4038406428
        0x00006bec:    00b6311c    .1..    DCD    11940124
        0x00006bf0:    79fd0900    ...y    DCD    2046626048
        0x00006bf4:    311cf008    ...1    DCD    823980040
        0x00006bf8:    311ff0b7    ...1    DCD    824176823
        0x00006bfc:    1100e4b8    ....    DCD    285271224
        0x00006c00:    802780bb    ..'.    DCD    2150072507
        0x00006c04:    1100f4e1    ....    DCD    285275361
        0x00006c08:    311df4b9    ...1    DCD    824046777
        0x00006c0c:    311cf4ba    ...1    DCD    823981242
        0x00006c10:    311ff4bc    ...1    DCD    824177852
        0x00006c14:    01a186bd    ....    DCD    27363005
        0x00006c18:    806780b4    ..g.    DCD    2154266804
        0x00006c1c:    00cb02e9    ....    DCD    13304553
        0x00006c20:    03838410    ....    DCD    58950672
        0x00006c24:    0010e077    w...    DCD    1106039
        0x00006c28:    0a000800    ....    DCD    167774208
        0x00006c2c:    034b8421    !.K.    DCD    55280673
        0x00006c30:    711cf047    G..q    DCD    1897721927
        0x00006c34:    711cf0b5    ...q    DCD    1897722037
        0x00006c38:    711cf0b6    ...q    DCD    1897722038
        0x00006c3c:    711ff0b7    ...q    DCD    1897918647
        0x00006c40:    1100e4b8    ....    DCD    285271224
        0x00006c44:    802780bb    ..'.    DCD    2150072507
        0x00006c48:    1100f4e3    ....    DCD    285275363
        0x00006c4c:    711df4b9    ...q    DCD    1897788601
        0x00006c50:    711cf4ba    ...q    DCD    1897723066
        0x00006c54:    711ff4bc    ...q    DCD    1897919676
        0x00006c58:    01a186bd    ....    DCD    27363005
        0x00006c5c:    806780dc    ..g.    DCD    2154266844
        0x00006c60:    00c302eb    ....    DCD    12780267
        0x00006c64:    03c38410    ....    DCD    63144976
        0x00006c68:    0a00087f    ....    DCD    167774335
        0x00006c6c:    0a000000    ....    DCD    167772160
        0x00006c70:    840879fd    .y..    DCD    2215148029
        0x00006c74:    e44f035b    [.O.    DCD    3830383451
        0x00006c78:    e0000010    ....    DCD    3758096400
        0x00006c7c:    ea002010    . ..    DCD    3925876752
        0x00006c80:    0200806d    m...    DCD    33587309
        0x00006c84:    ee1000cb    ....    DCD    3994026187
        0x00006c88:    0200a06d    m...    DCD    33595501
        0x00006c8c:    881000c3    ....    DCD    2282750147
        0x00006c90:    09820047    G...    DCD    159514695
        0x00006c94:    08100907    ....    DCD    135268615
        0x00006c98:    0d3348fc    .H3.    DCD    221464828
        0x00006c9c:    84181000    ....    DCD    2216169472
        0x00006ca0:    086d03c3    ..m.    DCD    141362115
        0x00006ca4:    84304860    `H0.    DCD    2217756768
        0x00006ca8:    866c03db    ..l.    DCD    2255225819
        0x00006cac:    84e201d1    ....    DCD    2229404113
        0x00006cb0:    e4070480    ....    DCD    3825665152
        0x00006cb4:    86800000    ....    DCD    2256535552
        0x00006cb8:    4de301c1    ...M    DCD    1306722753
        0x00006cbc:    80002247    G"..    DCD    2147492423
        0x00006cc0:    08810048    H...    DCD    142671944
        0x00006cc4:    0d133cfc    .<..    DCD    219364604
        0x00006cc8:    84301000    ..0.    DCD    2217742336
        0x00006ccc:    840804a2    ....    DCD    2215117986
        0x00006cd0:    000204da    ....    DCD    132314
        0x00006cd4:    862e2162    b!..    DCD    2251170146
        0x00006cd8:    0de501d9    ....    DCD    233112025
        0x00006cdc:    86201000    .. .    DCD    2250248192
        0x00006ce0:    86e101c1    ....    DCD    2262892993
        0x00006ce4:    08e001c9    ....    DCD    148898249
        0x00006ce8:    00110644    D...    DCD    1115716
        0x00006cec:    79fd0b00    ...y    DCD    2046626560
        0x00006cf0:    21fe0008    ...!    DCD    570294280
        0x00006cf4:    00a30232    2...    DCD    10682930
        0x00006cf8:    3cfc0819    ...<    DCD    1023150105
        0x00006cfc:    04ca8451    Q...    DCD    80381009
        0x00006d00:    01d98602    ....    DCD    31032834
        0x00006d04:    01a186e4    ....    DCD    27363044
        0x00006d08:    4080e4df    ...@    DCD    1082189023
        0x00006d0c:    00408800    ..@.    DCD    4229120
        0x00006d10:    28fc0881    ...(    DCD    687605889
        0x00006d14:    00280271    q.(.    DCD    2622065
        0x00006d18:    00830201    ....    DCD    8585729
        0x00006d1c:    0200e419    ....    DCD    33612825
        0x00006d20:    00c88800    ....    DCD    13142016
        0x00006d24:    03c98480    ....    DCD    63538304
        0x00006d28:    01d9866e    n...    DCD    31032942
        0x00006d2c:    01d186de    ....    DCD    30508766
        0x00006d30:    10000ddd    ....    DCD    268439005
        0x00006d34:    66440808    ..Df    DCD    1715734536
        0x00006d38:    04a28472    r...    DCD    77759602
        0x00006d3c:    03598409    ..Y.    DCD    56198153
        0x00006d40:    0349846a    j.I.    DCD    55149674
        0x00006d44:    00fc006b    k...    DCD    16515179
        0x00006d48:    0010e400    ....    DCD    1106944
        0x00006d4c:    2010ec82    ...     DCD    537980034
        0x00006d50:    00478800    ..G.    DCD    4687872
        0x00006d54:    08fc0880    ....    DCD    150734976
        0x00006d58:    9157e230    0.W.    DCD    2438455856
        0x00006d5c:    02c984be    ....    DCD    46761150
        0x00006d60:    03c384bd    ....    DCD    63145149
        0x00006d64:    6082846e    n..`    DCD    1619166318
        0x00006d68:    0c0000e0    ....    DCD    201326816
        0x00006d6c:    f00879fd    .y..    DCD    4027087357
        0x00006d70:    f0bf711c    .q..    DCD    4039078172
        0x00006d74:    f0c0711c    .q..    DCD    4039143708
        0x00006d78:    f0c1711c    .q..    DCD    4039209244
        0x00006d7c:    e4c2711f    .q..    DCD    3837948191
        0x00006d80:    80c51100    ....    DCD    2160398592
        0x00006d84:    f4e38027    '...    DCD    4108550183
        0x00006d88:    f4c31100    ....    DCD    4106424576
        0x00006d8c:    f4c4711d    .q..    DCD    4106514717
        0x00006d90:    f4c6711c    .q..    DCD    4106645788
        0x00006d94:    86c7711f    .q..    DCD    2261217567
        0x00006d98:    84b201c3    ....    DCD    2226258371
        0x00006d9c:    86e020ca    . ..    DCD    2262835402
        0x00006da0:    80be01a1    ....    DCD    2159935905
        0x00006da4:    02eb8067    g...    DCD    48988263
        0x00006da8:    841000c3    ....    DCD    2215641283
        0x00006dac:    e08f0383    ....    DCD    3767468931
        0x00006db0:    f0002010    . ..    DCD    4026540048
        0x00006db4:    f0bf311c    .1..    DCD    4039061788
        0x00006db8:    f0c0311c    .1..    DCD    4039127324
        0x00006dbc:    f0c1311c    .1..    DCD    4039192860
        0x00006dc0:    e4c2311f    .1..    DCD    3837931807
        0x00006dc4:    80c51100    ....    DCD    2160398592
        0x00006dc8:    f4e18027    '...    DCD    4108419111
        0x00006dcc:    f4c31100    ....    DCD    4106424576
        0x00006dd0:    f4c4311d    .1..    DCD    4106498333
        0x00006dd4:    f4c6311c    .1..    DCD    4106629404
        0x00006dd8:    08c7311f    .1..    DCD    147271967
        0x00006ddc:    80010a00    ....    DCD    2147551744
        0x00006de0:    02e98067    g...    DCD    48857191
        0x00006de4:    001000c3    ....    DCD    1048771
        0x00006de8:    79fd0d00    ...y    DCD    2046627072
        0x00006dec:    03c38408    ....    DCD    63144968
        0x00006df0:    0a00089f    ....    DCD    167774367
        0x00006df4:    3110e400    ...1    DCD    823190528
        0x00006df8:    0010e0f0    ....    DCD    1106160
        0x00006dfc:    8073ea00    ..s.    DCD    2155080192
        0x00006e00:    00cb0200    ....    DCD    13304320
        0x00006e04:    6073ee10    ..s`    DCD    1618210320
        0x00006e08:    00d30200    ....    DCD    13828608
        0x00006e0c:    00078810    ....    DCD    493584
        0x00006e10:    08470980    ..G.    DCD    138873216
        0x00006e14:    08fc0821    !...    DCD    150734881
        0x00006e18:    10000d53    S...    DCD    268438867
        0x00006e1c:    03cb8438    8...    DCD    63669304
        0x00006e20:    0860089c    ..`.    DCD    140511388
        0x00006e24:    04808451    Q...    DCD    75531345
        0x00006e28:    0000e407    ....    DCD    58375
        0x00006e2c:    04a08481    ....    DCD    77628545
        0x00006e30:    20474d08    .MG     DCD    541543688
        0x00006e34:    00488000    ..H.    DCD    4751360
        0x00006e38:    01d18681    ....    DCD    30508673
        0x00006e3c:    01c186f6    ....    DCD    29460214
        0x00006e40:    03db84f7    ....    DCD    64718071
        0x00006e44:    10000d9b    ....    DCD    268438939
        0x00006e48:    3cfc0830    0..<    DCD    1023150128
        0x00006e4c:    035b8413    ..[.    DCD    56329235
        0x00006e50:    034b846a    j.K.    DCD    55280746
        0x00006e54:    04da846b    k...    DCD    81429611
        0x00006e58:    21620003    ..b!    DCD    560070659
        0x00006e5c:    01d9868b    ....    DCD    31032971
        0x00006e60:    10000df9    ....    DCD    268439033
        0x00006e64:    0e000020     ...    DCD    234881056
        0x00006e68:    860879fd    .y..    DCD    2248702461
        0x00006e6c:    86f501c1    ....    DCD    2264203713
        0x00006e70:    08f401c9    ....    DCD    150208969
        0x00006e74:    00110644    D...    DCD    1115716
        0x00006e78:    028f21fe    .!..    DCD    42934782
        0x00006e7c:    081900a3    ....    DCD    135856291
        0x00006e80:    84513cfc    .<Q.    DCD    2219916540
        0x00006e84:    860304ca    ....    DCD    2248344778
        0x00006e88:    86f801d9    ....    DCD    2264400345
        0x00006e8c:    e4f301a1    ....    DCD    3841130913
        0x00006e90:    88006080    .`..    DCD    2281726080
        0x00006e94:    08810040    @...    DCD    142671936
        0x00006e98:    847128fc    .(q.    DCD    2222008572
        0x00006e9c:    e40904a0    ....    DCD    3825796256
        0x00006ea0:    88002010    . ..    DCD    2281709584
        0x00006ea4:    848000c8    ....    DCD    2222981320
        0x00006ea8:    869d03c9    ....    DCD    2258437065
        0x00006eac:    86f201d9    ....    DCD    2264007129
        0x00006eb0:    0df101d1    ....    DCD    233898449
        0x00006eb4:    08081000    ....    DCD    134746112
        0x00006eb8:    02726644    Dfr.    DCD    41051716
        0x00006ebc:    e40a0070    p...    DCD    3825860720
        0x00006ec0:    ec820010    ....    DCD    3967942672
        0x00006ec4:    88002010    . ..    DCD    2281709584
        0x00006ec8:    84800047    G...    DCD    2222981191
        0x00006ecc:    08570359    Y.W.    DCD    139920217
        0x00006ed0:    e23008fc    ..0.    DCD    3794798844
        0x00006ed4:    84c89157    W...    DCD    2227736919
        0x00006ed8:    84bd02c9    ....    DCD    2226979529
        0x00006edc:    849d03c3    ....    DCD    2224882627
        0x00006ee0:    00e06082    .`..    DCD    14704770
        0x00006ee4:    79fd0f00    ...y    DCD    2046627584
        0x00006ee8:    711cf008    ...q    DCD    1897721864
        0x00006eec:    711cf0c9    ...q    DCD    1897722057
        0x00006ef0:    007802ca    ..x.    DCD    7865034
        0x00006ef4:    711cf009    ...q    DCD    1897721865
        0x00006ef8:    711ff0cb    ...q    DCD    1897918667
        0x00006efc:    1100e4cc    ....    DCD    285271244
        0x00006f00:    802780cf    ..'.    DCD    2150072527
        0x00006f04:    1100f4e3    ....    DCD    285275363
        0x00006f08:    711df4cd    ...q    DCD    1897788621
        0x00006f0c:    711cf4ce    ...q    DCD    1897723086
        0x00006f10:    711ff4d0    ...q    DCD    1897919696
        0x00006f14:    1100e0d1    ....    DCD    285270225
        0x00006f18:    806780d4    ..g.    DCD    2154266836
        0x00006f1c:    1100f0e3    ....    DCD    285274339
        0x00006f20:    711df0d2    ...q    DCD    1897787602
        0x00006f24:    711cf0d3    ...q    DCD    1897722067
        0x00006f28:    711ff0d5    ...q    DCD    1897918677
        0x00006f2c:    1100e4d6    ....    DCD    285271254
        0x00006f30:    802780d9    ..'.    DCD    2150072537
        0x00006f34:    1100f4e3    ....    DCD    285275363
        0x00006f38:    711df4d7    ...q    DCD    1897788631
        0x00006f3c:    711cf4d8    ...q    DCD    1897723096
        0x00006f40:    711ff4da    ...q    DCD    1897919706
        0x00006f44:    01c386db    ....    DCD    29591259
        0x00006f48:    034984b1    ..I.    DCD    55149745
        0x00006f4c:    80678065    e.g.    DCD    2154266725
        0x00006f50:    00c302eb    ....    DCD    12780267
        0x00006f54:    03838410    ....    DCD    58950672
        0x00006f58:    3110e0a7    ...1    DCD    823189671
        0x00006f5c:    20ca84c8    ...     DCD    550143176
        0x00006f60:    100000e0    ....    DCD    268435680
        0x00006f64:    f00879fd    .y..    DCD    4027087357
        0x00006f68:    f0c9311c    .1..    DCD    4039717148
        0x00006f6c:    f0ca311c    .1..    DCD    4039782684
        0x00006f70:    f0cb311c    .1..    DCD    4039848220
        0x00006f74:    e4cc311f    .1..    DCD    3838587167
        0x00006f78:    80cf1100    ....    DCD    2161053952
        0x00006f7c:    f4e18027    '...    DCD    4108419111
        0x00006f80:    f4cd1100    ....    DCD    4107079936
        0x00006f84:    f4ce311d    .1..    DCD    4107153693
        0x00006f88:    f4d0311c    .1..    DCD    4107284764
        0x00006f8c:    e0d1311f    .1..    DCD    3771805983
        0x00006f90:    80d41100    ....    DCD    2161381632
        0x00006f94:    f0e18067    g...    DCD    4041310311
        0x00006f98:    f0d21100    ....    DCD    4040298752
        0x00006f9c:    f0d3311d    .1..    DCD    4040372509
        0x00006fa0:    f0d5311c    .1..    DCD    4040503580
        0x00006fa4:    e4d6311f    .1..    DCD    3839242527
        0x00006fa8:    80d91100    ....    DCD    2161709312
        0x00006fac:    f4e18027    '...    DCD    4108419111
        0x00006fb0:    f4d71100    ....    DCD    4107735296
        0x00006fb4:    f4d8311d    .1..    DCD    4107809053
        0x00006fb8:    f4da311c    .1..    DCD    4107940124
        0x00006fbc:    08db311f    .1..    DCD    148582687
        0x00006fc0:    80010a00    ....    DCD    2147551744
        0x00006fc4:    02e98067    g...    DCD    48857191
        0x00006fc8:    841000c3    ....    DCD    2215641283
        0x00006fcc:    08af03c3    ....    DCD    145687491
        0x00006fd0:    e4000a00    ....    DCD    3825207808
        0x00006fd4:    e0e63110    .1..    DCD    3773182224
        0x00006fd8:    ea000010    ....    DCD    3925868560
        0x00006fdc:    00008071    q...    DCD    32881
        0x00006fe0:    79fd1100    ...y    DCD    2046628096
        0x00006fe4:    00cb0208    ....    DCD    13304328
        0x00006fe8:    6071ee10    ..q`    DCD    1618079248
        0x00006fec:    00d30200    ....    DCD    13828608
        0x00006ff0:    00078810    ....    DCD    493584
        0x00006ff4:    08470980    ..G.    DCD    138873216
        0x00006ff8:    08fc0821    !...    DCD    150734881
        0x00006ffc:    10000d53    S...    DCD    268438867
        0x00007000:    03cb8438    8...    DCD    63669304
        0x00007004:    0860088c    ..`.    DCD    140511372
        0x00007008:    04808451    Q...    DCD    75531345
        0x0000700c:    0000e407    ....    DCD    58375
        0x00007010:    04a08481    ....    DCD    77628545
        0x00007014:    20474d08    .MG     DCD    541543688
        0x00007018:    03db8400    ....    DCD    64717824
        0x0000701c:    0048808b    ..H.    DCD    4751499
        0x00007020:    01d98681    ....    DCD    31032961
        0x00007024:    01c186ec    ....    DCD    29460204
        0x00007028:    10000ded    ....    DCD    268439021
        0x0000702c:    3cfc0838    8..<    DCD    1023150136
        0x00007030:    035b8412    ..[.    DCD    56329234
        0x00007034:    034b8457    W.K.    DCD    55280727
        0x00007038:    04d28465    e...    DCD    80905317
        0x0000703c:    21620004    ..b!    DCD    560070660
        0x00007040:    01d186ff    ....    DCD    30508799
        0x00007044:    10000def    ....    DCD    268439023
        0x00007048:    01c18620     ...    DCD    29460000
        0x0000704c:    01c986eb    ....    DCD    29984491
        0x00007050:    064408ea    ..D.    DCD    105122026
        0x00007054:    00700211    ..p.    DCD    7340561
        0x00007058:    22fe0006    ..."    DCD    587071494
        0x0000705c:    12000004    ....    DCD    301989892
        0x00007060:    020879fd    .y..    DCD    34109949
        0x00007064:    081900a3    ....    DCD    135856291
        0x00007068:    84713cfc    .<q.    DCD    2222013692
        0x0000706c:    860404ca    ....    DCD    2248410314
        0x00007070:    86ee01d1    ....    DCD    2263744977
        0x00007074:    02e901a1    ....    DCD    48824737
        0x00007078:    e4060070    p...    DCD    3825598576
        0x0000707c:    88008080    ....    DCD    2281734272
        0x00007080:    e6810040    @...    DCD    3867213888
        0x00007084:    e2b2f16e    n...    DCD    3803378030
        0x00007088:    4d00e06f    o..M    DCD    1291903087
        0x0000708c:    48fa1140    @..H    DCD    1224347968
        0x00007090:    88000040    @...    DCD    2281701440
        0x00007094:    885f1340    @._.    DCD    2287932224
        0x00007098:    e2621300    ..b.    DCD    3798078208
        0x0000709c:    e6b1f171    q...    DCD    3870421361
        0x000070a0:    4800e073    s..H    DCD    1208017011
        0x000070a4:    08fc1140    @...    DCD    150737216
        0x000070a8:    4d5128fc    .(QM    DCD    1297164540
        0x000070ac:    88000040    @...    DCD    2281701440
        0x000070b0:    84611300    ..a.    DCD    2220954368
        0x000070b4:    e00904a0    ....    DCD    3758687392
        0x000070b8:    88002010    . ..    DCD    2281709584
        0x000070bc:    84800088    ....    DCD    2222981256
        0x000070c0:    868d03c9    ....    DCD    2257388489
        0x000070c4:    86e801d9    ....    DCD    2263351769
        0x000070c8:    0de701d1    ....    DCD    233243089
        0x000070cc:    08081000    ....    DCD    134746112
        0x000070d0:    88726644    Dfr.    DCD    2289198660
        0x000070d4:    e4641340    @.d.    DCD    3831763776
        0x000070d8:    00820010    ....    DCD    8519696
        0x000070dc:    79fd1300    ...y    DCD    2046628608
        0x000070e0:    2010ec08    ...     DCD    537979912
        0x000070e4:    00478800    ..G.    DCD    4687872
        0x000070e8:    08fc0880    ....    DCD    150734976
        0x000070ec:    03818431    1...    DCD    58819633
        0x000070f0:    0000e0a7    ....    DCD    57511
        0x000070f4:    e075e681    ..u.    DCD    3765823105
        0x000070f8:    11404800    .H@.    DCD    289425408
        0x000070fc:    00404dfb    .M@.    DCD    4214267
        0x00007100:    13008800    ....    DCD    318801920
        0x00007104:    03cb8460    `...    DCD    63669344
        0x00007108:    01cb868d    ....    DCD    30115469
        0x0000710c:    034984b3    ..I.    DCD    55149747
        0x00007110:    13608837    7.`.    DCD    325093431
        0x00007114:    03c18463    c...    DCD    63013987
        0x00007118:    03c9845f    _...    DCD    63538271
        0x0000711c:    08fc0860    `...    DCD    150734944
        0x00007120:    03d18431    1...    DCD    64062513
        0x00007124:    03d98462    b...    DCD    64586850
        0x00007128:    1a001061    a...    DCD    436211809
        0x0000712c:    00c30222    "...    DCD    12780066
        0x00007130:    48fc0810    ...H    DCD    1224476688
        0x00007134:    03c18412    ....    DCD    63013906
        0x00007138:    08200c64    d. .    DCD    136318052
        0x0000713c:    01a18611    ....    DCD    27362833
        0x00007140:    8057e2a7    ..W.    DCD    2153243303
        0x00007144:    00db0200    ....    DCD    14352896
        0x00007148:    20da8410    ...     DCD    551191568
        0x0000714c:    311cf0e0    ...1    DCD    823980256
        0x00007150:    311cf0a8    ...1    DCD    823980200
        0x00007154:    007802a9    ..x.    DCD    7865001
        0x00007158:    14000005    ....    DCD    335544325
        0x0000715c:    f00879fd    .y..    DCD    4027087357
        0x00007160:    f0aa311c    .1..    DCD    4037685532
        0x00007164:    e4ab311f    .1..    DCD    3836424479
        0x00007168:    80ae1100    ....    DCD    2158891264
        0x0000716c:    f4e18027    '...    DCD    4108419111
        0x00007170:    f4ac1100    ....    DCD    4104917248
        0x00007174:    f4ad311d    .1..    DCD    4104991005
        0x00007178:    84af311c    .1..    DCD    2226073884
        0x0000717c:    f43f0351    Q.?.    DCD    4097770321
        0x00007180:    86b0311f    .1..    DCD    2259693855
        0x00007184:    80a701a1    ....    DCD    2158428577
        0x00007188:    10e98067    g...    DCD    283738215
        0x0000718c:    02021800    ....    DCD    33691648
        0x00007190:    e01000c3    ....    DCD    3759145155
        0x00007194:    f0002010    . ..    DCD    4026540048
        0x00007198:    f0a8511c    .Q..    DCD    4037562652
        0x0000719c:    f0a9511c    .Q..    DCD    4037628188
        0x000071a0:    f0aa511c    .Q..    DCD    4037693724
        0x000071a4:    e4ab511f    .Q..    DCD    3836432671
        0x000071a8:    80ae1100    ....    DCD    2158891264
        0x000071ac:    f4e28027    '...    DCD    4108484647
        0x000071b0:    f4ac1100    ....    DCD    4104917248
        0x000071b4:    f4ad511d    .Q..    DCD    4104999197
        0x000071b8:    f4af511c    .Q..    DCD    4105130268
        0x000071bc:    08b0511f    .Q..    DCD    145772831
        0x000071c0:    807018fc    ..p.    DCD    2154830076
        0x000071c4:    02ea8067    g...    DCD    48922727
        0x000071c8:    841000d3    ....    DCD    2215641299
        0x000071cc:    840d04ca    ....    DCD    2215445706
        0x000071d0:    080a04c2    ....    DCD    134874306
        0x000071d4:    003158fc    .X1.    DCD    3234044
        0x000071d8:    79fd1500    ...y    DCD    2046629120
        0x000071dc:    0a000808    ....    DCD    167774216
        0x000071e0:    04ca8400    ....    DCD    80380928
        0x000071e4:    0a00080c    ....    DCD    167774220
        0x000071e8:    1110e421    !...    DCD    286319649
        0x000071ec:    2010e09d    ...     DCD    537976989
        0x000071f0:    2065ea00    ..e     DCD    543549952
        0x000071f4:    00cb0200    ....    DCD    13304320
        0x000071f8:    0065ee10    ..e.    DCD    6680080
        0x000071fc:    00078800    ....    DCD    493568
        0x00007200:    08470980    ..G.    DCD    138873216
        0x00007204:    04da8421    !...    DCD    81429537
        0x00007208:    03cb840b    ....    DCD    63669259
        0x0000720c:    034b8429    ).K.    DCD    55280681
        0x00007210:    03538437    7.S.    DCD    55804983
        0x00007214:    0258023f    ?.X.    DCD    39322175
        0x00007218:    00d302bc    ....    DCD    13828796
        0x0000721c:    08fc0810    ....    DCD    150734864
        0x00007220:    10000d53    S...    DCD    268438867
        0x00007224:    08600838    8.`.    DCD    140511288
        0x00007228:    04808451    Q...    DCD    75531345
        0x0000722c:    0000e407    ....    DCD    58375
        0x00007230:    04a08481    ....    DCD    77628545
        0x00007234:    20474d08    .MG     DCD    541543688
        0x00007238:    00488000    ..H.    DCD    4751360
        0x0000723c:    01d18681    ....    DCD    30508673
        0x00007240:    01c186a3    ....    DCD    29460131
        0x00007244:    03db84a4    ....    DCD    64717988
        0x00007248:    10000d28    (...    DCD    268438824
        0x0000724c:    3cfc0830    0..<    DCD    1023150128
        0x00007250:    04da8413    ....    DCD    81429523
        0x00007254:    16000005    ....    DCD    369098757
        0x00007258:    000879fd    .y..    DCD    555517
        0x0000725c:    867e2262    b"~.    DCD    2256413282
        0x00007260:    0da601d9    ....    DCD    228983257
        0x00007264:    86201000    .. .    DCD    2250248192
        0x00007268:    86a201c1    ....    DCD    2258764225
        0x0000726c:    08a101c9    ....    DCD    144769481
        0x00007270:    00110644    D...    DCD    1115716
        0x00007274:    028222fe    ."..    DCD    42083070
        0x00007278:    081900a3    ....    DCD    135856291
        0x0000727c:    84513cfc    .<Q.    DCD    2219916540
        0x00007280:    860504ca    ....    DCD    2248475850
        0x00007284:    86a501d9    ....    DCD    2258960857
        0x00007288:    e4a001a1    ....    DCD    3835691425
        0x0000728c:    8800a080    ....    DCD    2281742464
        0x00007290:    08810040    @...    DCD    142671936
        0x00007294:    847128fc    .(q.    DCD    2222008572
        0x00007298:    e40904a0    ....    DCD    3825796256
        0x0000729c:    88002010    . ..    DCD    2281709584
        0x000072a0:    848200c8    ....    DCD    2223112392
        0x000072a4:    0d2a03c9    ..*.    DCD    220857289
        0x000072a8:    86481000    ..H.    DCD    2252869632
        0x000072ac:    869f01d9    ....    DCD    2258567641
        0x000072b0:    089e01c1    ....    DCD    144572865
        0x000072b4:    86706644    Dfp.    DCD    2255513156
        0x000072b8:    84c002d9    ....    DCD    2227176153
        0x000072bc:    842d0351    Q.-.    DCD    2217542481
        0x000072c0:    002c0349    I.,.    DCD    2884425
        0x000072c4:    e40000fc    ....    DCD    3825205500
        0x000072c8:    ec804010    .@..    DCD    3967827984
        0x000072cc:    88002010    . ..    DCD    2281709584
        0x000072d0:    00800047    G...    DCD    8388679
        0x000072d4:    79fd1700    ...y    DCD    2046629632
        0x000072d8:    69810408    ...i    DCD    1770062856
        0x000072dc:    04a08421    !...    DCD    77628449
        0x000072e0:    2010e40a    ...     DCD    537977866
        0x000072e4:    04a08400    ....    DCD    77628416
        0x000072e8:    03cb840c    ....    DCD    63669260
        0x000072ec:    0040882a    *.@.    DCD    4229162
        0x000072f0:    1a001081    ....    DCD    436211841
        0x000072f4:    0000e403    ....    DCD    58371
        0x000072f8:    00408800    ..@.    DCD    4229120
        0x000072fc:    04c88480    ....    DCD    80249984
        0x00007300:    08200c0d    .. .    DCD    136317965
        0x00007304:    03418409    ..A.    DCD    54625289
        0x00007308:    02c186bf    ....    DCD    46237375
        0x0000730c:    028184c1    ....    DCD    42042561
        0x00007310:    008284bc    ....    DCD    8553660
        0x00007314:    02c986e0    ....    DCD    46761696
        0x00007318:    1200e0c2    ....    DCD    302047426
        0x0000731c:    40828498    ...@    DCD    1082295448
        0x00007320:    048284e0    ....    DCD    75662560
        0x00007324:    521cf00f    ...R    DCD    1377628175
        0x00007328:    521cf099    ...R    DCD    1377628313
        0x0000732c:    521cf09a    ...R    DCD    1377628314
        0x00007330:    521ff09b    ...R    DCD    1377824923
        0x00007334:    1200e49c    ....    DCD    302048412
        0x00007338:    8027809f    ..'.    DCD    2150072479
        0x0000733c:    1200f4e2    ....    DCD    302052578
        0x00007340:    521df49d    ...R    DCD    1377694877
        0x00007344:    521cf49e    ...R    DCD    1377629342
        0x00007348:    521ff4a0    ...R    DCD    1377825952
        0x0000734c:    00788fa1    ..x.    DCD    7901089
        0x00007350:    18000000    ....    DCD    402653184
        0x00007354:    800879fd    .y..    DCD    2148039165
        0x00007358:    02e18067    g...    DCD    48332903
        0x0000735c:    0c1000d3    ....    DCD    202375379
        0x00007360:    0844511d    .QD.    DCD    138694941
        0x00007364:    0d504664    dFP.    DCD    223364708
        0x00007368:    08181000    ....    DCD    135794688
        0x0000736c:    84706644    Dfp.    DCD    2221958724
        0x00007370:    e00061c2    .a..    DCD    3758121410
        0x00007374:    f0a21210    ....    DCD    4037153296
        0x00007378:    f0a3321c    .2..    DCD    4037227036
        0x0000737c:    f0a4321c    .2..    DCD    4037292572
        0x00007380:    f0a5321c    .2..    DCD    4037358108
        0x00007384:    e4a6321f    .2..    DCD    3836097055
        0x00007388:    80a91200    ....    DCD    2158563840
        0x0000738c:    f4e18027    '...    DCD    4108419111
        0x00007390:    f4a71200    ....    DCD    4104589824
        0x00007394:    f4a8321d    .2..    DCD    4104663581
        0x00007398:    f4aa321c    .2..    DCD    4104794652
        0x0000739c:    84ab321f    .2..    DCD    2225811999
        0x000073a0:    80b70359    Y...    DCD    2159477593
        0x000073a4:    e0e98067    g...    DCD    3773399143
        0x000073a8:    84ac1200    ....    DCD    2225869312
        0x000073ac:    84006182    .a..    DCD    2214617474
        0x000073b0:    f0e06082    .`..    DCD    4041236610
        0x000073b4:    f0ad721c    .r..    DCD    4037898780
        0x000073b8:    f0ae721c    .r..    DCD    4037964316
        0x000073bc:    f0af721c    .r..    DCD    4038029852
        0x000073c0:    e4b0721f    .r..    DCD    3836768799
        0x000073c4:    80b31200    ....    DCD    2159219200
        0x000073c8:    f4e38027    '...    DCD    4108550183
        0x000073cc:    00b11200    ....    DCD    11604480
        0x000073d0:    79fd1900    ...y    DCD    2046630144
        0x000073d4:    721df408    ...r    DCD    1914565640
        0x000073d8:    721cf4b2    ...r    DCD    1914500274
        0x000073dc:    02c186b4    ....    DCD    46237364
        0x000073e0:    f281e0b5    ....    DCD    4068597941
        0x000073e4:    601ff4b6    ...`    DCD    1612706998
        0x000073e8:    02a18680    ....    DCD    44140160
        0x000073ec:    806780b7    ..g.    DCD    2154266807
        0x000073f0:    048284eb    ....    DCD    75662571
        0x000073f4:    001cf00e    ....    DCD    1896462
        0x000073f8:    121cf000    ....    DCD    303886336
        0x000073fc:    121cf0b8    ....    DCD    303886520
        0x00007400:    121ff0b9    ....    DCD    304083129
        0x00007404:    1200e4ba    ....    DCD    302048442
        0x00007408:    802780bd    ..'.    DCD    2150072509
        0x0000740c:    1200f4e0    ....    DCD    302052576
        0x00007410:    c081e0bb    ....    DCD    3229737147
        0x00007414:    121df481    ....    DCD    303953025
        0x00007418:    121cf4bc    ....    DCD    303887548
        0x0000741c:    121ff4be    ....    DCD    304084158
        0x00007420:    034b84bf    ..K.    DCD    55280831
        0x00007424:    0007882c    ,...    DCD    493612
        0x00007428:    2dfc0881    ...-    DCD    771491969
        0x0000742c:    80678019    ..g.    DCD    2154266649
        0x00007430:    00d302e8    ....    DCD    13828840
        0x00007434:    02fd8e10    ....    DCD    50171408
        0x00007438:    1a0010bc    ....    DCD    436211900
        0x0000743c:    02d18601    ....    DCD    47285761
        0x00007440:    02c986c0    ....    DCD    46761664
        0x00007444:    02c186c1    ....    DCD    46237377
        0x00007448:    b257e2c2    ..W.    DCD    2992104130
        0x0000744c:    1a000098    ....    DCD    436207768
        0x00007450:    860879fd    .y..    DCD    2248702461
        0x00007454:    849902a1    ....    DCD    2224620193
        0x00007458:    842d0353    S.-.    DCD    2217542483
        0x0000745c:    84b7035b    [...    DCD    2226586459
        0x00007460:    842f0351    Q./.    DCD    2217673553
        0x00007464:    84cf0359    Y...    DCD    2228159321
        0x00007468:    84100482    ....    DCD    2215642242
        0x0000746c:    84bf0343    C...    DCD    2227110723
        0x00007470:    84e04082    .@..    DCD    2229289090
        0x00007474:    842e0341    A...    DCD    2217608001
        0x00007478:    f0e06082    .`..    DCD    4041236610
        0x0000747c:    f000401c    .@..    DCD    4026548252
        0x00007480:    f09a521c    .R..    DCD    4036645404
        0x00007484:    f09b521c    .R..    DCD    4036710940
        0x00007488:    e49c521f    .R..    DCD    3835449887
        0x0000748c:    809f1200    ....    DCD    2157908480
        0x00007490:    f4e28027    '...    DCD    4108484647
        0x00007494:    f49d1200    ....    DCD    4103934464
        0x00007498:    f49e521d    .R..    DCD    4104016413
        0x0000749c:    f4a0521c    .R..    DCD    4104147484
        0x000074a0:    86a1521f    .R..    DCD    2258719263
        0x000074a4:    80a202a1    ....    DCD    2158101153
        0x000074a8:    84ea8067    g...    DCD    2229960807
        0x000074ac:    8e2f0353    S./.    DCD    2385445715
        0x000074b0:    8fbd02fd    ....    DCD    2411528957
        0x000074b4:    02000030    0...    DCD    33554480
        0x000074b8:    0c1000db    ....    DCD    202375387
        0x000074bc:    086c111c    ..l.    DCD    141299996
        0x000074c0:    0d716664    dfq.    DCD    225535588
        0x000074c4:    08301000    ..0.    DCD    137367552
        0x000074c8:    00514644    DFQ.    DCD    5326404
        0x000074cc:    79fd1b00    ...y    DCD    2046630656
        0x000074d0:    41ca8408    ...A    DCD    1103791112
        0x000074d4:    2010e000    ...     DCD    537976832
        0x000074d8:    121cf000    ....    DCD    303886336
        0x000074dc:    121cf0a3    ....    DCD    303886499
        0x000074e0:    121cf0a4    ....    DCD    303886500
        0x000074e4:    121ff0a5    ....    DCD    304083109
        0x000074e8:    1200e4a6    ....    DCD    302048422
        0x000074ec:    802780a9    ..'.    DCD    2150072489
        0x000074f0:    1200f4e0    ....    DCD    302052576
        0x000074f4:    121df4a7    ....    DCD    303953063
        0x000074f8:    121cf4a8    ....    DCD    303887528
        0x000074fc:    121ff4aa    ....    DCD    304084138
        0x00007500:    035184ab    ..Q.    DCD    55674027
        0x00007504:    806780c7    ..g.    DCD    2154266823
        0x00007508:    1200e0e8    ....    DCD    302047464
        0x0000750c:    418284ac    ...A    DCD    1099072684
        0x00007510:    40828400    ...@    DCD    1082295296
        0x00007514:    521cf0e0    ...R    DCD    1377628384
        0x00007518:    521cf0ad    ...R    DCD    1377628333
        0x0000751c:    521cf0ae    ...R    DCD    1377628334
        0x00007520:    521ff0af    ...R    DCD    1377824943
        0x00007524:    1200e4b0    ....    DCD    302048432
        0x00007528:    802780b3    ..'.    DCD    2150072499
        0x0000752c:    1200f4e2    ....    DCD    302052578
        0x00007530:    521df4b1    ...R    DCD    1377694897
        0x00007534:    521cf4b2    ...R    DCD    1377629362
        0x00007538:    02c986b4    ....    DCD    46761652
        0x0000753c:    1282e0b5    ....    DCD    310567093
        0x00007540:    401ff4b6    ...@    DCD    1075836086
        0x00007544:    02a18681    ....    DCD    44140161
        0x00007548:    1c0000b7    ....    DCD    469762231
        0x0000754c:    800879fd    .y..    DCD    2148039165
        0x00007550:    84ea8067    g...    DCD    2229960807
        0x00007554:    f0110482    ....    DCD    4027647106
        0x00007558:    f000601c    .`..    DCD    4026556444
        0x0000755c:    f0b8721c    .r..    DCD    4038619676
        0x00007560:    f0b9721c    .r..    DCD    4038685212
        0x00007564:    e4ba721f    .r..    DCD    3837424159
        0x00007568:    80bd1200    ....    DCD    2159874560
        0x0000756c:    f4e38027    '...    DCD    4108550183
        0x00007570:    f4bb1200    ....    DCD    4105900544
        0x00007574:    f4bc721d    .r..    DCD    4105990685
        0x00007578:    f4be721c    .r..    DCD    4106121756
        0x0000757c:    e0bf721f    .r..    DCD    3770642975
        0x00007580:    80802082    . ..    DCD    2155880578
        0x00007584:    88eb8067    g...    DCD    2297135207
        0x00007588:    08800007    ....    DCD    142606343
        0x0000758c:    02180dfc    ....    DCD    35130876
        0x00007590:    0c1000d3    ....    DCD    202375379
        0x00007594:    84400860    `.@.    DCD    2218788960
        0x00007598:    842e0343    C...    DCD    2217608003
        0x0000759c:    02bc0281    ....    DCD    45875841
        0x000075a0:    e41000a3    ....    DCD    3826253987
        0x000075a4:    02000000    ....    DCD    33554432
        0x000075a8:    02180083    ....    DCD    35127427
        0x000075ac:    881000a3    ....    DCD    2282750115
        0x000075b0:    e4231347    G.#.    DCD    3827503943
        0x000075b4:    88000000    ....    DCD    2281701376
        0x000075b8:    86241347    G.$.    DCD    2250511175
        0x000075bc:    849502c9    ....    DCD    2224358089
        0x000075c0:    842303c1    ..#.    DCD    2216887233
        0x000075c4:    00c70353    S...    DCD    13042515
        0x000075c8:    79fd1d00    ...y    DCD    2046631168
        0x000075cc:    035b8408    ..[.    DCD    56329224
        0x000075d0:    034002cf    ..@.    DCD    54526671
        0x000075d4:    ff110226    &...    DCD    4279304742
        0x000075d8:    11ff00f8    ....    DCD    301924600
        0x000075dc:    00fc004e    N...    DCD    16515150
        0x000075e0:    03400200    ..@.    DCD    54526464
        0x000075e4:    02c98627    '...    DCD    46761511
        0x000075e8:    03c18495    ....    DCD    63014037
        0x000075ec:    11ff0024    $...    DCD    301924388
        0x000075f0:    00fc004e    N...    DCD    16515150
        0x000075f4:    01c98600    ....    DCD    29984256
        0x000075f8:    03cb84fd    ....    DCD    63669501
        0x000075fc:    03c802d0    ....    DCD    63439568
        0x00007600:    04ca8427    '...    DCD    80380967
        0x00007604:    03c80200    ....    DCD    63439360
        0x00007608:    03400224    $.@.    DCD    54526500
        0x0000760c:    03480226    &.H.    DCD    55050790
        0x00007610:    03500223    #.P.    DCD    55575075
        0x00007614:    04ca84d0    ....    DCD    80381136
        0x00007618:    23ff0001    ...#    DCD    603914241
        0x0000761c:    00fc008a    ....    DCD    16515210
        0x00007620:    02a18400    ....    DCD    44139520
        0x00007624:    6064e6bc    ..d`    DCD    1617225404
        0x00007628:    00280200    ..(.    DCD    2621952
        0x0000762c:    005a8500    ..Z.    DCD    5932288
        0x00007630:    02a08480    ....    DCD    44074112
        0x00007634:    00280200    ..(.    DCD    2621952
        0x00007638:    00cb0201    ....    DCD    13304321
        0x0000763c:    02a08414    ....    DCD    44074004
        0x00007640:    00d30200    ....    DCD    13828608
        0x00007644:    1e000014    ....    DCD    503316500
        0x00007648:    080879fd    .y..    DCD    134773245
        0x0000764c:    883100fc    ..1.    DCD    2284912892
        0x00007650:    08bc1247    G...    DCD    146543175
        0x00007654:    845000fc    ..P.    DCD    2219835644
        0x00007658:    082403a1    ..$.    DCD    136577953
        0x0000765c:    087a26fc    .&z.    DCD    142223100
        0x00007660:    e6f806fc    ....    DCD    3875014396
        0x00007664:    8600a057    W...    DCD    2248187991
        0x00007668:    849602c9    ....    DCD    2224423625
        0x0000766c:    84d103c3    ....    DCD    2228290499
        0x00007670:    88d203d3    ....    DCD    2295464915
        0x00007674:    02bd1247    G...    DCD    45945415
        0x00007678:    00d40340    @...    DCD    13894464
        0x0000767c:    004e11ff    ..N.    DCD    5116415
        0x00007680:    020000fc    ....    DCD    33554684
        0x00007684:    84d30340    @...    DCD    2228421440
        0x00007688:    86d203c1    ....    DCD    2261910465
        0x0000768c:    009702c9    ....    DCD    9896649
        0x00007690:    004e11ff    ..N.    DCD    5116415
        0x00007694:    020000fc    ....    DCD    33554684
        0x00007698:    02d40340    @...    DCD    47448896
        0x0000769c:    02d30348    H...    DCD    47383368
        0x000076a0:    00da0350    P...    DCD    14287696
        0x000076a4:    005511ff    ..U.    DCD    5575167
        0x000076a8:    020000fc    ....    DCD    33554684
        0x000076ac:    02bd0250    P...    DCD    45941328
        0x000076b0:    84da03c8    ....    DCD    2228880328
        0x000076b4:    8e000452    R...    DCD    2382365778
        0x000076b8:    84bc02fd    ....    DCD    2226914045
        0x000076bc:    000104ca    ....    DCD    66762
        0x000076c0:    00b010ff    ....    DCD    11538687
        0x000076c4:    79fd1f00    ...y    DCD    2046631680
        0x000076c8:    21fe8c08    ...!    DCD    570330120
        0x000076cc:    04008400    ....    DCD    67142656
        0x000076d0:    00fc0006    ....    DCD    16515078
        0x000076d4:    00c00200    ....    DCD    12583424
        0x000076d8:    50fc0000    ...P    DCD    1358692352
        0x000076dc:    00008f00    ....    DCD    36608
        0x000076e0:    03a18412    ....    DCD    60916754
        0x000076e4:    0020e066    f. .    DCD    2154598
        0x000076e8:    60d20200    ...`    DCD    1624375808
        0x000076ec:    a0404000    .@@.    DCD    2688565248
        0x000076f0:    c0008000    ....    DCD    3221258240
        0x000076f4:    08fc0880    ....    DCD    150734976
        0x000076f8:    58fc0838    8..X    DCD    1492912184
        0x000076fc:    ff008f11    ....    DCD    4278226705
        0x00007700:    2010e0ff    ...     DCD    537977087
        0x00007704:    04588400    ..X.    DCD    72909824
        0x00007708:    03a18401    ....    DCD    60916737
        0x0000770c:    03c18468    h...    DCD    63013992
        0x00007710:    00e0e467    g...    DCD    14738535
        0x00007714:    01c98600    ....    DCD    29984256
        0x00007718:    a040459b    .E@.    DCD    2688566683
        0x0000771c:    c0408000    ..@.    DCD    3225452544
        0x00007720:    68fc0883    ...h    DCD    1761347715
        0x00007724:    58fc083b    ;..X    DCD    1492912187
        0x00007728:    04408472    r.@.    DCD    71337074
        0x0000772c:    4010e402    ...@    DCD    1074848770
        0x00007730:    41a08400    ...A    DCD    1101038592
        0x00007734:    20474000    .@G     DCD    541540352
        0x00007738:    00d30200    ....    DCD    13828608
        0x0000773c:    28000810    ...(    DCD    671090704
        0x00007740:    20000043    C..     DCD    536870979
        0x00007744:    800879fd    .y..    DCD    2148039165
        0x00007748:    0d82c000    ....    DCD    226672640
        0x0000774c:    41401000    ..@A    DCD    1094717440
        0x00007750:    84002047    G ..    DCD    2214600775
        0x00007754:    866603db    ..f.    DCD    2254832603
        0x00007758:    089c01d9    ....    DCD    144441817
        0x0000775c:    08125cfc    .\..    DCD    135421180
        0x00007760:    84716644    Dfq.    DCD    2222024260
        0x00007764:    00000482    ....    DCD    1154
        0x00007768:    020000fc    ....    DCD    33554684
        0x0000776c:    801a0083    ....    DCD    2149187715
        0x00007770:    e082c000    ....    DCD    3766665216
        0x00007774:    84810000    ....    DCD    2223046656
        0x00007778:    0d6903c9    ..i.    DCD    224986057
        0x0000777c:    08481000    ..H.    DCD    138940416
        0x00007780:    00325cfc    .\2.    DCD    3300604
        0x00007784:    020000fc    ....    DCD    33554684
        0x00007788:    861a00a3    ....    DCD    2249851043
        0x0000778c:    089b01d1    ....    DCD    144376273
        0x00007790:    80726644    Dfr.    DCD    2154980932
        0x00007794:    0c830007    ....    DCD    209911815
        0x00007798:    84180c60    `...    DCD    2216168544
        0x0000779c:    e00004d8    ....    DCD    3758097624
        0x000077a0:    80004010    .@..    DCD    2147500048
        0x000077a4:    08820007    ....    DCD    142737415
        0x000077a8:    0c632800    .(c.    DCD    207824896
        0x000077ac:    84310c20     .1.    DCD    2217806880
        0x000077b0:    846803db    ..h.    DCD    2221409243
        0x000077b4:    846903cb    ..i.    DCD    2221474763
        0x000077b8:    006703c3    ..g.    DCD    6751171
        0x000077bc:    000050fc    .P..    DCD    20732
        0x000077c0:    05fd2100    .!..    DCD    100475136
        0x000077c4:    00008f08    ....    DCD    36616
        0x000077c8:    00000001    ....    DCD    1
        0x000077cc:    1800787f    .x..    DCD    402684031
        0x000077d0:    003015fd    ..0.    DCD    3151357
        0x000077d4:    00000000    ....    DCD    0
        0x000077d8:    00000000    ....    DCD    0
        0x000077dc:    00000000    ....    DCD    0
        0x000077e0:    00000000    ....    DCD    0
        0x000077e4:    00000000    ....    DCD    0
        0x000077e8:    787f0000    ...x    DCD    2021588992
        0x000077ec:    09fd1b00    ....    DCD    167582464
        0x000077f0:    00000078    x...    DCD    120
        0x000077f4:    00000000    ....    DCD    0
        0x000077f8:    1c000000    ....    DCD    469762048
        0x000077fc:    000835fd    .5..    DCD    538109
        0x00007800:    00000080    ....    DCD    128
        0x00007804:    00000000    ....    DCD    0
        0x00007808:    00300300    ..0.    DCD    3146496
        0x0000780c:    00380300    ..8.    DCD    3670784
        0x00007810:    00400300    ..@.    DCD    4195072
        0x00007814:    00480300    ..H.    DCD    4719360
        0x00007818:    00000000    ....    DCD    0
        0x0000781c:    00000000    ....    DCD    0
        0x00007820:    00000000    ....    DCD    0
        0x00007824:    00000000    ....    DCD    0
        0x00007828:    00000000    ....    DCD    0
        0x0000782c:    00000000    ....    DCD    0
        0x00007830:    00000000    ....    DCD    0
        0x00007834:    787f0000    ...x    DCD    2021588992
        0x00007838:    21fd1c00    ...!    DCD    570235904
        0x0000783c:    0300003c    <...    DCD    50331708
        0x00007840:    00000050    P...    DCD    80
        0x00007844:    00000000    ....    DCD    0
        0x00007848:    00000000    ....    DCD    0
        0x0000784c:    00000000    ....    DCD    0
        0x00007850:    00000000    ....    DCD    0
        0x00007854:    00000000    ....    DCD    0
        0x00007858:    00000000    ....    DCD    0
        0x0000785c:    00000000    ....    DCD    0
        0x00007860:    1c00787f    .x..    DCD    469792895
        0x00007864:    005c21fd    .!\.    DCD    6038013
        0x00007868:    00580300    ..X.    DCD    5767936
        0x0000786c:    00000000    ....    DCD    0
        0x00007870:    00000000    ....    DCD    0
        0x00007874:    00000000    ....    DCD    0
        0x00007878:    00000000    ....    DCD    0
        0x0000787c:    00000000    ....    DCD    0
        0x00007880:    00000000    ....    DCD    0
        0x00007884:    00000000    ....    DCD    0
        0x00007888:    787f0000    ...x    DCD    2021588992
        0x0000788c:    05fd1c00    ....    DCD    100473856
        0x00007890:    0300007c    |...    DCD    50331772
        0x00007894:    1d000070    p...    DCD    486539376
        0x00007898:    00081dfd    ....    DCD    531965
        0x0000789c:    00000000    ....    DCD    0
        0x000078a0:    00000000    ....    DCD    0
        0x000078a4:    00000000    ....    DCD    0
        0x000078a8:    00000000    ....    DCD    0
        0x000078ac:    00000000    ....    DCD    0
        0x000078b0:    00000000    ....    DCD    0
        0x000078b4:    00000000    ....    DCD    0
        0x000078b8:    787f0000    ...x    DCD    2021588992
        0x000078bc:    21fd1d00    ...!    DCD    570236160
        0x000078c0:    03000024    $...    DCD    50331684
        0x000078c4:    00000078    x...    DCD    120
        0x000078c8:    00000000    ....    DCD    0
        0x000078cc:    00000000    ....    DCD    0
        0x000078d0:    00000000    ....    DCD    0
        0x000078d4:    00000000    ....    DCD    0
        0x000078d8:    00000000    ....    DCD    0
        0x000078dc:    00000000    ....    DCD    0
        0x000078e0:    00000000    ....    DCD    0
        0x000078e4:    1d00787f    .x..    DCD    486570111
        0x000078e8:    004439fd    .9D.    DCD    4471293
        0x000078ec:    00800300    ....    DCD    8389376
        0x000078f0:    00000000    ....    DCD    0
        0x000078f4:    00000000    ....    DCD    0
        0x000078f8:    00000000    ....    DCD    0
        0x000078fc:    00000000    ....    DCD    0
        0x00007900:    00000000    ....    DCD    0
        0x00007904:    00000000    ....    DCD    0
        0x00007908:    00000000    ....    DCD    0
        0x0000790c:    00000000    ....    DCD    0
        0x00007910:    00000000    ....    DCD    0
        0x00007914:    00000000    ....    DCD    0
        0x00007918:    00000000    ....    DCD    0
        0x0000791c:    00000000    ....    DCD    0
        0x00007920:    00000000    ....    DCD    0
        0x00007924:    787f0000    ...x    DCD    2021588992
        0x00007928:    05fd1d00    ....    DCD    100474112
        0x0000792c:    0300007c    |...    DCD    50331772
        0x00007930:    1e000090    ....    DCD    503316624
        0x00007934:    000811fd    ....    DCD    528893
        0x00007938:    00000000    ....    DCD    0
        0x0000793c:    00000000    ....    DCD    0
        0x00007940:    00000000    ....    DCD    0
        0x00007944:    00000000    ....    DCD    0
        0x00007948:    787f0000    ...x    DCD    2021588992
        0x0000794c:    69fd1e00    ...i    DCD    1778195968
        0x00007950:    03000018    ....    DCD    50331672
        0x00007954:    030000a0    ....    DCD    50331808
        0x00007958:    000000a8    ....    DCD    168
        0x0000795c:    00000000    ....    DCD    0
        0x00007960:    00800000    ....    DCD    8388608
        0x00007964:    00000000    ....    DCD    0
        0x00007968:    00000000    ....    DCD    0
        0x0000796c:    00000000    ....    DCD    0
        0x00007970:    00000000    ....    DCD    0
        0x00007974:    00000000    ....    DCD    0
        0x00007978:    00000000    ....    DCD    0
        0x0000797c:    00000000    ....    DCD    0
        0x00007980:    00000000    ....    DCD    0
        0x00007984:    00000000    ....    DCD    0
        0x00007988:    00000000    ....    DCD    0
        0x0000798c:    00000000    ....    DCD    0
        0x00007990:    00000000    ....    DCD    0
        0x00007994:    00000000    ....    DCD    0
        0x00007998:    00000000    ....    DCD    0
        0x0000799c:    00000000    ....    DCD    0
        0x000079a0:    00000000    ....    DCD    0
        0x000079a4:    00000000    ....    DCD    0
        0x000079a8:    00000000    ....    DCD    0
        0x000079ac:    00000000    ....    DCD    0
        0x000079b0:    00000000    ....    DCD    0
        0x000079b4:    00000000    ....    DCD    0
        0x000079b8:    1f000000    ....    DCD    520093696
        0x000079bc:    00081dfd    ....    DCD    531965
        0x000079c0:    00000000    ....    DCD    0
        0x000079c4:    00000000    ....    DCD    0
        0x000079c8:    00000000    ....    DCD    0
        0x000079cc:    00000000    ....    DCD    0
        0x000079d0:    00000000    ....    DCD    0
        0x000079d4:    00000000    ....    DCD    0
        0x000079d8:    00000000    ....    DCD    0
        0x000079dc:    787f0000    ...x    DCD    2021588992
        0x000079e0:    41fd1f00    ...A    DCD    1107107584
        0x000079e4:    00000024    $...    DCD    36
        0x000079e8:    00000000    ....    DCD    0
        0x000079ec:    00800000    ....    DCD    8388608
        0x000079f0:    00000000    ....    DCD    0
        0x000079f4:    00000000    ....    DCD    0
        0x000079f8:    00000000    ....    DCD    0
        0x000079fc:    00000000    ....    DCD    0
        0x00007a00:    00000000    ....    DCD    0
        0x00007a04:    00000000    ....    DCD    0
        0x00007a08:    00000000    ....    DCD    0
        0x00007a0c:    00000000    ....    DCD    0
        0x00007a10:    00000000    ....    DCD    0
        0x00007a14:    00000000    ....    DCD    0
        0x00007a18:    00000000    ....    DCD    0
        0x00007a1c:    00000000    ....    DCD    0
        0x00007a20:    00000000    ....    DCD    0
        0x00007a24:    00000000    ....    DCD    0
        0x00007a28:    1f00787f    .x..    DCD    520124543
        0x00007a2c:    00641dfd    ..d.    DCD    6561277
        0x00007a30:    00000000    ....    DCD    0
        0x00007a34:    00000000    ....    DCD    0
        0x00007a38:    00000080    ....    DCD    128
        0x00007a3c:    00000000    ....    DCD    0
        0x00007a40:    00000000    ....    DCD    0
        0x00007a44:    00000000    ....    DCD    0
        0x00007a48:    00000000    ....    DCD    0
        0x00007a4c:    55fd2000    . .U    DCD    1442652160
        0x00007a50:    00000008    ....    DCD    8
        0x00007a54:    00000000    ....    DCD    0
        0x00007a58:    00000000    ....    DCD    0
        0x00007a5c:    00000000    ....    DCD    0
        0x00007a60:    00000000    ....    DCD    0
        0x00007a64:    00000000    ....    DCD    0
        0x00007a68:    00000000    ....    DCD    0
        0x00007a6c:    00000000    ....    DCD    0
        0x00007a70:    00000000    ....    DCD    0
        0x00007a74:    00000000    ....    DCD    0
        0x00007a78:    00000000    ....    DCD    0
        0x00007a7c:    00000000    ....    DCD    0
        0x00007a80:    00000000    ....    DCD    0
        0x00007a84:    00000000    ....    DCD    0
        0x00007a88:    00000000    ....    DCD    0
        0x00007a8c:    00000000    ....    DCD    0
        0x00007a90:    00000000    ....    DCD    0
        0x00007a94:    00000000    ....    DCD    0
        0x00007a98:    00000000    ....    DCD    0
        0x00007a9c:    00000000    ....    DCD    0
        0x00007aa0:    00000000    ....    DCD    0
        0x00007aa4:    00000000    ....    DCD    0
        0x00007aa8:    2000787f    .x.     DCD    536901759
        0x00007aac:    005c21fd    .!\.    DCD    6038013
        0x00007ab0:    00b00300    ....    DCD    11535104
        0x00007ab4:    00000000    ....    DCD    0
        0x00007ab8:    00000000    ....    DCD    0
        0x00007abc:    00000000    ....    DCD    0
        0x00007ac0:    00000000    ....    DCD    0
        0x00007ac4:    00000000    ....    DCD    0
        0x00007ac8:    00000000    ....    DCD    0
        0x00007acc:    00000000    ....    DCD    0
        0x00007ad0:    787f0000    ...x    DCD    2021588992
        0x00007ad4:    05fd2000    . ..    DCD    100474880
        0x00007ad8:    0300007c    |...    DCD    50331772
        0x00007adc:    210000b8    ...!    DCD    553648312
        0x00007ae0:    00081dfd    ....    DCD    531965
        0x00007ae4:    00000000    ....    DCD    0
        0x00007ae8:    00000000    ....    DCD    0
        0x00007aec:    00000000    ....    DCD    0
        0x00007af0:    00000000    ....    DCD    0
        0x00007af4:    00000000    ....    DCD    0
        0x00007af8:    00000000    ....    DCD    0
        0x00007afc:    00000000    ....    DCD    0
        0x00007b00:    787f0000    ...x    DCD    2021588992
        0x00007b04:    21fd2100    .!.!    DCD    570237184
        0x00007b08:    03000024    $...    DCD    50331684
        0x00007b0c:    000000c0    ....    DCD    192
        0x00007b10:    00000000    ....    DCD    0
        0x00007b14:    00000000    ....    DCD    0
        0x00007b18:    00000000    ....    DCD    0
        0x00007b1c:    00000000    ....    DCD    0
        0x00007b20:    00000000    ....    DCD    0
        0x00007b24:    00000000    ....    DCD    0
        0x00007b28:    00000000    ....    DCD    0
        0x00007b2c:    2100787f    .x.!    DCD    553678975
        0x00007b30:    004439fd    .9D.    DCD    4471293
        0x00007b34:    00c80300    ....    DCD    13107968
        0x00007b38:    00000000    ....    DCD    0
        0x00007b3c:    00000000    ....    DCD    0
        0x00007b40:    00000000    ....    DCD    0
        0x00007b44:    00000000    ....    DCD    0
        0x00007b48:    00000000    ....    DCD    0
        0x00007b4c:    00000000    ....    DCD    0
        0x00007b50:    00000000    ....    DCD    0
        0x00007b54:    00000000    ....    DCD    0
        0x00007b58:    00000000    ....    DCD    0
        0x00007b5c:    00000000    ....    DCD    0
        0x00007b60:    00000000    ....    DCD    0
        0x00007b64:    00000000    ....    DCD    0
        0x00007b68:    00000000    ....    DCD    0
        0x00007b6c:    787f0000    ...x    DCD    2021588992
        0x00007b70:    05fd2100    .!..    DCD    100475136
        0x00007b74:    0300007c    |...    DCD    50331772
        0x00007b78:    220000e0    ..."    DCD    570425568
        0x00007b7c:    000825fd    .%..    DCD    534013
        0x00007b80:    00e80300    ....    DCD    15205120
        0x00007b84:    00f00300    ....    DCD    15729408
        0x00007b88:    00000000    ....    DCD    0
        0x00007b8c:    00000000    ....    DCD    0
        0x00007b90:    00000000    ....    DCD    0
        0x00007b94:    00000000    ....    DCD    0
        0x00007b98:    00000000    ....    DCD    0
        0x00007b9c:    00000000    ....    DCD    0
        0x00007ba0:    00000000    ....    DCD    0
        0x00007ba4:    787f0000    ...x    DCD    2021588992
        0x00007ba8:    19fd2200    ."..    DCD    436019712
        0x00007bac:    0300002c    ,...    DCD    50331692
        0x00007bb0:    000000f8    ....    DCD    248
        0x00007bb4:    00000000    ....    DCD    0
        0x00007bb8:    00000000    ....    DCD    0
        0x00007bbc:    00000000    ....    DCD    0
        0x00007bc0:    00000000    ....    DCD    0
        0x00007bc4:    00000000    ....    DCD    0
        0x00007bc8:    2200787f    .x."    DCD    570456191
        0x00007bcc:    004421fd    .!D.    DCD    4465149
        0x00007bd0:    00000400    ....    DCD    1024
        0x00007bd4:    00080400    ....    DCD    525312
        0x00007bd8:    00100400    ....    DCD    1049600
        0x00007bdc:    00000000    ....    DCD    0
        0x00007be0:    00000000    ....    DCD    0
        0x00007be4:    00000000    ....    DCD    0
        0x00007be8:    00000000    ....    DCD    0
        0x00007bec:    00000000    ....    DCD    0
        0x00007bf0:    787f0000    ...x    DCD    2021588992
        0x00007bf4:    1dfd2200    ."..    DCD    503128576
        0x00007bf8:    04000064    d...    DCD    67108964
        0x00007bfc:    04000018    ....    DCD    67108888
        0x00007c00:    04000020     ...    DCD    67108896
        0x00007c04:    00000028    (...    DCD    40
        0x00007c08:    00000000    ....    DCD    0
        0x00007c0c:    00000000    ....    DCD    0
        0x00007c10:    00000000    ....    DCD    0
        0x00007c14:    23000000    ...#    DCD    587202560
        0x00007c18:    000805fd    ....    DCD    525821
        0x00007c1c:    00000000    ....    DCD    0
        0x00007c20:    787f0000    ...x    DCD    2021588992
        0x00007c24:    29fd2300    .#.)    DCD    704455424
        0x00007c28:    0400000c    ....    DCD    67108876
        0x00007c2c:    04000030    0...    DCD    67108912
        0x00007c30:    04000038    8...    DCD    67108920
        0x00007c34:    00000040    @...    DCD    64
        0x00007c38:    00000000    ....    DCD    0
        0x00007c3c:    00000000    ....    DCD    0
        0x00007c40:    00000000    ....    DCD    0
        0x00007c44:    00000000    ....    DCD    0
        0x00007c48:    00000000    ....    DCD    0
        0x00007c4c:    00000000    ....    DCD    0
        0x00007c50:    00000000    ....    DCD    0
        0x00007c54:    0e008c7f    ....    DCD    234916991
        0x00007c58:    005c25fd    .%\.    DCD    6039037
        0x00007c5c:    009cc420     ...    DCD    10273824
        0x00007c60:    7f9cc420     ...    DCD    2140980256
        0x00007c64:    7fffffff    ....    DCD    2147483647
        0x00007c68:    7fffffff    ....    DCD    2147483647
        0x00007c6c:    00ffffff    ....    DCD    16777215
        0x00007c70:    00000000    ....    DCD    0
        0x00007c74:    00000000    ....    DCD    0
        0x00007c78:    e7000000    ....    DCD    3875536896
        0x00007c7c:    00000000    ....    DCD    0
        0x00007c80:    79fd0f00    ...y    DCD    2046627584
        0x00007c84:    0080fe08    ....    DCD    8453640
        0x00007c88:    00000000    ....    DCD    0
        0x00007c8c:    00000000    ....    DCD    0
        0x00007c90:    00000800    ....    DCD    2048
        0x00007c94:    00000000    ....    DCD    0
        0x00007c98:    00000000    ....    DCD    0
        0x00007c9c:    00000000    ....    DCD    0
        0x00007ca0:    00000000    ....    DCD    0
        0x00007ca4:    00000800    ....    DCD    2048
        0x00007ca8:    00000000    ....    DCD    0
        0x00007cac:    00000000    ....    DCD    0
        0x00007cb0:    00000000    ....    DCD    0
        0x00007cb4:    00000000    ....    DCD    0
        0x00007cb8:    00800000    ....    DCD    8388608
        0x00007cbc:    00800000    ....    DCD    8388608
        0x00007cc0:    00800000    ....    DCD    8388608
        0x00007cc4:    00000800    ....    DCD    2048
        0x00007cc8:    00000000    ....    DCD    0
        0x00007ccc:    00000000    ....    DCD    0
        0x00007cd0:    00000000    ....    DCD    0
        0x00007cd4:    00000000    ....    DCD    0
        0x00007cd8:    00000800    ....    DCD    2048
        0x00007cdc:    00000000    ....    DCD    0
        0x00007ce0:    00000000    ....    DCD    0
        0x00007ce4:    00000000    ....    DCD    0
        0x00007ce8:    00000000    ....    DCD    0
        0x00007cec:    5a650000    ..eZ    DCD    1516568576
        0x00007cf0:    b5ca00fd    ....    DCD    3049914621
        0x00007cf4:    5a6500fb    ..eZ    DCD    1516568827
        0x00007cf8:    af3c0afd    ..<.    DCD    2939947773
        0x00007cfc:    100000ed    ....    DCD    268435693
        0x00007d00:    fc0879fd    .y..    DCD    4228413949
        0x00007d04:    001de42d    -...    DCD    1958957
        0x00007d08:    00fd5a65    eZ..    DCD    16603749
        0x00007d0c:    00fbb5ca    ....    DCD    16496074
        0x00007d10:    0afd5a65    eZ..    DCD    184375909
        0x00007d14:    fcedaf3c    <...    DCD    4243435324
        0x00007d18:    081de42d    -...    DCD    136176685
        0x00007d1c:    00000000    ....    DCD    0
        0x00007d20:    00000000    ....    DCD    0
        0x00007d24:    00000000    ....    DCD    0
        0x00007d28:    00000000    ....    DCD    0
        0x00007d2c:    08000000    ....    DCD    134217728
        0x00007d30:    00000000    ....    DCD    0
        0x00007d34:    00000000    ....    DCD    0
        0x00007d38:    00000000    ....    DCD    0
        0x00007d3c:    00000000    ....    DCD    0
        0x00007d40:    08000000    ....    DCD    134217728
        0x00007d44:    00000000    ....    DCD    0
        0x00007d48:    00000000    ....    DCD    0
        0x00007d4c:    00000000    ....    DCD    0
        0x00007d50:    00000000    ....    DCD    0
        0x00007d54:    08000000    ....    DCD    134217728
        0x00007d58:    00000000    ....    DCD    0
        0x00007d5c:    00000000    ....    DCD    0
        0x00007d60:    00000000    ....    DCD    0
        0x00007d64:    00000000    ....    DCD    0
        0x00007d68:    7f000000    ....    DCD    2130706432
        0x00007d6c:    7fffffff    ....    DCD    2147483647
        0x00007d70:    7fffffff    ....    DCD    2147483647
        0x00007d74:    00ffffff    ....    DCD    16777215
        0x00007d78:    00000000    ....    DCD    0
        0x00007d7c:    79fd1100    ...y    DCD    2046628096
        0x00007d80:    00000008    ....    DCD    8
        0x00007d84:    00000000    ....    DCD    0
        0x00007d88:    bcdaf900    ....    DCD    3168467200
        0x00007d8c:    8b58fc21    !.X.    DCD    2337864737
        0x00007d90:    00000089    ....    DCD    137
        0x00007d94:    00000000    ....    DCD    0
        0x00007d98:    ffff7f00    ....    DCD    4294934272
        0x00007d9c:    ffff7fff    ....    DCD    4294934527
        0x00007da0:    ffff7fff    ....    DCD    4294934527
        0x00007da4:    000000ff    ....    DCD    255
        0x00007da8:    00000000    ....    DCD    0
        0x00007dac:    00000000    ....    DCD    0
        0x00007db0:    bcdaf900    ....    DCD    3168467200
        0x00007db4:    8b58fc21    !.X.    DCD    2337864737
        0x00007db8:    00000089    ....    DCD    137
        0x00007dbc:    00000000    ....    DCD    0
        0x00007dc0:    ffff7f00    ....    DCD    4294934272
        0x00007dc4:    ffff7fff    ....    DCD    4294934527
        0x00007dc8:    ffff7fff    ....    DCD    4294934527
        0x00007dcc:    000000ff    ....    DCD    255
        0x00007dd0:    00000000    ....    DCD    0
        0x00007dd4:    00000000    ....    DCD    0
        0x00007dd8:    bcdaf900    ....    DCD    3168467200
        0x00007ddc:    8b58fc21    !.X.    DCD    2337864737
        0x00007de0:    00000089    ....    DCD    137
        0x00007de4:    00000000    ....    DCD    0
        0x00007de8:    00000000    ....    DCD    0
        0x00007dec:    00000000    ....    DCD    0
        0x00007df0:    00800000    ....    DCD    8388608
        0x00007df4:    ffff7f00    ....    DCD    4294934272
        0x00007df8:    000000ff    ....    DCD    255
        0x00007dfc:    17008c7f    ....    DCD    385911935
        0x00007e00:    000c75fd    .u..    DCD    816637
        0x00007e04:    204a26a7    .&J     DCD    541730471
        0x00007e08:    20000000    ...     DCD    536870912
        0x00007e0c:    00000000    ....    DCD    0
        0x00007e10:    ff8e4862    bH..    DCD    4287514722
        0x00007e14:    0030e983    ..0.    DCD    3205507
        0x00007e18:    0f72182e    ..r.    DCD    259135534
        0x00007e1c:    f81fae40    @...    DCD    4162825792
        0x00007e20:    07d5419a    .A..    DCD    131416474
        0x00007e24:    00ffffff    ....    DCD    16777215
        0x00007e28:    00000000    ....    DCD    0
        0x00007e2c:    00000000    ....    DCD    0
        0x00007e30:    00000000    ....    DCD    0
        0x00007e34:    07000000    ....    DCD    117440512
        0x00007e38:    f0ffffff    ....    DCD    4043309055
        0x00007e3c:    07e151bf    .Q..    DCD    132207039
        0x00007e40:    0a2bbe65    e.+.    DCD    170638949
        0x00007e44:    fc39bb19    ..9.    DCD    4231641881
        0x00007e48:    07e8793f    ?y..    DCD    132675903
        0x00007e4c:    00ffffff    ....    DCD    16777215
        0x00007e50:    00000000    ....    DCD    0
        0x00007e54:    00000000    ....    DCD    0
        0x00007e58:    00000000    ....    DCD    0
        0x00007e5c:    00000000    ....    DCD    0
        0x00007e60:    0055795c    \yU.    DCD    5601628
        0x00007e64:    00abf2b8    ....    DCD    11268792
        0x00007e68:    0d55795c    \yU.    DCD    223705436
        0x00007e6c:    fa51cc98    ..Q.    DCD    4199664792
        0x00007e70:    00952b16    .+..    DCD    9775894
        0x00007e74:    0055795c    \yU.    DCD    5601628
        0x00007e78:    79fd1800    ...y    DCD    2046629888
        0x00007e7c:    f2b80008    ....    DCD    4072144904
        0x00007e80:    795c00ab    ..\y    DCD    2036072619
        0x00007e84:    cc980d55    U...    DCD    3432516949
        0x00007e88:    2b16fa51    Q..+    DCD    722926161
        0x00007e8c:    a8e00695    ....    DCD    2833254037
        0x00007e90:    af3ef22f    /.>.    DCD    2940138031
        0x00007e94:    a8e006a2    ....    DCD    2833254050
        0x00007e98:    cc980d2f    /...    DCD    3432516911
        0x00007e9c:    2b16fa51    Q..+    DCD    722926161
        0x00007ea0:    a8e00695    ....    DCD    2833254037
        0x00007ea4:    af3ef22f    /.>.    DCD    2940138031
        0x00007ea8:    a8e006a2    ....    DCD    2833254050
        0x00007eac:    cc980d2f    /...    DCD    3432516911
        0x00007eb0:    2b16fa51    Q..+    DCD    722926161
        0x00007eb4:    994d0295    ..M.    DCD    2571960981
        0x00007eb8:    66b2fd99    ...f    DCD    1723006361
        0x00007ebc:    00800067    g...    DCD    8388711
        0x00007ec0:    00000800    ....    DCD    2048
        0x00007ec4:    00000000    ....    DCD    0
        0x00007ec8:    00000000    ....    DCD    0
        0x00007ecc:    00000000    ....    DCD    0
        0x00007ed0:    00000000    ....    DCD    0
        0x00007ed4:    00000800    ....    DCD    2048
        0x00007ed8:    00000000    ....    DCD    0
        0x00007edc:    00000000    ....    DCD    0
        0x00007ee0:    00000000    ....    DCD    0
        0x00007ee4:    00000000    ....    DCD    0
        0x00007ee8:    00000000    ....    DCD    0
        0x00007eec:    00000800    ....    DCD    2048
        0x00007ef0:    00000000    ....    DCD    0
        0x00007ef4:    19000000    ....    DCD    419430400
        0x00007ef8:    000879fd    .y..    DCD    555517
        0x00007efc:    00000000    ....    DCD    0
        0x00007f00:    00000000    ....    DCD    0
        0x00007f04:    08000000    ....    DCD    134217728
        0x00007f08:    00000000    ....    DCD    0
        0x00007f0c:    00000000    ....    DCD    0
        0x00007f10:    00000000    ....    DCD    0
        0x00007f14:    00000000    ....    DCD    0
        0x00007f18:    08000000    ....    DCD    134217728
        0x00007f1c:    00000000    ....    DCD    0
        0x00007f20:    00000000    ....    DCD    0
        0x00007f24:    00000000    ....    DCD    0
        0x00007f28:    00000000    ....    DCD    0
        0x00007f2c:    08000000    ....    DCD    134217728
        0x00007f30:    00000000    ....    DCD    0
        0x00007f34:    00000000    ....    DCD    0
        0x00007f38:    00000000    ....    DCD    0
        0x00007f3c:    00000000    ....    DCD    0
        0x00007f40:    08000000    ....    DCD    134217728
        0x00007f44:    00000000    ....    DCD    0
        0x00007f48:    00000000    ....    DCD    0
        0x00007f4c:    00000000    ....    DCD    0
        0x00007f50:    00000000    ....    DCD    0
        0x00007f54:    08000000    ....    DCD    134217728
        0x00007f58:    00000000    ....    DCD    0
        0x00007f5c:    00000000    ....    DCD    0
        0x00007f60:    00000000    ....    DCD    0
        0x00007f64:    00000000    ....    DCD    0
        0x00007f68:    02000000    ....    DCD    33554432
        0x00007f6c:    7400adde    ...t    DCD    1946201566
        0x00007f70:    00013901    .9..    DCD    80129
        0x00007f74:    0dfd1a00    ....    DCD    234691072
        0x00007f78:    c4200008    .. .    DCD    3290431496
        0x00007f7c:    0f00009b    ....    DCD    251658395
        0x00007f80:    00000000    ....    DCD    0
        0x00007f84:    000000ff    ....    DCD    255
        0x00007f88:    0040007f    ..@.    DCD    4194431
        0x00007f8c:    007f0000    ....    DCD    8323072
        0x00007f90:    117d03fd    ..}.    DCD    293405693
        0x00007f94:    010000ff    ....    DCD    16777471
        0x00007f98:    02000551    Q...    DCD    33555793
        0x00007f9c:    0000df19    ....    DCD    57113
        0x00007fa0:    0946007f    ..F.    DCD    155582591
        0x00007fa4:    04020000    ....    DCD    67239936
        0x00007fa8:    00540153    S.T.    DCD    5505363
        0x00007fac:    007f0000    ....    DCD    8323072
        0x00007fb0:    00000203    ....    DCD    515
        0x00007fb4:    00000000    ....    DCD    0
        0x00007fb8:    8c7f0000    ....    DCD    2357133312
        0x00007fbc:    09fd0b00    ....    DCD    167578368
        0x00007fc0:    00000028    (...    DCD    40
        0x00007fc4:    00000001    ....    DCD    1
        0x00007fc8:    05fd0000    ....    DCD    100466688
        0x00007fcc:    c4200050    P. .    DCD    3290431568
        0x00007fd0:    05fd009c    ....    DCD    100466844
        0x00007fd4:    ffff7f5c    \...    DCD    4294934364
        0x00007fd8:    0a0000ff    ....    DCD    167772415
        0x00007fdc:    003805fd    ..8.    DCD    3671549
        0x00007fe0:    00000000    ....    DCD    0
        0x00007fe4:    aa7f0000    ....    DCD    2860449792
        0x00007fe8:    15fd0a00    ....    DCD    368904704
        0x00007fec:    0000083c    <...    DCD    2108
        0x00007ff0:    00000000    ....    DCD    0
        0x00007ff4:    00000000    ....    DCD    0
        0x00007ff8:    00000000    ....    DCD    0
        0x00007ffc:    00000000    ....    DCD    0
        0x00008000:    15fd0000    ....    DCD    368902144
        0x00008004:    00000850    P...    DCD    2128
        0x00008008:    00000000    ....    DCD    0
        0x0000800c:    00000000    ....    DCD    0
        0x00008010:    00000000    ....    DCD    0
        0x00008014:    00000000    ....    DCD    0
        0x00008018:    00000000    ....    DCD    0
        0x0000801c:    01008c7f    ....    DCD    16813183
        0x00008020:    402809fd    ..(@    DCD    1076365821
        0x00008024:    00000000    ....    DCD    0
        0x00008028:    006bc4e2    ..k.    DCD    7062754
        0x0000802c:    1dfd0a00    ....    DCD    503122432
        0x00008030:    00800064    d...    DCD    8388708
        0x00008034:    00000000    ....    DCD    0
        0x00008038:    00800000    ....    DCD    8388608
        0x0000803c:    00000000    ....    DCD    0
        0x00008040:    00800000    ....    DCD    8388608
        0x00008044:    00000000    ....    DCD    0
        0x00008048:    00800000    ....    DCD    8388608
        0x0000804c:    0b000000    ....    DCD    184549376
        0x00008050:    00081dfd    ....    DCD    531965
        0x00008054:    03000000    ....    DCD    50331648
        0x00008058:    03ad2b8a    .+..    DCD    61680522
        0x0000805c:    00ad2b8a    .+..    DCD    11348874
        0x00008060:    00e72640    @&..    DCD    15148608
        0x00008064:    00e72640    @&..    DCD    15148608
        0x00008068:    00000000    ....    DCD    0
        0x0000806c:    00000000    ....    DCD    0
        0x00008070:    002811fd    ..(.    DCD    2626045
        0x00008074:    00010000    ....    DCD    65536
        0x00008078:    00000000    ....    DCD    0
        0x0000807c:    00c3ae00    ....    DCD    12824064
        0x00008080:    00000000    ....    DCD    0
        0x00008084:    044809fd    ..H.    DCD    71830013
        0x00008088:    0193ffc1    ....    DCD    26476481
        0x0000808c:    00986e12    .n..    DCD    9989650
        0x00008090:    7b5409fd    ..T{    DCD    2069105149
        0x00008094:    006d003e    >.m.    DCD    7143486
        0x00008098:    00c3ae00    ....    DCD    12824064
        0x0000809c:    086009fd    ..`.    DCD    140511741
        0x000080a0:    00628513    ..b.    DCD    6456595
        0x000080a4:    00000080    ....    DCD    128
        0x000080a8:    006c09fd    ..l.    DCD    7080445
        0x000080ac:    00fdd678    x...    DCD    16635512
        0x000080b0:    00851308    ....    DCD    8721160
        0x000080b4:    25fd0e00    ...%    DCD    637341184
        0x000080b8:    3244005c    \.D2    DCD    843317340
        0x000080bc:    d3060013    ....    DCD    3540385811
        0x000080c0:    a3740072    r.t.    DCD    2742288498
        0x000080c4:    cd4d001a    ..M.    DCD    3444375578
        0x000080c8:    f41900e5    ....    DCD    4095279333
        0x000080cc:    0000008f    ....    DCD    143
        0x000080d0:    00000000    ....    DCD    0
        0x000080d4:    00000000    ....    DCD    0
        0x000080d8:    285cf700    ..\(    DCD    677181184
        0x000080dc:    0f0000f6    ....    DCD    251658486
        0x000080e0:    fc080dfd    ....    DCD    4228386301
        0x000080e4:    00c5d8c2    ....    DCD    12966082
        0x000080e8:    00000000    ....    DCD    0
        0x000080ec:    00000000    ....    DCD    0
        0x000080f0:    05fd1100    ....    DCD    100471040
        0x000080f4:    ffff7f7c    |...    DCD    4294934396
        0x000080f8:    170000ff    ....    DCD    385876223
        0x000080fc:    000c0dfd    ....    DCD    790013
        0x00008100:    0272d306    ..r.    DCD    41079558
        0x00008104:    00cc9aa3    ....    DCD    13408931
        0x00008108:    0072d306    ..r.    DCD    7525126
        0x0000810c:    0dfd1800    ....    DCD    234690560
        0x00008110:    ffff7f40    @...    DCD    4294934336
        0x00008114:    01008000    ....    DCD    16809984
        0x00008118:    00800000    ....    DCD    8388608
        0x0000811c:    19000000    ....    DCD    419430400
        0x00008120:    007809fd    ..x.    DCD    7866877
        0x00008124:    1c72d306    ..r.    DCD    477287174
        0x00008128:    0041f01b    ..A.    DCD    4321307
        0x0000812c:    05fd1a00    ....    DCD    100473344
        0x00008130:    370c0408    ...7    DCD    923534344
        0x00008134:    07000014    ....    DCD    117440532
        0x00008138:    006405fd    ..d.    DCD    6555133
        0x0000813c:    00000080    ....    DCD    128
        0x00008140:    406c09fd    ..l@    DCD    1080822269
        0x00008144:    40000000    ...@    DCD    1073741824
        0x00008148:    00000000    ....    DCD    0
        0x0000814c:    0dfd1100    ....    DCD    234688768
        0x00008150:    00000070    p...    DCD    112
        0x00008154:    00000000    ....    DCD    0
        0x00008158:    00800000    ....    DCD    8388608
        0x0000815c:    29fd0000    ...)    DCD    704446464
        0x00008160:    9aa30248    H...    DCD    2594374216
        0x00008164:    9aa302cc    ....    DCD    2594374348
        0x00008168:    324400cc    ..D2    DCD    843317452
        0x0000816c:    00000013    ....    DCD    19
        0x00008170:    00000000    ....    DCD    0
        0x00008174:    4781ff00    ...G    DCD    1199701760
        0x00008178:    2106f9ae    ...!    DCD    554105262
        0x0000817c:    7397fda9    ...s    DCD    1939340713
        0x00008180:    0000003d    =...    DCD    61
        0x00008184:    00000000    ....    DCD    0
        0x00008188:    10000000    ....    DCD    268435456
        0x0000818c:    007011fd    ..p.    DCD    7344637
        0x00008190:    00984b1b    .K..    DCD    9980699
        0x00008194:    00984b1b    .K..    DCD    9980699
        0x00008198:    0086a60d    ....    DCD    8824333
        0x0000819c:    00000000    ....    DCD    0
        0x000081a0:    41fd1100    ...A    DCD    1107104000
        0x000081a4:    00000008    ....    DCD    8
        0x000081a8:    4781ff00    ...G    DCD    1199701760
        0x000081ac:    2106f9ae    ...!    DCD    554105262
        0x000081b0:    c001fea9    ....    DCD    3221356201
        0x000081b4:    00000079    y...    DCD    121
        0x000081b8:    00000000    ....    DCD    0
        0x000081bc:    9aa30200    ....    DCD    2594374144
        0x000081c0:    9aa302cc    ....    DCD    2594374348
        0x000081c4:    d30600cc    ....    DCD    3540385996
        0x000081c8:    00000072    r...    DCD    114
        0x000081cc:    00000000    ....    DCD    0
        0x000081d0:    4781ff00    ...G    DCD    1199701760
        0x000081d4:    2106f9ae    ...!    DCD    554105262
        0x000081d8:    c001fea9    ....    DCD    3221356201
        0x000081dc:    00000079    y...    DCD    121
        0x000081e0:    00000000    ....    DCD    0
        0x000081e4:    00000000    ....    DCD    0
        0x000081e8:    0100aa7f    ....    DCD    16820863
        0x000081ec:    053051fd    .Q0.    DCD    87052797
        0x000081f0:    f4f4b283    ....    DCD    4109677187
        0x000081f4:    05189af8    ....    DCD    85498616
        0x000081f8:    0af4b283    ....    DCD    183808643
        0x000081fc:    fcedaf3c    <...    DCD    4243435324
        0x00008200:    051de42d    -...    DCD    85845037
        0x00008204:    f4f4b283    ....    DCD    4109677187
        0x00008208:    05189af8    ....    DCD    85498616
        0x0000820c:    0af4b283    ....    DCD    183808643
        0x00008210:    fcedaf3c    <...    DCD    4243435324
        0x00008214:    0b1de42d    -...    DCD    186508333
        0x00008218:    007ce04c    L.|.    DCD    8183884
        0x0000821c:    00000000    ....    DCD    0
        0x00008220:    00000000    ....    DCD    0
        0x00008224:    00000000    ....    DCD    0
        0x00008228:    08000000    ....    DCD    134217728
        0x0000822c:    00000000    ....    DCD    0
        0x00008230:    00000000    ....    DCD    0
        0x00008234:    00000000    ....    DCD    0
        0x00008238:    00000000    ....    DCD    0
        0x0000823c:    00000000    ....    DCD    0
        0x00008240:    79fd0200    ...y    DCD    2046624256
        0x00008244:    00000808    ....    DCD    2056
        0x00008248:    00000000    ....    DCD    0
        0x0000824c:    00000000    ....    DCD    0
        0x00008250:    00000000    ....    DCD    0
        0x00008254:    00000000    ....    DCD    0
        0x00008258:    00000800    ....    DCD    2048
        0x0000825c:    00000000    ....    DCD    0
        0x00008260:    00000000    ....    DCD    0
        0x00008264:    00000000    ....    DCD    0
        0x00008268:    00000000    ....    DCD    0
        0x0000826c:    00000800    ....    DCD    2048
        0x00008270:    00000000    ....    DCD    0
        0x00008274:    00000000    ....    DCD    0
        0x00008278:    00000000    ....    DCD    0
        0x0000827c:    00000000    ....    DCD    0
        0x00008280:    00000800    ....    DCD    2048
        0x00008284:    00000000    ....    DCD    0
        0x00008288:    00000000    ....    DCD    0
        0x0000828c:    00000000    ....    DCD    0
        0x00008290:    00000000    ....    DCD    0
        0x00008294:    00000800    ....    DCD    2048
        0x00008298:    00000000    ....    DCD    0
        0x0000829c:    00000000    ....    DCD    0
        0x000082a0:    00000000    ....    DCD    0
        0x000082a4:    00000000    ....    DCD    0
        0x000082a8:    00000800    ....    DCD    2048
        0x000082ac:    00000000    ....    DCD    0
        0x000082b0:    00000000    ....    DCD    0
        0x000082b4:    00000000    ....    DCD    0
        0x000082b8:    00000000    ....    DCD    0
        0x000082bc:    03000000    ....    DCD    50331648
        0x000082c0:    080879fd    .y..    DCD    134773245
        0x000082c4:    00000000    ....    DCD    0
        0x000082c8:    00000000    ....    DCD    0
        0x000082cc:    00000000    ....    DCD    0
        0x000082d0:    00000000    ....    DCD    0
        0x000082d4:    08000000    ....    DCD    134217728
        0x000082d8:    00000000    ....    DCD    0
        0x000082dc:    00000000    ....    DCD    0
        0x000082e0:    00000000    ....    DCD    0
        0x000082e4:    00000000    ....    DCD    0
        0x000082e8:    08000000    ....    DCD    134217728
        0x000082ec:    00000000    ....    DCD    0
        0x000082f0:    00000000    ....    DCD    0
        0x000082f4:    00000000    ....    DCD    0
        0x000082f8:    00000000    ....    DCD    0
        0x000082fc:    08000000    ....    DCD    134217728
        0x00008300:    00000000    ....    DCD    0
        0x00008304:    00000000    ....    DCD    0
        0x00008308:    00000000    ....    DCD    0
        0x0000830c:    00000000    ....    DCD    0
        0x00008310:    08000000    ....    DCD    134217728
        0x00008314:    00000000    ....    DCD    0
        0x00008318:    00000000    ....    DCD    0
        0x0000831c:    00000000    ....    DCD    0
        0x00008320:    00000000    ....    DCD    0
        0x00008324:    08000000    ....    DCD    134217728
        0x00008328:    00000000    ....    DCD    0
        0x0000832c:    00000000    ....    DCD    0
        0x00008330:    00000000    ....    DCD    0
        0x00008334:    00000000    ....    DCD    0
        0x00008338:    00000000    ....    DCD    0
        0x0000833c:    79fd0400    ...y    DCD    2046624768
        0x00008340:    00000808    ....    DCD    2056
        0x00008344:    00000000    ....    DCD    0
        0x00008348:    00000000    ....    DCD    0
        0x0000834c:    00000000    ....    DCD    0
        0x00008350:    00000000    ....    DCD    0
        0x00008354:    00000800    ....    DCD    2048
        0x00008358:    00000000    ....    DCD    0
        0x0000835c:    00000000    ....    DCD    0
        0x00008360:    00000000    ....    DCD    0
        0x00008364:    00000000    ....    DCD    0
        0x00008368:    00000800    ....    DCD    2048
        0x0000836c:    00000000    ....    DCD    0
        0x00008370:    00000000    ....    DCD    0
        0x00008374:    00000000    ....    DCD    0
        0x00008378:    00000000    ....    DCD    0
        0x0000837c:    00000800    ....    DCD    2048
        0x00008380:    00000000    ....    DCD    0
        0x00008384:    00000000    ....    DCD    0
        0x00008388:    00000000    ....    DCD    0
        0x0000838c:    00000000    ....    DCD    0
        0x00008390:    00000800    ....    DCD    2048
        0x00008394:    00000000    ....    DCD    0
        0x00008398:    00000000    ....    DCD    0
        0x0000839c:    00000000    ....    DCD    0
        0x000083a0:    00000000    ....    DCD    0
        0x000083a4:    00000800    ....    DCD    2048
        0x000083a8:    00000000    ....    DCD    0
        0x000083ac:    00000000    ....    DCD    0
        0x000083b0:    00000000    ....    DCD    0
        0x000083b4:    00000000    ....    DCD    0
        0x000083b8:    05000000    ....    DCD    83886080
        0x000083bc:    080879fd    .y..    DCD    134773245
        0x000083c0:    00000000    ....    DCD    0
        0x000083c4:    00000000    ....    DCD    0
        0x000083c8:    00000000    ....    DCD    0
        0x000083cc:    00000000    ....    DCD    0
        0x000083d0:    08000000    ....    DCD    134217728
        0x000083d4:    00000000    ....    DCD    0
        0x000083d8:    00000000    ....    DCD    0
        0x000083dc:    00000000    ....    DCD    0
        0x000083e0:    00000000    ....    DCD    0
        0x000083e4:    08000000    ....    DCD    134217728
        0x000083e8:    00000000    ....    DCD    0
        0x000083ec:    00000000    ....    DCD    0
        0x000083f0:    00000000    ....    DCD    0
        0x000083f4:    00000000    ....    DCD    0
        0x000083f8:    08000000    ....    DCD    134217728
        0x000083fc:    00000000    ....    DCD    0
        0x00008400:    00000000    ....    DCD    0
        0x00008404:    00000000    ....    DCD    0
        0x00008408:    00000000    ....    DCD    0
        0x0000840c:    08000000    ....    DCD    134217728
        0x00008410:    00000000    ....    DCD    0
        0x00008414:    00000000    ....    DCD    0
        0x00008418:    00000000    ....    DCD    0
        0x0000841c:    00000000    ....    DCD    0
        0x00008420:    08000000    ....    DCD    134217728
        0x00008424:    00000000    ....    DCD    0
        0x00008428:    00000000    ....    DCD    0
        0x0000842c:    00000000    ....    DCD    0
        0x00008430:    00000000    ....    DCD    0
        0x00008434:    00000000    ....    DCD    0
        0x00008438:    29fd0600    ...)    DCD    704448000
        0x0000843c:    00000808    ....    DCD    2056
        0x00008440:    00000000    ....    DCD    0
        0x00008444:    00000000    ....    DCD    0
        0x00008448:    00000000    ....    DCD    0
        0x0000844c:    00000000    ....    DCD    0
        0x00008450:    00000800    ....    DCD    2048
        0x00008454:    00000000    ....    DCD    0
        0x00008458:    00000000    ....    DCD    0
        0x0000845c:    00000000    ....    DCD    0
        0x00008460:    00000000    ....    DCD    0
        0x00008464:    0f000000    ....    DCD    251658240
        0x00008468:    081429fd    .)..    DCD    135539197
        0x0000846c:    00000000    ....    DCD    0
        0x00008470:    00000000    ....    DCD    0
        0x00008474:    00000000    ....    DCD    0
        0x00008478:    00000000    ....    DCD    0
        0x0000847c:    08000000    ....    DCD    134217728
        0x00008480:    00000000    ....    DCD    0
        0x00008484:    00000000    ....    DCD    0
        0x00008488:    00000000    ....    DCD    0
        0x0000848c:    00000000    ....    DCD    0
        0x00008490:    00000000    ....    DCD    0
        0x00008494:    69fd1700    ...i    DCD    1778194176
        0x00008498:    00000018    ....    DCD    24
        0x0000849c:    00000000    ....    DCD    0
        0x000084a0:    00000000    ....    DCD    0
        0x000084a4:    00000000    ....    DCD    0
        0x000084a8:    00000000    ....    DCD    0
        0x000084ac:    00000000    ....    DCD    0
        0x000084b0:    00000000    ....    DCD    0
        0x000084b4:    00000000    ....    DCD    0
        0x000084b8:    00000000    ....    DCD    0
        0x000084bc:    00000000    ....    DCD    0
        0x000084c0:    00000000    ....    DCD    0
        0x000084c4:    00000000    ....    DCD    0
        0x000084c8:    00000000    ....    DCD    0
        0x000084cc:    00000000    ....    DCD    0
        0x000084d0:    00000000    ....    DCD    0
        0x000084d4:    00000000    ....    DCD    0
        0x000084d8:    00000000    ....    DCD    0
        0x000084dc:    00000000    ....    DCD    0
        0x000084e0:    00000000    ....    DCD    0
        0x000084e4:    00000000    ....    DCD    0
        0x000084e8:    00000000    ....    DCD    0
        0x000084ec:    00000000    ....    DCD    0
        0x000084f0:    00000000    ....    DCD    0
        0x000084f4:    00000000    ....    DCD    0
        0x000084f8:    00000000    ....    DCD    0
        0x000084fc:    00000000    ....    DCD    0
        0x00008500:    18000000    ....    DCD    402653184
        0x00008504:    000839fd    .9..    DCD    539133
        0x00008508:    00000000    ....    DCD    0
        0x0000850c:    00000000    ....    DCD    0
        0x00008510:    00000000    ....    DCD    0
        0x00008514:    08000000    ....    DCD    134217728
        0x00008518:    00000000    ....    DCD    0
        0x0000851c:    00000000    ....    DCD    0
        0x00008520:    00000000    ....    DCD    0
        0x00008524:    00000000    ....    DCD    0
        0x00008528:    08000000    ....    DCD    134217728
        0x0000852c:    00000000    ....    DCD    0
        0x00008530:    00000000    ....    DCD    0
        0x00008534:    00000000    ....    DCD    0
        0x00008538:    00000000    ....    DCD    0
        0x0000853c:    00000000    ....    DCD    0
        0x00008540:    087809fd    ..x.    DCD    142084605
        0x00008544:    00000000    ....    DCD    0
        0x00008548:    00000000    ....    DCD    0
        0x0000854c:    71fd1900    ...q    DCD    1912412416
        0x00008550:    00000008    ....    DCD    8
        0x00008554:    00000000    ....    DCD    0
        0x00008558:    00000000    ....    DCD    0
        0x0000855c:    00000800    ....    DCD    2048
        0x00008560:    00000000    ....    DCD    0
        0x00008564:    00000000    ....    DCD    0
        0x00008568:    00000000    ....    DCD    0
        0x0000856c:    00000000    ....    DCD    0
        0x00008570:    00000800    ....    DCD    2048
        0x00008574:    00000000    ....    DCD    0
        0x00008578:    00000000    ....    DCD    0
        0x0000857c:    00000000    ....    DCD    0
        0x00008580:    00000000    ....    DCD    0
        0x00008584:    00000800    ....    DCD    2048
        0x00008588:    00000000    ....    DCD    0
        0x0000858c:    00000000    ....    DCD    0
        0x00008590:    00000000    ....    DCD    0
        0x00008594:    00000000    ....    DCD    0
        0x00008598:    00000800    ....    DCD    2048
        0x0000859c:    00000000    ....    DCD    0
        0x000085a0:    00000000    ....    DCD    0
        0x000085a4:    00000000    ....    DCD    0
        0x000085a8:    00000000    ....    DCD    0
        0x000085ac:    00000800    ....    DCD    2048
        0x000085b0:    00000000    ....    DCD    0
        0x000085b4:    00000000    ....    DCD    0
        0x000085b8:    00000000    ....    DCD    0
        0x000085bc:    00000000    ....    DCD    0
        0x000085c0:    0f000000    ....    DCD    251658240
        0x000085c4:    005c15fd    ..\.    DCD    6034941
        0x000085c8:    00335800    .X3.    DCD    3364864
        0x000085cc:    0065b000    ..e.    DCD    6664192
        0x000085d0:    0f335800    .X3.    DCD    255023104
        0x000085d4:    f8e82eb4    ....    DCD    4175965876
        0x000085d8:    004e704a    JpN.    DCD    5140554
        0x000085dc:    004815fd    ..H.    DCD    4724221
        0x000085e0:    00335800    .X3.    DCD    3364864
        0x000085e4:    0065b000    ..e.    DCD    6664192
        0x000085e8:    0f335800    .X3.    DCD    255023104
        0x000085ec:    f8e82eb4    ....    DCD    4175965876
        0x000085f0:    004e704a    JpN.    DCD    5140554
        0x000085f4:    067011fd    ..p.    DCD    108007933
        0x000085f8:    f2ddada5    ....    DCD    4074614181
        0x000085fc:    0647a4b4    ..G.    DCD    105358516
        0x00008600:    0dddada5    ....    DCD    232631717
        0x00008604:    00b85e10    .^..    DCD    12082704
        0x00008608:    69fd1000    ...i    DCD    1778192384
        0x0000860c:    a779fa08    ..y.    DCD    2809788936
        0x00008610:    ada50646    F...    DCD    2913273414
        0x00008614:    a4b4f2dd    ....    DCD    2763322077
        0x00008618:    ada50647    G...    DCD    2913273415
        0x0000861c:    5e100ddd    ...^    DCD    1578110429
        0x00008620:    a779fab8    ..y.    DCD    2809789112
        0x00008624:    6fda0746    F..o    DCD    1876559686
        0x00008628:    204bf0a6    ..K     DCD    541847718
        0x0000862c:    6fda07b3    ...o    DCD    1876559795
        0x00008630:    2eb40fa6    ....    DCD    783552422
        0x00008634:    704af8e8    ..Jp    DCD    1883961576
        0x00008638:    6fda074e    N..o    DCD    1876559694
        0x0000863c:    204bf0a6    ..K     DCD    541847718
        0x00008640:    6fda07b3    ...o    DCD    1876559795
        0x00008644:    2eb40fa6    ....    DCD    783552422
        0x00008648:    704af8e8    ..Jp    DCD    1883961576
        0x0000864c:    7e1d004e    N..~    DCD    2115829838
        0x00008650:    fd3a0081    ..:.    DCD    4248436865
        0x00008654:    7e1d0001    ...~    DCD    2115829761
        0x00008658:    5e100d81    ...^    DCD    1578110337
        0x0000865c:    a779fab8    ..y.    DCD    2809789112
        0x00008660:    7e1d0046    F..~    DCD    2115829830
        0x00008664:    fd3a0081    ..:.    DCD    4248436865
        0x00008668:    7e1d0001    ...~    DCD    2115829761
        0x0000866c:    5e100d81    ...^    DCD    1578110337
        0x00008670:    a779fab8    ..y.    DCD    2809789112
        0x00008674:    00000046    F...    DCD    70
        0x00008678:    0030007f    ..0.    DCD    3145855
        0x0000867c:    09620260    `.b.    DCD    157418080
        0x00008680:    0303304c    L0..    DCD    50540620
        0x00008684:    007f0000    ....    DCD    8323072
        0x00008688:    8078        x.      DCW    32888
    .constdata
    SoftwareKeyEvent
        0x0000868a:    0000        ..      DCW    0
        0x0000868c:    f2f1f000    ....    DCD    4075941888
        0x00008690:    00f5f4f3    ....    DCD    16119027
        0x00008694:    00000000    ....    DCD    0
    .constdata
        0x00008698:    00000000    ....    DCD    0
        0x0000869c:    00000020     ...    DCD    32
        0x000086a0:    00000000    ....    DCD    0
        0x000086a4:    00000004    ....    DCD    4
        0x000086a8:    0000000c    ....    DCD    12
        0x000086ac:    00000024    $...    DCD    36
        0x000086b0:    00000000    ....    DCD    0
        0x000086b4:    00000004    ....    DCD    4
        0x000086b8:    0000002c    ,...    DCD    44
        0x000086bc:    00000000    ....    DCD    0
        0x000086c0:    00000004    ....    DCD    4
        0x000086c4:    0000002c    ,...    DCD    44
    .constdata
        0x000086c8:    00b71b00    ....    DCD    12000000
        0x000086cc:    00008000    ....    DCD    32768
        0x000086d0:    00000000    ....    DCD    0
        0x000086d4:    00000000    ....    DCD    0
        0x000086d8:    00000000    ....    DCD    0
        0x000086dc:    00002710    .'..    DCD    10000
        0x000086e0:    00000000    ....    DCD    0
        0x000086e4:    01518000    ..Q.    DCD    22118400
    .constdata
    uc_hextab
        0x000086e8:    33323130    0123    DCD    858927408
        0x000086ec:    37363534    4567    DCD    926299444
        0x000086f0:    42413938    89AB    DCD    1111570744
        0x000086f4:    46454443    CDEF    DCD    1178944579
        0x000086f8:    00583040    @0X.    DCD    5779520
    lc_hextab
        0x000086fc:    33323130    0123    DCD    858927408
        0x00008700:    37363534    4567    DCD    926299444
        0x00008704:    62613938    89ab    DCD    1650538808
        0x00008708:    66656463    cdef    DCD    1717920867
        0x0000870c:    00783040    @0x.    DCD    7876672
    .constdata
    maptable
        0x00008710:    08000004    ....    DCD    134217732
        0x00008714:    00000000    ....    DCD    0
        0x00008718:    02000000    ....    DCD    33554432
        0x0000871c:    00000100    ....    DCD    256
        0x00008720:    00000010    ....    DCD    16
    Region$$Table$$Base
        0x00008724:    00008744    D...    DCD    34628
        0x00008728:    20000000    ...     DCD    536870912
        0x0000872c:    00000248    H...    DCD    584
        0x00008730:    00000104    ....    DCD    260
        0x00008734:    0000898c    ....    DCD    35212
        0x00008738:    20000248    H..     DCD    536871496
        0x0000873c:    00000c40    @...    DCD    3136
        0x00008740:    00000120     ...    DCD    288
    Region$$Table$$Limit

** Section #2 'ER_RW' (SHT_PROGBITS) [SHF_ALLOC + SHF_WRITE]
    Size   : 584 bytes (alignment 4)
    Address: 0x20000000


** Section #3 'ER_ZI' (SHT_NOBITS) [SHF_ALLOC + SHF_WRITE]
    Size   : 3136 bytes (alignment 8)
    Address: 0x20000248


** Section #4 '.debug_abbrev' (SHT_PROGBITS)
    Size   : 1476 bytes


** Section #5 '.debug_frame' (SHT_PROGBITS)
    Size   : 5704 bytes


** Section #6 '.debug_info' (SHT_PROGBITS)
    Size   : 89220 bytes


** Section #7 '.debug_line' (SHT_PROGBITS)
    Size   : 34120 bytes


** Section #8 '.debug_loc' (SHT_PROGBITS)
    Size   : 11996 bytes


** Section #9 '.debug_macinfo' (SHT_PROGBITS)
    Size   : 477744 bytes


** Section #10 '.debug_pubnames' (SHT_PROGBITS)
    Size   : 8283 bytes


** Section #11 '.symtab' (SHT_SYMTAB)
    Size   : 18720 bytes (alignment 4)
    String table #12 '.strtab'
    Last local symbol no. 822


** Section #12 '.strtab' (SHT_STRTAB)
    Size   : 14744 bytes


** Section #13 '.note' (SHT_NOTE)
    Size   : 28 bytes (alignment 4)


** Section #14 '.comment' (SHT_PROGBITS)
    Size   : 39392 bytes


** Section #15 '.shstrtab' (SHT_STRTAB)
    Size   : 156 bytes


